ARM GAS  C:\Users\LUKASC~1\AppData\Local\Temp\ccb2ZD5o.s 			page 1


   1              		.syntax unified
   2              		.cpu cortex-m3
   3              		.fpu softvfp
   4              		.eabi_attribute 20, 1
   5              		.eabi_attribute 21, 1
   6              		.eabi_attribute 23, 3
   7              		.eabi_attribute 24, 1
   8              		.eabi_attribute 25, 1
   9              		.eabi_attribute 26, 1
  10              		.eabi_attribute 30, 1
  11              		.eabi_attribute 34, 1
  12              		.eabi_attribute 18, 4
  13              		.thumb
  14              		.file	"COM.c"
  15              		.text
  16              	.Ltext0:
  17              		.cfi_sections	.debug_frame
  18              		.section	.text.COM_Init,"ax",%progbits
  19              		.align	2
  20              		.global	COM_Init
  21              		.thumb
  22              		.thumb_func
  23              		.type	COM_Init, %function
  24              	COM_Init:
  25              	.LFB1:
  26              		.file 1 "Generated_Source\\PSoC5\\COM.c"
   1:Generated_Source\PSoC5/COM.c **** /***************************************************************************//**
   2:Generated_Source\PSoC5/COM.c **** * \file COM.c
   3:Generated_Source\PSoC5/COM.c **** * \version 3.10
   4:Generated_Source\PSoC5/COM.c **** *
   5:Generated_Source\PSoC5/COM.c **** * \brief
   6:Generated_Source\PSoC5/COM.c **** *  This file contains the global USBFS API functions.
   7:Generated_Source\PSoC5/COM.c **** *
   8:Generated_Source\PSoC5/COM.c **** * Note:
   9:Generated_Source\PSoC5/COM.c **** *  Many of the functions use an endpoint number. SRAM arrays are sized with 9
  10:Generated_Source\PSoC5/COM.c **** *  elements, so they are indexed directly by epNumber.  The SIE and ARB
  11:Generated_Source\PSoC5/COM.c **** *  registers are indexed by variations of epNumber - 1.
  12:Generated_Source\PSoC5/COM.c **** *
  13:Generated_Source\PSoC5/COM.c **** ********************************************************************************
  14:Generated_Source\PSoC5/COM.c **** * \copyright
  15:Generated_Source\PSoC5/COM.c **** * Copyright 2008-2016, Cypress Semiconductor Corporation.  All rights reserved.
  16:Generated_Source\PSoC5/COM.c **** * You may use this file only in accordance with the license, terms, conditions,
  17:Generated_Source\PSoC5/COM.c **** * disclaimers, and limitations in the end user license agreement accompanying
  18:Generated_Source\PSoC5/COM.c **** * the software package with which this file was provided.
  19:Generated_Source\PSoC5/COM.c **** *******************************************************************************/
  20:Generated_Source\PSoC5/COM.c **** 
  21:Generated_Source\PSoC5/COM.c **** #include "COM_pvt.h"
  22:Generated_Source\PSoC5/COM.c **** #include "COM_cydmac.h"
  23:Generated_Source\PSoC5/COM.c **** #include "COM_hid.h"
  24:Generated_Source\PSoC5/COM.c **** #include "COM_Dp.h"
  25:Generated_Source\PSoC5/COM.c **** 
  26:Generated_Source\PSoC5/COM.c **** 
  27:Generated_Source\PSoC5/COM.c **** /***************************************
  28:Generated_Source\PSoC5/COM.c **** * Global data allocation
  29:Generated_Source\PSoC5/COM.c **** ***************************************/
  30:Generated_Source\PSoC5/COM.c **** 
  31:Generated_Source\PSoC5/COM.c **** /** Indicates whether the USBFS has been initialized. The variable is
ARM GAS  C:\Users\LUKASC~1\AppData\Local\Temp\ccb2ZD5o.s 			page 2


  32:Generated_Source\PSoC5/COM.c **** * initialized to 0 after device reset and set to 1 the first time USBFS_Start()
  33:Generated_Source\PSoC5/COM.c **** * is called. This allows the Component to restart without reinitialization after
  34:Generated_Source\PSoC5/COM.c **** * the first call to the USBFS_Start() routine.
  35:Generated_Source\PSoC5/COM.c **** * If re-initialization of the Component is required, the variable should be set
  36:Generated_Source\PSoC5/COM.c **** * to 0 before the USBFS_Start() routine is called. Alternatively, the USBFS can
  37:Generated_Source\PSoC5/COM.c **** * be reinitialized by calling both USBFS_Init() and USBFS_InitComponent()
  38:Generated_Source\PSoC5/COM.c **** * functions.
  39:Generated_Source\PSoC5/COM.c **** */
  40:Generated_Source\PSoC5/COM.c **** uint8 COM_initVar = 0u;
  41:Generated_Source\PSoC5/COM.c **** 
  42:Generated_Source\PSoC5/COM.c **** #if (COM_EP_MANAGEMENT_DMA)
  43:Generated_Source\PSoC5/COM.c ****     #if (CY_PSOC4)
  44:Generated_Source\PSoC5/COM.c ****         static void COM_InitEpDma(void);
  45:Generated_Source\PSoC5/COM.c **** 
  46:Generated_Source\PSoC5/COM.c ****         /* DMA chanels assigend for endpoints. */
  47:Generated_Source\PSoC5/COM.c ****         const uint8 COM_DmaChan[COM_MAX_EP] =
  48:Generated_Source\PSoC5/COM.c ****         {
  49:Generated_Source\PSoC5/COM.c ****             0u,
  50:Generated_Source\PSoC5/COM.c ****             0u,
  51:Generated_Source\PSoC5/COM.c ****             0u,
  52:Generated_Source\PSoC5/COM.c ****             0u,
  53:Generated_Source\PSoC5/COM.c ****             0u,
  54:Generated_Source\PSoC5/COM.c ****             0u,
  55:Generated_Source\PSoC5/COM.c ****             0u,
  56:Generated_Source\PSoC5/COM.c ****             0u,
  57:Generated_Source\PSoC5/COM.c ****             0u,
  58:Generated_Source\PSoC5/COM.c ****         };        
  59:Generated_Source\PSoC5/COM.c ****     #else
  60:Generated_Source\PSoC5/COM.c ****         /* DMA chanels assigend for endpoints. */
  61:Generated_Source\PSoC5/COM.c ****         uint8 COM_DmaChan[COM_MAX_EP];
  62:Generated_Source\PSoC5/COM.c ****         
  63:Generated_Source\PSoC5/COM.c ****         /* DMA TDs require for PSoC 3/5LP operation. */
  64:Generated_Source\PSoC5/COM.c ****         uint8 COM_DmaTd[COM_MAX_EP];
  65:Generated_Source\PSoC5/COM.c ****     #endif /* (CY_PSOC4) */
  66:Generated_Source\PSoC5/COM.c **** #endif /* (COM_EP_MANAGEMENT_DMA) */
  67:Generated_Source\PSoC5/COM.c **** 
  68:Generated_Source\PSoC5/COM.c **** #if (COM_EP_MANAGEMENT_DMA_AUTO)
  69:Generated_Source\PSoC5/COM.c **** #if (CY_PSOC4)
  70:Generated_Source\PSoC5/COM.c ****     /* Number of DMA bursts. */
  71:Generated_Source\PSoC5/COM.c ****     uint8  COM_DmaEpBurstCnt   [COM_MAX_EP];
  72:Generated_Source\PSoC5/COM.c ****     
  73:Generated_Source\PSoC5/COM.c ****     /* Number of bytes to transfer in last DMA burst. */
  74:Generated_Source\PSoC5/COM.c ****     uint8  COM_DmaEpLastBurstEl[COM_MAX_EP];
  75:Generated_Source\PSoC5/COM.c **** 
  76:Generated_Source\PSoC5/COM.c ****     /* Storage for arrays above. */
  77:Generated_Source\PSoC5/COM.c ****     uint8  COM_DmaEpBurstCntBackup  [COM_MAX_EP];
  78:Generated_Source\PSoC5/COM.c ****     uint32 COM_DmaEpBufferAddrBackup[COM_MAX_EP];
  79:Generated_Source\PSoC5/COM.c ****      
  80:Generated_Source\PSoC5/COM.c ****     /* DMA trigger mux output for usb.dma_req[0-7]. */
  81:Generated_Source\PSoC5/COM.c ****     const uint8 COM_DmaReqOut[COM_MAX_EP] =
  82:Generated_Source\PSoC5/COM.c ****     {
  83:Generated_Source\PSoC5/COM.c ****         0u,
  84:Generated_Source\PSoC5/COM.c ****         COM_ep1_dma__TR_OUTPUT,
  85:Generated_Source\PSoC5/COM.c ****         COM_ep2_dma__TR_OUTPUT,
  86:Generated_Source\PSoC5/COM.c ****         COM_ep3_dma__TR_OUTPUT,
  87:Generated_Source\PSoC5/COM.c ****         COM_ep4_dma__TR_OUTPUT,
  88:Generated_Source\PSoC5/COM.c ****         COM_ep5_dma__TR_OUTPUT,
ARM GAS  C:\Users\LUKASC~1\AppData\Local\Temp\ccb2ZD5o.s 			page 3


  89:Generated_Source\PSoC5/COM.c ****         COM_ep6_dma__TR_OUTPUT,
  90:Generated_Source\PSoC5/COM.c ****         0u,
  91:Generated_Source\PSoC5/COM.c ****         0u,
  92:Generated_Source\PSoC5/COM.c ****     };
  93:Generated_Source\PSoC5/COM.c **** 
  94:Generated_Source\PSoC5/COM.c ****     /* DMA trigger mux output for usb.dma_burstend[0-7]. */
  95:Generated_Source\PSoC5/COM.c ****     const uint8 COM_DmaBurstEndOut[COM_MAX_EP] =
  96:Generated_Source\PSoC5/COM.c ****     {
  97:Generated_Source\PSoC5/COM.c ****         0u,
  98:Generated_Source\PSoC5/COM.c ****         COM_BURSTEND_0_TR_OUTPUT,
  99:Generated_Source\PSoC5/COM.c ****         COM_BURSTEND_1_TR_OUTPUT,
 100:Generated_Source\PSoC5/COM.c ****         COM_BURSTEND_2_TR_OUTPUT,
 101:Generated_Source\PSoC5/COM.c ****         COM_BURSTEND_3_TR_OUTPUT,
 102:Generated_Source\PSoC5/COM.c ****         COM_BURSTEND_4_TR_OUTPUT,
 103:Generated_Source\PSoC5/COM.c ****         COM_BURSTEND_5_TR_OUTPUT,
 104:Generated_Source\PSoC5/COM.c ****         COM_BURSTEND_6_TR_OUTPUT,
 105:Generated_Source\PSoC5/COM.c ****         COM_BURSTEND_7_TR_OUTPUT
 106:Generated_Source\PSoC5/COM.c ****     };
 107:Generated_Source\PSoC5/COM.c ****     
 108:Generated_Source\PSoC5/COM.c **** #else
 109:Generated_Source\PSoC5/COM.c ****     #if (COM_EP_DMA_AUTO_OPT == 0u)
 110:Generated_Source\PSoC5/COM.c ****         static uint8 clearInDataRdyStatus = COM_ARB_EPX_CFG_DEFAULT;
 111:Generated_Source\PSoC5/COM.c ****         uint8 COM_DmaNextTd[COM_MAX_EP];
 112:Generated_Source\PSoC5/COM.c ****         const uint8 COM_epX_TD_TERMOUT_EN[COM_MAX_EP] =
 113:Generated_Source\PSoC5/COM.c ****         {
 114:Generated_Source\PSoC5/COM.c ****             0u,
 115:Generated_Source\PSoC5/COM.c ****             0u,
 116:Generated_Source\PSoC5/COM.c ****             0u,
 117:Generated_Source\PSoC5/COM.c ****             0u,
 118:Generated_Source\PSoC5/COM.c ****             0u,
 119:Generated_Source\PSoC5/COM.c ****             0u,
 120:Generated_Source\PSoC5/COM.c ****             0u,
 121:Generated_Source\PSoC5/COM.c ****             0u,
 122:Generated_Source\PSoC5/COM.c ****             0u,
 123:Generated_Source\PSoC5/COM.c ****         };
 124:Generated_Source\PSoC5/COM.c **** 
 125:Generated_Source\PSoC5/COM.c ****         volatile uint16 COM_inLength[COM_MAX_EP];
 126:Generated_Source\PSoC5/COM.c ****         const uint8 *COM_inDataPointer[COM_MAX_EP];
 127:Generated_Source\PSoC5/COM.c ****         volatile uint8 COM_inBufFull[COM_MAX_EP];
 128:Generated_Source\PSoC5/COM.c ****     #endif /* (COM_EP_DMA_AUTO_OPT == 0u) */
 129:Generated_Source\PSoC5/COM.c **** #endif /* (CY_PSOC4) */
 130:Generated_Source\PSoC5/COM.c **** #endif /* (COM_EP_MANAGEMENT_DMA_AUTO) */
 131:Generated_Source\PSoC5/COM.c **** 
 132:Generated_Source\PSoC5/COM.c **** 
 133:Generated_Source\PSoC5/COM.c **** /*******************************************************************************
 134:Generated_Source\PSoC5/COM.c **** * Function Name: COM_Start
 135:Generated_Source\PSoC5/COM.c **** ****************************************************************************//**
 136:Generated_Source\PSoC5/COM.c **** *
 137:Generated_Source\PSoC5/COM.c **** *   This function performs all required initialization for the USBFS component.
 138:Generated_Source\PSoC5/COM.c **** *   After this function call, the USB device initiates communication with the
 139:Generated_Source\PSoC5/COM.c **** *   host by pull-up D+ line. This is the preferred method to begin component
 140:Generated_Source\PSoC5/COM.c **** *   operation.
 141:Generated_Source\PSoC5/COM.c **** *
 142:Generated_Source\PSoC5/COM.c **** *   Note that global interrupts have to be enabled because interrupts are
 143:Generated_Source\PSoC5/COM.c **** *   required for USBFS component operation.
 144:Generated_Source\PSoC5/COM.c **** *
 145:Generated_Source\PSoC5/COM.c **** *   PSoC 4200L devices: when USBFS component configured to DMA with Automatic
ARM GAS  C:\Users\LUKASC~1\AppData\Local\Temp\ccb2ZD5o.s 			page 4


 146:Generated_Source\PSoC5/COM.c **** *   Buffer Management, the DMA interrupt priority is changed to the highest
 147:Generated_Source\PSoC5/COM.c **** *   (priority 0) inside this function.
 148:Generated_Source\PSoC5/COM.c **** *
 149:Generated_Source\PSoC5/COM.c **** *   PSoC 3/PSoC 5LP devices: when USBFS component configured to DMA with
 150:Generated_Source\PSoC5/COM.c **** *   Automatic Buffer Management, the Arbiter interrupt priority is changed to
 151:Generated_Source\PSoC5/COM.c **** *   the highest (priority 0) inside this function.
 152:Generated_Source\PSoC5/COM.c **** *
 153:Generated_Source\PSoC5/COM.c **** *  \param device
 154:Generated_Source\PSoC5/COM.c **** *          Contains the device number of the desired device descriptor.
 155:Generated_Source\PSoC5/COM.c **** *          The device number can be found in the Device Descriptor Tab of
 156:Generated_Source\PSoC5/COM.c **** *          "Configure" dialog, under the settings of desired Device Descriptor,
 157:Generated_Source\PSoC5/COM.c **** *          in the "Device Number" field.
 158:Generated_Source\PSoC5/COM.c **** *  \param mode:
 159:Generated_Source\PSoC5/COM.c **** *   The operating voltage. This determines whether the voltage regulator
 160:Generated_Source\PSoC5/COM.c **** *   is enabled for 5V operation or if pass through mode is used for 3.3V
 161:Generated_Source\PSoC5/COM.c **** *   operation. Symbolic names and their associated values are given in the
 162:Generated_Source\PSoC5/COM.c **** *   following list.
 163:Generated_Source\PSoC5/COM.c **** *
 164:Generated_Source\PSoC5/COM.c **** *       *COM_3V_OPERATION* - Disable voltage regulator and pass-
 165:Generated_Source\PSoC5/COM.c **** *                                      through Vcc for pull-up
 166:Generated_Source\PSoC5/COM.c **** *
 167:Generated_Source\PSoC5/COM.c **** *       *COM_5V_OPERATION* - Enable voltage regulator and use
 168:Generated_Source\PSoC5/COM.c **** *                                      regulator for pull-up
 169:Generated_Source\PSoC5/COM.c **** *
 170:Generated_Source\PSoC5/COM.c **** *       *COM_DWR_POWER_OPERATION* - Enable or disable the voltage
 171:Generated_Source\PSoC5/COM.c **** *                                      regulator depending on the power supply
 172:Generated_Source\PSoC5/COM.c **** *                                      voltage configuration in the DWR tab.
 173:Generated_Source\PSoC5/COM.c **** *                                      For PSoC 3/5LP devices, the VDDD supply
 174:Generated_Source\PSoC5/COM.c **** *                                      voltage is considered and for PSoC 4A-L,
 175:Generated_Source\PSoC5/COM.c **** *                                      the VBUS supply voltage is considered.*
 176:Generated_Source\PSoC5/COM.c **** * \globalvars
 177:Generated_Source\PSoC5/COM.c **** *  \ref COM_initVar
 178:Generated_Source\PSoC5/COM.c **** *
 179:Generated_Source\PSoC5/COM.c **** * \sideeffect
 180:Generated_Source\PSoC5/COM.c **** *   This function will reset all communication states to default.
 181:Generated_Source\PSoC5/COM.c **** *
 182:Generated_Source\PSoC5/COM.c **** * \reentrant
 183:Generated_Source\PSoC5/COM.c **** *  No.
 184:Generated_Source\PSoC5/COM.c **** *
 185:Generated_Source\PSoC5/COM.c **** *******************************************************************************/
 186:Generated_Source\PSoC5/COM.c **** void COM_Start(uint8 device, uint8 mode) 
 187:Generated_Source\PSoC5/COM.c **** {
 188:Generated_Source\PSoC5/COM.c ****     if (0u == COM_initVar)
 189:Generated_Source\PSoC5/COM.c ****     {
 190:Generated_Source\PSoC5/COM.c ****         COM_Init();
 191:Generated_Source\PSoC5/COM.c ****         COM_initVar = 1u;
 192:Generated_Source\PSoC5/COM.c ****     }
 193:Generated_Source\PSoC5/COM.c **** 
 194:Generated_Source\PSoC5/COM.c ****     COM_InitComponent(device, mode);
 195:Generated_Source\PSoC5/COM.c **** }
 196:Generated_Source\PSoC5/COM.c **** 
 197:Generated_Source\PSoC5/COM.c **** 
 198:Generated_Source\PSoC5/COM.c **** /*******************************************************************************
 199:Generated_Source\PSoC5/COM.c **** * Function Name: COM_Init
 200:Generated_Source\PSoC5/COM.c **** ****************************************************************************//**
 201:Generated_Source\PSoC5/COM.c **** *
 202:Generated_Source\PSoC5/COM.c **** * This function initializes or restores the component according to the
ARM GAS  C:\Users\LUKASC~1\AppData\Local\Temp\ccb2ZD5o.s 			page 5


 203:Generated_Source\PSoC5/COM.c **** * customizer Configure dialog settings. It is not necessary to call
 204:Generated_Source\PSoC5/COM.c **** * COM_Init() because the COM_Start() routine calls
 205:Generated_Source\PSoC5/COM.c **** * this function and is the preferred method to begin component operation.
 206:Generated_Source\PSoC5/COM.c **** *
 207:Generated_Source\PSoC5/COM.c **** * \reentrant
 208:Generated_Source\PSoC5/COM.c **** *  No.
 209:Generated_Source\PSoC5/COM.c **** *
 210:Generated_Source\PSoC5/COM.c **** *******************************************************************************/
 211:Generated_Source\PSoC5/COM.c **** void COM_Init(void) 
 212:Generated_Source\PSoC5/COM.c **** {
  27              		.loc 1 212 0
  28              		.cfi_startproc
  29              		@ args = 0, pretend = 0, frame = 0
  30              		@ frame_needed = 0, uses_anonymous_args = 0
  31 0000 F8B5     		push	{r3, r4, r5, r6, r7, lr}
  32              		.cfi_def_cfa_offset 24
  33              		.cfi_offset 3, -24
  34              		.cfi_offset 4, -20
  35              		.cfi_offset 5, -16
  36              		.cfi_offset 6, -12
  37              		.cfi_offset 7, -8
  38              		.cfi_offset 14, -4
 213:Generated_Source\PSoC5/COM.c **** #if (CY_PSOC4)
 214:Generated_Source\PSoC5/COM.c ****     /* Enable clock to USB IP. */
 215:Generated_Source\PSoC5/COM.c ****     COM_USB_CLK_EN_REG = COM_USB_CLK_CSR_CLK_EN;
 216:Generated_Source\PSoC5/COM.c **** 
 217:Generated_Source\PSoC5/COM.c ****     /* The internal regulator (CR1.REG_ENABLE) is enabled in
 218:Generated_Source\PSoC5/COM.c ****     * COM_InitComponent() if it is required.
 219:Generated_Source\PSoC5/COM.c ****     */
 220:Generated_Source\PSoC5/COM.c **** 
 221:Generated_Source\PSoC5/COM.c ****     /* Enable USBIO control on drive mode of D+ and D- pins. */
 222:Generated_Source\PSoC5/COM.c ****     COM_USBIO_CR1_REG &= ~ (uint32) COM_USBIO_CR1_IOMODE;
 223:Generated_Source\PSoC5/COM.c **** 
 224:Generated_Source\PSoC5/COM.c ****     /* Set number of LF CLK to detect UBS bus reset. */
 225:Generated_Source\PSoC5/COM.c ****     COM_BUS_RST_CNT_REG = COM_DEFUALT_BUS_RST_CNT;
 226:Generated_Source\PSoC5/COM.c **** 
 227:Generated_Source\PSoC5/COM.c ****     /* Select VBUS detection source and clear PHY isolate. The application level
 228:Generated_Source\PSoC5/COM.c ****     * must ensure that VBUS is valid. There is no need to wait 2us before VBUS is valid.
 229:Generated_Source\PSoC5/COM.c ****     */
 230:Generated_Source\PSoC5/COM.c ****     COM_POWER_CTRL_REG = COM_DEFAULT_POWER_CTRL_VBUS;
 231:Generated_Source\PSoC5/COM.c **** 
 232:Generated_Source\PSoC5/COM.c ****     /* Enable PHY detector and single-ended and differential receivers. */
 233:Generated_Source\PSoC5/COM.c ****     COM_POWER_CTRL_REG |= COM_DEFAULT_POWER_CTRL_PHY;
 234:Generated_Source\PSoC5/COM.c **** 
 235:Generated_Source\PSoC5/COM.c ****     /* Suspend clear sequence. */
 236:Generated_Source\PSoC5/COM.c ****     COM_POWER_CTRL_REG &= (uint32) ~COM_POWER_CTRL_SUSPEND;
 237:Generated_Source\PSoC5/COM.c ****     CyDelayUs(COM_WAIT_SUSPEND_DEL_DISABLE);
 238:Generated_Source\PSoC5/COM.c ****     COM_POWER_CTRL_REG &= (uint32) ~COM_POWER_CTRL_SUSPEND_DEL;
 239:Generated_Source\PSoC5/COM.c **** 
 240:Generated_Source\PSoC5/COM.c ****     /* Sets IMO lock options and clear all other bits. */
 241:Generated_Source\PSoC5/COM.c ****     COM_CR1_REG = COM_DEFUALT_CR1;
 242:Generated_Source\PSoC5/COM.c **** 
 243:Generated_Source\PSoC5/COM.c ****     /* Configure level (hi, lo, med) for each interrupt source. */
 244:Generated_Source\PSoC5/COM.c ****     COM_INTR_LVL_SEL_REG = COM_DEFAULT_INTR_LVL_SEL;
 245:Generated_Source\PSoC5/COM.c **** 
 246:Generated_Source\PSoC5/COM.c ****     /* Configure interrupt sources from: SOF, Bus Reset and EP0. */
 247:Generated_Source\PSoC5/COM.c ****     COM_INTR_SIE_MASK_REG = COM_DEFAULT_INTR_SIE_MASK;
ARM GAS  C:\Users\LUKASC~1\AppData\Local\Temp\ccb2ZD5o.s 			page 6


 248:Generated_Source\PSoC5/COM.c **** 
 249:Generated_Source\PSoC5/COM.c **** #else
 250:Generated_Source\PSoC5/COM.c ****     uint8 enableInterrupts = CyEnterCriticalSection();
  39              		.loc 1 250 0
  40 0002 FFF7FEFF 		bl	CyEnterCriticalSection
  41              	.LVL0:
  42 0006 0746     		mov	r7, r0
  43              	.LVL1:
 251:Generated_Source\PSoC5/COM.c **** 
 252:Generated_Source\PSoC5/COM.c **** #if (COM_EP_MANAGEMENT_DMA)
 253:Generated_Source\PSoC5/COM.c ****     uint16 i;
 254:Generated_Source\PSoC5/COM.c **** #endif /* (COM_EP_MANAGEMENT_DMA) */
 255:Generated_Source\PSoC5/COM.c **** 
 256:Generated_Source\PSoC5/COM.c ****     /* Enable USB block. */
 257:Generated_Source\PSoC5/COM.c ****     COM_PM_ACT_CFG_REG |= COM_PM_ACT_EN_FSUSB;
  44              		.loc 1 257 0
  45 0008 484A     		ldr	r2, .L3
  46 000a 1378     		ldrb	r3, [r2]	@ zero_extendqisi2
  47 000c 43F00103 		orr	r3, r3, #1
  48 0010 1370     		strb	r3, [r2]
 258:Generated_Source\PSoC5/COM.c ****     /* Enable USB block for Standby Power Mode. */
 259:Generated_Source\PSoC5/COM.c ****     COM_PM_STBY_CFG_REG |= COM_PM_STBY_EN_FSUSB;
  49              		.loc 1 259 0
  50 0012 1032     		adds	r2, r2, #16
  51 0014 1378     		ldrb	r3, [r2]	@ zero_extendqisi2
  52 0016 43F00103 		orr	r3, r3, #1
  53 001a 1370     		strb	r3, [r2]
 260:Generated_Source\PSoC5/COM.c **** 
 261:Generated_Source\PSoC5/COM.c ****     /* Enable core clock. */
 262:Generated_Source\PSoC5/COM.c ****     COM_USB_CLK_EN_REG = COM_USB_CLK_ENABLE;
  54              		.loc 1 262 0
  55 001c 0126     		movs	r6, #1
  56 001e 444B     		ldr	r3, .L3+4
  57 0020 1E70     		strb	r6, [r3]
 263:Generated_Source\PSoC5/COM.c **** 
 264:Generated_Source\PSoC5/COM.c ****     COM_CR1_REG = COM_CR1_ENABLE_LOCK;
  58              		.loc 1 264 0
  59 0022 0225     		movs	r5, #2
  60 0024 943B     		subs	r3, r3, #148
  61 0026 1D70     		strb	r5, [r3]
 265:Generated_Source\PSoC5/COM.c **** 
 266:Generated_Source\PSoC5/COM.c ****     /* ENABLING USBIO PADS IN USB MODE FROM I/O MODE. */
 267:Generated_Source\PSoC5/COM.c ****     /* Ensure USB transmit enable is low (USB_USBIO_CR0.ten). - Manual Transmission - Disabled. */
 268:Generated_Source\PSoC5/COM.c ****     COM_USBIO_CR0_REG &= (uint8) ~COM_USBIO_CR0_TEN;
  62              		.loc 1 268 0
  63 0028 02F5E252 		add	r2, r2, #7232
  64 002c 1B32     		adds	r2, r2, #27
  65 002e 1378     		ldrb	r3, [r2]	@ zero_extendqisi2
  66 0030 03F07F03 		and	r3, r3, #127
  67 0034 1370     		strb	r3, [r2]
 269:Generated_Source\PSoC5/COM.c ****     CyDelayUs(COM_WAIT_REG_STABILITY_50NS);  /* ~50ns delay. */
  68              		.loc 1 269 0
  69 0036 0020     		movs	r0, #0
  70 0038 FFF7FEFF 		bl	CyDelayUs
  71              	.LVL2:
 270:Generated_Source\PSoC5/COM.c ****     /* Disable USBIO by asserting PM.USB_CR0.fsusbio_pd_n(Inverted.
 271:Generated_Source\PSoC5/COM.c ****     *  high. These bits will be set low by the power manager out-of-reset.
ARM GAS  C:\Users\LUKASC~1\AppData\Local\Temp\ccb2ZD5o.s 			page 7


 272:Generated_Source\PSoC5/COM.c ****     *  Also confirm USBIO pull-up is disabled.
 273:Generated_Source\PSoC5/COM.c ****     */
 274:Generated_Source\PSoC5/COM.c ****     COM_PM_USB_CR0_REG &= (uint8) ~(COM_PM_USB_CR0_PD_N |
  72              		.loc 1 274 0
  73 003c 3D4C     		ldr	r4, .L3+8
  74 003e 2378     		ldrb	r3, [r4]	@ zero_extendqisi2
  75 0040 03F0F903 		and	r3, r3, #249
  76 0044 2370     		strb	r3, [r4]
 275:Generated_Source\PSoC5/COM.c ****                                                  COM_PM_USB_CR0_PD_PULLUP_N);
 276:Generated_Source\PSoC5/COM.c **** 
 277:Generated_Source\PSoC5/COM.c ****     /* Select IOMODE to USB mode. */
 278:Generated_Source\PSoC5/COM.c ****     COM_USBIO_CR1_REG &= (uint8) ~COM_USBIO_CR1_IOMODE;
  77              		.loc 1 278 0
  78 0046 3C4A     		ldr	r2, .L3+12
  79 0048 1378     		ldrb	r3, [r2]	@ zero_extendqisi2
  80 004a 03F0DF03 		and	r3, r3, #223
  81 004e 1370     		strb	r3, [r2]
 279:Generated_Source\PSoC5/COM.c **** 
 280:Generated_Source\PSoC5/COM.c ****     /* Enable USBIO reference by setting PM.USB_CR0.fsusbio_ref_en. */
 281:Generated_Source\PSoC5/COM.c ****     COM_PM_USB_CR0_REG |= COM_PM_USB_CR0_REF_EN;
  82              		.loc 1 281 0
  83 0050 2378     		ldrb	r3, [r4]	@ zero_extendqisi2
  84 0052 3343     		orrs	r3, r3, r6
  85 0054 2370     		strb	r3, [r4]
 282:Generated_Source\PSoC5/COM.c ****     /* Reference is available for 1us after regulator is enabled. */
 283:Generated_Source\PSoC5/COM.c ****     CyDelayUs(COM_WAIT_REG_STABILITY_1US);
  86              		.loc 1 283 0
  87 0056 3046     		mov	r0, r6
  88 0058 FFF7FEFF 		bl	CyDelayUs
  89              	.LVL3:
 284:Generated_Source\PSoC5/COM.c ****     /* OR 40us after power is restored. */
 285:Generated_Source\PSoC5/COM.c ****     CyDelayUs(COM_WAIT_VREF_RESTORE);
  90              		.loc 1 285 0
  91 005c 2820     		movs	r0, #40
  92 005e FFF7FEFF 		bl	CyDelayUs
  93              	.LVL4:
 286:Generated_Source\PSoC5/COM.c ****     /* Ensure single-ended disable bits are low (PRT15.INP_DIS[7:6])(input receiver enabled). */
 287:Generated_Source\PSoC5/COM.c ****     COM_DM_INP_DIS_REG &= (uint8) ~COM_DM_MASK;
  94              		.loc 1 287 0
  95 0062 364B     		ldr	r3, .L3+16
  96 0064 1A78     		ldrb	r2, [r3]	@ zero_extendqisi2
  97 0066 02F07F02 		and	r2, r2, #127
  98 006a 1A70     		strb	r2, [r3]
 288:Generated_Source\PSoC5/COM.c ****     COM_DP_INP_DIS_REG &= (uint8) ~COM_DP_MASK;
  99              		.loc 1 288 0
 100 006c 1A78     		ldrb	r2, [r3]	@ zero_extendqisi2
 101 006e 02F0BF02 		and	r2, r2, #191
 102 0072 1A70     		strb	r2, [r3]
 289:Generated_Source\PSoC5/COM.c **** 
 290:Generated_Source\PSoC5/COM.c ****     /* Enable USBIO. */
 291:Generated_Source\PSoC5/COM.c ****     COM_PM_USB_CR0_REG |= COM_PM_USB_CR0_PD_N;
 103              		.loc 1 291 0
 104 0074 2378     		ldrb	r3, [r4]	@ zero_extendqisi2
 105 0076 2B43     		orrs	r3, r3, r5
 106 0078 2370     		strb	r3, [r4]
 292:Generated_Source\PSoC5/COM.c ****     CyDelayUs(COM_WAIT_PD_PULLUP_N_ENABLE);
 107              		.loc 1 292 0
ARM GAS  C:\Users\LUKASC~1\AppData\Local\Temp\ccb2ZD5o.s 			page 8


 108 007a 2846     		mov	r0, r5
 109 007c FFF7FEFF 		bl	CyDelayUs
 110              	.LVL5:
 293:Generated_Source\PSoC5/COM.c ****     /* Set USBIO pull-up enable. */
 294:Generated_Source\PSoC5/COM.c ****     COM_PM_USB_CR0_REG |= COM_PM_USB_CR0_PD_PULLUP_N;
 111              		.loc 1 294 0
 112 0080 2378     		ldrb	r3, [r4]	@ zero_extendqisi2
 113 0082 43F00403 		orr	r3, r3, #4
 114 0086 2370     		strb	r3, [r4]
 295:Generated_Source\PSoC5/COM.c **** 
 296:Generated_Source\PSoC5/COM.c ****     /* Reset Arbiter Write Address register for endpoint 1. */
 297:Generated_Source\PSoC5/COM.c ****     CY_SET_REG8(COM_ARB_RW1_WA_PTR,     0u);
 115              		.loc 1 297 0
 116 0088 0024     		movs	r4, #0
 117 008a 2D4B     		ldr	r3, .L3+20
 118 008c 1C70     		strb	r4, [r3]
 298:Generated_Source\PSoC5/COM.c ****     CY_SET_REG8(COM_ARB_RW1_WA_MSB_PTR, 0u);
 119              		.loc 1 298 0
 120 008e 0133     		adds	r3, r3, #1
 121 0090 1C70     		strb	r4, [r3]
 299:Generated_Source\PSoC5/COM.c **** 
 300:Generated_Source\PSoC5/COM.c **** #if (COM_EP_MANAGEMENT_DMA)
 301:Generated_Source\PSoC5/COM.c ****     /* Initialize transfer descriptor. This will be used to detect DMA state - initialized or not. 
 302:Generated_Source\PSoC5/COM.c ****     for (i = 0u; i < COM_MAX_EP; ++i)
 303:Generated_Source\PSoC5/COM.c ****     {
 304:Generated_Source\PSoC5/COM.c ****         COM_DmaTd[i] = DMA_INVALID_TD;
 305:Generated_Source\PSoC5/COM.c **** 
 306:Generated_Source\PSoC5/COM.c ****     #if (COM_EP_MANAGEMENT_DMA_AUTO && (COM_EP_DMA_AUTO_OPT == 0u))
 307:Generated_Source\PSoC5/COM.c ****         COM_DmaNextTd[i] = DMA_INVALID_TD;
 308:Generated_Source\PSoC5/COM.c ****     #endif /* (COM_EP_MANAGEMENT_DMA_AUTO && (COM_EP_DMA_AUTO_OPT == 0u)) */
 309:Generated_Source\PSoC5/COM.c ****     }
 310:Generated_Source\PSoC5/COM.c **** #endif /* (COM_EP_MANAGEMENT_DMA) */
 311:Generated_Source\PSoC5/COM.c **** 
 312:Generated_Source\PSoC5/COM.c ****     CyExitCriticalSection(enableInterrupts);
 122              		.loc 1 312 0
 123 0092 3846     		mov	r0, r7
 124 0094 FFF7FEFF 		bl	CyExitCriticalSection
 125              	.LVL6:
 313:Generated_Source\PSoC5/COM.c **** #endif /* (CY_PSOC4) */
 314:Generated_Source\PSoC5/COM.c **** 
 315:Generated_Source\PSoC5/COM.c ****     /* Configure interrupts from USB block. */
 316:Generated_Source\PSoC5/COM.c **** #if (CY_PSOC4)
 317:Generated_Source\PSoC5/COM.c ****     /* Configure hi_int: set handler and priority. */
 318:Generated_Source\PSoC5/COM.c ****     CyIntSetPriority     (COM_INTR_HI_VECT_NUM,  COM_INTR_HI_PRIORITY);
 319:Generated_Source\PSoC5/COM.c ****     (void) CyIntSetVector(COM_INTR_HI_VECT_NUM, &COM_INTR_HI_ISR);
 320:Generated_Source\PSoC5/COM.c **** 
 321:Generated_Source\PSoC5/COM.c ****     /* Configure lo_int: set handler and priority. */
 322:Generated_Source\PSoC5/COM.c ****     CyIntSetPriority     (COM_INTR_LO_VECT_NUM,  COM_INTR_LO_PRIORITY);
 323:Generated_Source\PSoC5/COM.c ****     (void) CyIntSetVector(COM_INTR_LO_VECT_NUM, &COM_INTR_LO_ISR);
 324:Generated_Source\PSoC5/COM.c **** 
 325:Generated_Source\PSoC5/COM.c ****     /* Configure med_int: set handler and priority (routed through DSI). */
 326:Generated_Source\PSoC5/COM.c ****     CyIntSetPriority     (COM_INTR_MED_VECT_NUM,  COM_INTR_MED_PRIORITY);
 327:Generated_Source\PSoC5/COM.c ****     (void) CyIntSetVector(COM_INTR_MED_VECT_NUM, &COM_INTR_MED_ISR);
 328:Generated_Source\PSoC5/COM.c **** 
 329:Generated_Source\PSoC5/COM.c **** #else
 330:Generated_Source\PSoC5/COM.c ****     /* Set bus reset interrupt. */
 331:Generated_Source\PSoC5/COM.c ****     CyIntSetPriority(COM_BUS_RESET_VECT_NUM, COM_BUS_RESET_PRIOR);
ARM GAS  C:\Users\LUKASC~1\AppData\Local\Temp\ccb2ZD5o.s 			page 9


 126              		.loc 1 331 0
 127 0098 1720     		movs	r0, #23
 128 009a 0721     		movs	r1, #7
 129 009c FFF7FEFF 		bl	CyIntSetPriority
 130              	.LVL7:
 332:Generated_Source\PSoC5/COM.c ****     (void) CyIntSetVector(COM_BUS_RESET_VECT_NUM,   &COM_BUS_RESET_ISR);
 131              		.loc 1 332 0
 132 00a0 1720     		movs	r0, #23
 133 00a2 2849     		ldr	r1, .L3+24
 134 00a4 FFF7FEFF 		bl	CyIntSetVector
 135              	.LVL8:
 333:Generated_Source\PSoC5/COM.c **** 
 334:Generated_Source\PSoC5/COM.c ****     /* Set Control Endpoint Interrupt. */
 335:Generated_Source\PSoC5/COM.c ****     CyIntSetPriority(COM_EP_0_VECT_NUM, COM_EP_0_PRIOR);
 136              		.loc 1 335 0
 137 00a8 1820     		movs	r0, #24
 138 00aa 0721     		movs	r1, #7
 139 00ac FFF7FEFF 		bl	CyIntSetPriority
 140              	.LVL9:
 336:Generated_Source\PSoC5/COM.c ****     (void) CyIntSetVector(COM_EP_0_VECT_NUM,   &COM_EP_0_ISR);
 141              		.loc 1 336 0
 142 00b0 1820     		movs	r0, #24
 143 00b2 2549     		ldr	r1, .L3+28
 144 00b4 FFF7FEFF 		bl	CyIntSetVector
 145              	.LVL10:
 337:Generated_Source\PSoC5/COM.c **** 
 338:Generated_Source\PSoC5/COM.c ****     /* Set SOF interrupt. */
 339:Generated_Source\PSoC5/COM.c ****     #if (COM_SOF_ISR_ACTIVE)
 340:Generated_Source\PSoC5/COM.c ****         CyIntSetPriority     (COM_SOF_VECT_NUM,  COM_SOF_PRIOR);
 341:Generated_Source\PSoC5/COM.c ****         (void) CyIntSetVector(COM_SOF_VECT_NUM, &COM_SOF_ISR);
 342:Generated_Source\PSoC5/COM.c ****     #endif /* (COM_SOF_ISR_ACTIVE) */
 343:Generated_Source\PSoC5/COM.c **** 
 344:Generated_Source\PSoC5/COM.c ****     /* Set Data Endpoint 1 Interrupt. */
 345:Generated_Source\PSoC5/COM.c ****     #if (COM_EP1_ISR_ACTIVE)
 346:Generated_Source\PSoC5/COM.c ****         CyIntSetPriority     (COM_EP_1_VECT_NUM,  COM_EP_1_PRIOR);
 146              		.loc 1 346 0
 147 00b8 2046     		mov	r0, r4
 148 00ba 0721     		movs	r1, #7
 149 00bc FFF7FEFF 		bl	CyIntSetPriority
 150              	.LVL11:
 347:Generated_Source\PSoC5/COM.c ****         (void) CyIntSetVector(COM_EP_1_VECT_NUM,  &COM_EP_1_ISR);
 151              		.loc 1 347 0
 152 00c0 2046     		mov	r0, r4
 153 00c2 2249     		ldr	r1, .L3+32
 154 00c4 FFF7FEFF 		bl	CyIntSetVector
 155              	.LVL12:
 348:Generated_Source\PSoC5/COM.c ****     #endif /* (COM_EP1_ISR_ACTIVE) */
 349:Generated_Source\PSoC5/COM.c **** 
 350:Generated_Source\PSoC5/COM.c ****     /* Set Data Endpoint 2 Interrupt. */
 351:Generated_Source\PSoC5/COM.c ****     #if (COM_EP2_ISR_ACTIVE)
 352:Generated_Source\PSoC5/COM.c ****         CyIntSetPriority     (COM_EP_2_VECT_NUM,  COM_EP_2_PRIOR);
 156              		.loc 1 352 0
 157 00c8 3046     		mov	r0, r6
 158 00ca 0721     		movs	r1, #7
 159 00cc FFF7FEFF 		bl	CyIntSetPriority
 160              	.LVL13:
 353:Generated_Source\PSoC5/COM.c ****         (void) CyIntSetVector(COM_EP_2_VECT_NUM, &COM_EP_2_ISR);
ARM GAS  C:\Users\LUKASC~1\AppData\Local\Temp\ccb2ZD5o.s 			page 10


 161              		.loc 1 353 0
 162 00d0 3046     		mov	r0, r6
 163 00d2 1F49     		ldr	r1, .L3+36
 164 00d4 FFF7FEFF 		bl	CyIntSetVector
 165              	.LVL14:
 354:Generated_Source\PSoC5/COM.c ****     #endif /* (COM_EP2_ISR_ACTIVE) */
 355:Generated_Source\PSoC5/COM.c **** 
 356:Generated_Source\PSoC5/COM.c ****     /* Set Data Endpoint 3 Interrupt. */
 357:Generated_Source\PSoC5/COM.c ****     #if (COM_EP3_ISR_ACTIVE)
 358:Generated_Source\PSoC5/COM.c ****         CyIntSetPriority     (COM_EP_3_VECT_NUM,  COM_EP_3_PRIOR);
 166              		.loc 1 358 0
 167 00d8 2846     		mov	r0, r5
 168 00da 0721     		movs	r1, #7
 169 00dc FFF7FEFF 		bl	CyIntSetPriority
 170              	.LVL15:
 359:Generated_Source\PSoC5/COM.c ****         (void) CyIntSetVector(COM_EP_3_VECT_NUM, &COM_EP_3_ISR);
 171              		.loc 1 359 0
 172 00e0 2846     		mov	r0, r5
 173 00e2 1C49     		ldr	r1, .L3+40
 174 00e4 FFF7FEFF 		bl	CyIntSetVector
 175              	.LVL16:
 360:Generated_Source\PSoC5/COM.c ****     #endif /* (COM_EP3_ISR_ACTIVE) */
 361:Generated_Source\PSoC5/COM.c **** 
 362:Generated_Source\PSoC5/COM.c ****     /* Set Data Endpoint 4 Interrupt. */
 363:Generated_Source\PSoC5/COM.c ****     #if (COM_EP4_ISR_ACTIVE)
 364:Generated_Source\PSoC5/COM.c ****         CyIntSetPriority     (COM_EP_4_VECT_NUM,  COM_EP_4_PRIOR);
 176              		.loc 1 364 0
 177 00e8 0320     		movs	r0, #3
 178 00ea 0721     		movs	r1, #7
 179 00ec FFF7FEFF 		bl	CyIntSetPriority
 180              	.LVL17:
 365:Generated_Source\PSoC5/COM.c ****         (void) CyIntSetVector(COM_EP_4_VECT_NUM, &COM_EP_4_ISR);
 181              		.loc 1 365 0
 182 00f0 0320     		movs	r0, #3
 183 00f2 1949     		ldr	r1, .L3+44
 184 00f4 FFF7FEFF 		bl	CyIntSetVector
 185              	.LVL18:
 366:Generated_Source\PSoC5/COM.c ****     #endif /* (COM_EP4_ISR_ACTIVE) */
 367:Generated_Source\PSoC5/COM.c **** 
 368:Generated_Source\PSoC5/COM.c ****     /* Set Data Endpoint 5 Interrupt. */
 369:Generated_Source\PSoC5/COM.c ****     #if (COM_EP5_ISR_ACTIVE)
 370:Generated_Source\PSoC5/COM.c ****         CyIntSetPriority     (COM_EP_5_VECT_NUM,  COM_EP_5_PRIOR);
 186              		.loc 1 370 0
 187 00f8 0420     		movs	r0, #4
 188 00fa 0721     		movs	r1, #7
 189 00fc FFF7FEFF 		bl	CyIntSetPriority
 190              	.LVL19:
 371:Generated_Source\PSoC5/COM.c ****         (void) CyIntSetVector(COM_EP_5_VECT_NUM, &COM_EP_5_ISR);
 191              		.loc 1 371 0
 192 0100 0420     		movs	r0, #4
 193 0102 1649     		ldr	r1, .L3+48
 194 0104 FFF7FEFF 		bl	CyIntSetVector
 195              	.LVL20:
 372:Generated_Source\PSoC5/COM.c ****     #endif /* (COM_EP5_ISR_ACTIVE) */
 373:Generated_Source\PSoC5/COM.c **** 
 374:Generated_Source\PSoC5/COM.c ****     /* Set Data Endpoint 6 Interrupt. */
 375:Generated_Source\PSoC5/COM.c ****     #if (COM_EP6_ISR_ACTIVE)
ARM GAS  C:\Users\LUKASC~1\AppData\Local\Temp\ccb2ZD5o.s 			page 11


 376:Generated_Source\PSoC5/COM.c ****         CyIntSetPriority     (COM_EP_6_VECT_NUM,  COM_EP_6_PRIOR);
 196              		.loc 1 376 0
 197 0108 0520     		movs	r0, #5
 198 010a 0721     		movs	r1, #7
 199 010c FFF7FEFF 		bl	CyIntSetPriority
 200              	.LVL21:
 377:Generated_Source\PSoC5/COM.c ****         (void) CyIntSetVector(COM_EP_6_VECT_NUM, &COM_EP_6_ISR);
 201              		.loc 1 377 0
 202 0110 0520     		movs	r0, #5
 203 0112 1349     		ldr	r1, .L3+52
 204 0114 FFF7FEFF 		bl	CyIntSetVector
 205              	.LVL22:
 378:Generated_Source\PSoC5/COM.c ****     #endif /* (COM_EP6_ISR_ACTIVE) */
 379:Generated_Source\PSoC5/COM.c **** 
 380:Generated_Source\PSoC5/COM.c ****      /* Set Data Endpoint 7 Interrupt. */
 381:Generated_Source\PSoC5/COM.c ****     #if (COM_EP7_ISR_ACTIVE)
 382:Generated_Source\PSoC5/COM.c ****         CyIntSetPriority     (COM_EP_7_VECT_NUM,  COM_EP_7_PRIOR);
 383:Generated_Source\PSoC5/COM.c ****         (void) CyIntSetVector(COM_EP_7_VECT_NUM, &COM_EP_7_ISR);
 384:Generated_Source\PSoC5/COM.c ****     #endif /* (COM_EP7_ISR_ACTIVE) */
 385:Generated_Source\PSoC5/COM.c **** 
 386:Generated_Source\PSoC5/COM.c ****     /* Set Data Endpoint 8 Interrupt. */
 387:Generated_Source\PSoC5/COM.c ****     #if (COM_EP8_ISR_ACTIVE)
 388:Generated_Source\PSoC5/COM.c ****         CyIntSetPriority     (COM_EP_8_VECT_NUM,  COM_EP_8_PRIOR);
 389:Generated_Source\PSoC5/COM.c ****         (void) CyIntSetVector(COM_EP_8_VECT_NUM, &COM_EP_8_ISR);
 390:Generated_Source\PSoC5/COM.c ****     #endif /* (COM_EP8_ISR_ACTIVE) */
 391:Generated_Source\PSoC5/COM.c **** 
 392:Generated_Source\PSoC5/COM.c ****     /* Set ARB Interrupt. */
 393:Generated_Source\PSoC5/COM.c ****     #if (COM_EP_MANAGEMENT_DMA && COM_ARB_ISR_ACTIVE)
 394:Generated_Source\PSoC5/COM.c ****         CyIntSetPriority     (COM_ARB_VECT_NUM,  COM_ARB_PRIOR);
 395:Generated_Source\PSoC5/COM.c ****         (void) CyIntSetVector(COM_ARB_VECT_NUM, &COM_ARB_ISR);
 396:Generated_Source\PSoC5/COM.c ****     #endif /* (COM_EP_MANAGEMENT_DMA && COM_ARB_ISR_ACTIVE) */
 397:Generated_Source\PSoC5/COM.c **** #endif /* (CY_PSOC4) */
 398:Generated_Source\PSoC5/COM.c **** 
 399:Generated_Source\PSoC5/COM.c ****     /* Common: Configure GPIO interrupt for wakeup. */
 400:Generated_Source\PSoC5/COM.c **** #if (COM_DP_ISR_ACTIVE)
 401:Generated_Source\PSoC5/COM.c ****     CyIntSetPriority     (COM_DP_INTC_VECT_NUM,  COM_DP_INTC_PRIORITY);
 206              		.loc 1 401 0
 207 0118 0C20     		movs	r0, #12
 208 011a 0721     		movs	r1, #7
 209 011c FFF7FEFF 		bl	CyIntSetPriority
 210              	.LVL23:
 402:Generated_Source\PSoC5/COM.c ****     (void) CyIntSetVector(COM_DP_INTC_VECT_NUM, &COM_DP_ISR);
 211              		.loc 1 402 0
 212 0120 0C20     		movs	r0, #12
 213 0122 1049     		ldr	r1, .L3+56
 214 0124 FFF7FEFF 		bl	CyIntSetVector
 215              	.LVL24:
 216 0128 F8BD     		pop	{r3, r4, r5, r6, r7, pc}
 217              	.LVL25:
 218              	.L4:
 219 012a 00BF     		.align	2
 220              	.L3:
 221 012c A5430040 		.word	1073759141
 222 0130 9D600040 		.word	1073766557
 223 0134 94430040 		.word	1073759124
 224 0138 12600040 		.word	1073766418
 225 013c F8510040 		.word	1073762808
ARM GAS  C:\Users\LUKASC~1\AppData\Local\Temp\ccb2ZD5o.s 			page 12


 226 0140 84600040 		.word	1073766532
 227 0144 00000000 		.word	COM_BUS_RESET_ISR
 228 0148 00000000 		.word	COM_EP_0_ISR
 229 014c 00000000 		.word	COM_EP_1_ISR
 230 0150 00000000 		.word	COM_EP_2_ISR
 231 0154 00000000 		.word	COM_EP_3_ISR
 232 0158 00000000 		.word	COM_EP_4_ISR
 233 015c 00000000 		.word	COM_EP_5_ISR
 234 0160 00000000 		.word	COM_EP_6_ISR
 235 0164 00000000 		.word	COM_DP_ISR
 236              		.cfi_endproc
 237              	.LFE1:
 238              		.size	COM_Init, .-COM_Init
 239              		.section	.text.COM_InitComponent,"ax",%progbits
 240              		.align	2
 241              		.global	COM_InitComponent
 242              		.thumb
 243              		.thumb_func
 244              		.type	COM_InitComponent, %function
 245              	COM_InitComponent:
 246              	.LFB2:
 403:Generated_Source\PSoC5/COM.c **** #endif /* (COM_DP_ISR_ACTIVE) */
 404:Generated_Source\PSoC5/COM.c **** 
 405:Generated_Source\PSoC5/COM.c **** #if (COM_EP_MANAGEMENT_DMA && CY_PSOC4)
 406:Generated_Source\PSoC5/COM.c ****     /* Initialize DMA channels. */
 407:Generated_Source\PSoC5/COM.c ****     COM_InitEpDma();
 408:Generated_Source\PSoC5/COM.c **** #endif /* (COM_EP_MANAGEMENT_DMA && CY_PSOC4) */
 409:Generated_Source\PSoC5/COM.c **** }
 410:Generated_Source\PSoC5/COM.c **** 
 411:Generated_Source\PSoC5/COM.c **** 
 412:Generated_Source\PSoC5/COM.c **** /*******************************************************************************
 413:Generated_Source\PSoC5/COM.c **** * Function Name: COM_InitComponent
 414:Generated_Source\PSoC5/COM.c **** ****************************************************************************//**
 415:Generated_Source\PSoC5/COM.c **** *
 416:Generated_Source\PSoC5/COM.c **** *   This function initializes the component’s global variables and initiates
 417:Generated_Source\PSoC5/COM.c **** *   communication with the host by pull-up D+ line.
 418:Generated_Source\PSoC5/COM.c **** *
 419:Generated_Source\PSoC5/COM.c **** * \param device:
 420:Generated_Source\PSoC5/COM.c **** *   Contains the device number of the desired device descriptor. The device
 421:Generated_Source\PSoC5/COM.c **** *   number can be found in the Device Descriptor Tab of "Configure" dialog,
 422:Generated_Source\PSoC5/COM.c **** *   under the settings of desired Device Descriptor, in the *Device Number*
 423:Generated_Source\PSoC5/COM.c **** *   field.
 424:Generated_Source\PSoC5/COM.c **** *  \param mode:
 425:Generated_Source\PSoC5/COM.c **** *   The operating voltage. This determines whether the voltage regulator
 426:Generated_Source\PSoC5/COM.c **** *   is enabled for 5V operation or if pass through mode is used for 3.3V
 427:Generated_Source\PSoC5/COM.c **** *   operation. Symbolic names and their associated values are given in the
 428:Generated_Source\PSoC5/COM.c **** *   following list.
 429:Generated_Source\PSoC5/COM.c **** *
 430:Generated_Source\PSoC5/COM.c **** *       *COM_3V_OPERATION* - Disable voltage regulator and pass-
 431:Generated_Source\PSoC5/COM.c **** *                                      through Vcc for pull-up
 432:Generated_Source\PSoC5/COM.c **** *
 433:Generated_Source\PSoC5/COM.c **** *       *COM_5V_OPERATION* - Enable voltage regulator and use
 434:Generated_Source\PSoC5/COM.c **** *                                      regulator for pull-up
 435:Generated_Source\PSoC5/COM.c **** *
 436:Generated_Source\PSoC5/COM.c **** *       *COM_DWR_POWER_OPERATION* - Enable or disable the voltage
 437:Generated_Source\PSoC5/COM.c **** *                                      regulator depending on the power supply
 438:Generated_Source\PSoC5/COM.c **** *                                      voltage configuration in the DWR tab.
ARM GAS  C:\Users\LUKASC~1\AppData\Local\Temp\ccb2ZD5o.s 			page 13


 439:Generated_Source\PSoC5/COM.c **** *                                      For PSoC 3/5LP devices, the VDDD supply
 440:Generated_Source\PSoC5/COM.c **** *                                      voltage is considered and for PSoC 4A-L,
 441:Generated_Source\PSoC5/COM.c **** *                                      the VBUS supply voltage is considered.
 442:Generated_Source\PSoC5/COM.c **** *
 443:Generated_Source\PSoC5/COM.c **** * \globalvars
 444:Generated_Source\PSoC5/COM.c **** *   \ref COM_device
 445:Generated_Source\PSoC5/COM.c **** *   \ref COM_transferState
 446:Generated_Source\PSoC5/COM.c **** *   \ref COM_configuration
 447:Generated_Source\PSoC5/COM.c **** *   \ref COM_deviceStatus
 448:Generated_Source\PSoC5/COM.c **** *
 449:Generated_Source\PSoC5/COM.c **** *   \ref COM_deviceAddress - Contains the current device address. This
 450:Generated_Source\PSoC5/COM.c **** *       variable is initialized to zero in this API. The Host starts to communicate
 451:Generated_Source\PSoC5/COM.c **** *      to the device with address 0 and then sets it to a whatever value using a
 452:Generated_Source\PSoC5/COM.c **** *      SET_ADDRESS request.
 453:Generated_Source\PSoC5/COM.c **** *
 454:Generated_Source\PSoC5/COM.c **** *   \ref COM_lastPacketSize - Initialized to 0;
 455:Generated_Source\PSoC5/COM.c **** *
 456:Generated_Source\PSoC5/COM.c **** * \reentrant
 457:Generated_Source\PSoC5/COM.c **** *  No.
 458:Generated_Source\PSoC5/COM.c **** *
 459:Generated_Source\PSoC5/COM.c **** *******************************************************************************/
 460:Generated_Source\PSoC5/COM.c **** void COM_InitComponent(uint8 device, uint8 mode) 
 461:Generated_Source\PSoC5/COM.c **** {
 247              		.loc 1 461 0
 248              		.cfi_startproc
 249              		@ args = 0, pretend = 0, frame = 0
 250              		@ frame_needed = 0, uses_anonymous_args = 0
 251              	.LVL26:
 252 0000 08B5     		push	{r3, lr}
 253              		.cfi_def_cfa_offset 8
 254              		.cfi_offset 3, -8
 255              		.cfi_offset 14, -4
 462:Generated_Source\PSoC5/COM.c ****     /* Initialize _hidProtocol variable to comply with
 463:Generated_Source\PSoC5/COM.c ****     *  HID 7.2.6 Set_Protocol Request:
 464:Generated_Source\PSoC5/COM.c ****     *  "When initialized, all devices default to report protocol."
 465:Generated_Source\PSoC5/COM.c ****     */
 466:Generated_Source\PSoC5/COM.c **** #if defined(COM_ENABLE_HID_CLASS)
 467:Generated_Source\PSoC5/COM.c ****     uint8 i;
 468:Generated_Source\PSoC5/COM.c **** 
 469:Generated_Source\PSoC5/COM.c ****     for (i = 0u; i < COM_MAX_INTERFACES_NUMBER; i++)
 470:Generated_Source\PSoC5/COM.c ****     {
 471:Generated_Source\PSoC5/COM.c ****         COM_hidProtocol[i] = COM_PROTOCOL_REPORT;
 472:Generated_Source\PSoC5/COM.c ****     }
 473:Generated_Source\PSoC5/COM.c **** #endif /* COM_ENABLE_HID_CLASS */
 474:Generated_Source\PSoC5/COM.c **** 
 475:Generated_Source\PSoC5/COM.c ****     /* Store device number to access descriptor. */
 476:Generated_Source\PSoC5/COM.c ****     COM_device = device;
 256              		.loc 1 476 0
 257 0002 234B     		ldr	r3, .L12
 258 0004 1870     		strb	r0, [r3]
 477:Generated_Source\PSoC5/COM.c **** 
 478:Generated_Source\PSoC5/COM.c ****     /* Reset component internal variables. */
 479:Generated_Source\PSoC5/COM.c ****     COM_transferState   = COM_TRANS_STATE_IDLE;
 259              		.loc 1 479 0
 260 0006 0023     		movs	r3, #0
 261 0008 224A     		ldr	r2, .L12+4
 262 000a 1370     		strb	r3, [r2]
ARM GAS  C:\Users\LUKASC~1\AppData\Local\Temp\ccb2ZD5o.s 			page 14


 480:Generated_Source\PSoC5/COM.c ****     COM_configurationChanged = 0u;
 263              		.loc 1 480 0
 264 000c 224A     		ldr	r2, .L12+8
 265 000e 1370     		strb	r3, [r2]
 481:Generated_Source\PSoC5/COM.c ****     COM_configuration   = 0u;
 266              		.loc 1 481 0
 267 0010 224A     		ldr	r2, .L12+12
 268 0012 1370     		strb	r3, [r2]
 482:Generated_Source\PSoC5/COM.c ****     COM_interfaceNumber = 0u;
 269              		.loc 1 482 0
 270 0014 224A     		ldr	r2, .L12+16
 271 0016 1370     		strb	r3, [r2]
 483:Generated_Source\PSoC5/COM.c ****     COM_deviceAddress   = 0u;
 272              		.loc 1 483 0
 273 0018 224A     		ldr	r2, .L12+20
 274 001a 1370     		strb	r3, [r2]
 484:Generated_Source\PSoC5/COM.c ****     COM_deviceStatus    = 0u;
 275              		.loc 1 484 0
 276 001c 224A     		ldr	r2, .L12+24
 277 001e 1370     		strb	r3, [r2]
 485:Generated_Source\PSoC5/COM.c ****     COM_lastPacketSize  = 0u;
 278              		.loc 1 485 0
 279 0020 224A     		ldr	r2, .L12+28
 280 0022 1370     		strb	r3, [r2]
 486:Generated_Source\PSoC5/COM.c **** 
 487:Generated_Source\PSoC5/COM.c ****     /* Enable component interrupts. */
 488:Generated_Source\PSoC5/COM.c **** #if (CY_PSOC4)
 489:Generated_Source\PSoC5/COM.c ****     CyIntEnable(COM_INTR_HI_VECT_NUM);
 490:Generated_Source\PSoC5/COM.c ****     CyIntEnable(COM_INTR_MED_VECT_NUM);
 491:Generated_Source\PSoC5/COM.c ****     CyIntEnable(COM_INTR_LO_VECT_NUM);
 492:Generated_Source\PSoC5/COM.c **** #else
 493:Generated_Source\PSoC5/COM.c ****     CyIntEnable(COM_BUS_RESET_VECT_NUM);
 281              		.loc 1 493 0
 282 0024 224B     		ldr	r3, .L12+32
 283 0026 4FF40002 		mov	r2, #8388608
 284 002a 1A60     		str	r2, [r3]
 494:Generated_Source\PSoC5/COM.c ****     CyIntEnable(COM_EP_0_VECT_NUM);
 285              		.loc 1 494 0
 286 002c 4FF08072 		mov	r2, #16777216
 287 0030 1A60     		str	r2, [r3]
 495:Generated_Source\PSoC5/COM.c **** 
 496:Generated_Source\PSoC5/COM.c ****     #if (COM_SOF_ISR_ACTIVE)
 497:Generated_Source\PSoC5/COM.c ****         CyIntEnable(COM_SOF_VECT_NUM);
 498:Generated_Source\PSoC5/COM.c ****     #endif /* (COM_SOF_ISR_ACTIVE) */
 499:Generated_Source\PSoC5/COM.c **** 
 500:Generated_Source\PSoC5/COM.c ****     #if (COM_EP1_ISR_ACTIVE)
 501:Generated_Source\PSoC5/COM.c ****         CyIntEnable(COM_EP_1_VECT_NUM);
 288              		.loc 1 501 0
 289 0032 0122     		movs	r2, #1
 290 0034 1A60     		str	r2, [r3]
 502:Generated_Source\PSoC5/COM.c ****     #endif /* (COM_EP1_ISR_ACTIVE) */
 503:Generated_Source\PSoC5/COM.c **** 
 504:Generated_Source\PSoC5/COM.c ****     #if (COM_EP2_ISR_ACTIVE)
 505:Generated_Source\PSoC5/COM.c ****         CyIntEnable(COM_EP_2_VECT_NUM);
 291              		.loc 1 505 0
 292 0036 0222     		movs	r2, #2
 293 0038 1A60     		str	r2, [r3]
ARM GAS  C:\Users\LUKASC~1\AppData\Local\Temp\ccb2ZD5o.s 			page 15


 506:Generated_Source\PSoC5/COM.c ****     #endif /* (COM_EP5_ISR_ACTIVE) */
 507:Generated_Source\PSoC5/COM.c **** 
 508:Generated_Source\PSoC5/COM.c ****     #if (COM_EP3_ISR_ACTIVE)
 509:Generated_Source\PSoC5/COM.c ****         CyIntEnable(COM_EP_3_VECT_NUM);
 294              		.loc 1 509 0
 295 003a 0422     		movs	r2, #4
 296 003c 1A60     		str	r2, [r3]
 510:Generated_Source\PSoC5/COM.c ****     #endif /* (COM_EP5_ISR_ACTIVE) */
 511:Generated_Source\PSoC5/COM.c **** 
 512:Generated_Source\PSoC5/COM.c ****     #if (COM_EP4_ISR_ACTIVE)
 513:Generated_Source\PSoC5/COM.c ****         CyIntEnable(COM_EP_4_VECT_NUM);
 297              		.loc 1 513 0
 298 003e 0822     		movs	r2, #8
 299 0040 1A60     		str	r2, [r3]
 514:Generated_Source\PSoC5/COM.c ****     #endif /* (COM_EP5_ISR_ACTIVE) */
 515:Generated_Source\PSoC5/COM.c **** 
 516:Generated_Source\PSoC5/COM.c ****     #if (COM_EP5_ISR_ACTIVE)
 517:Generated_Source\PSoC5/COM.c ****         CyIntEnable(COM_EP_5_VECT_NUM);
 300              		.loc 1 517 0
 301 0042 1022     		movs	r2, #16
 302 0044 1A60     		str	r2, [r3]
 518:Generated_Source\PSoC5/COM.c ****     #endif /* (COM_EP5_ISR_ACTIVE) */
 519:Generated_Source\PSoC5/COM.c **** 
 520:Generated_Source\PSoC5/COM.c ****     #if (COM_EP6_ISR_ACTIVE)
 521:Generated_Source\PSoC5/COM.c ****         CyIntEnable(COM_EP_6_VECT_NUM);
 303              		.loc 1 521 0
 304 0046 2022     		movs	r2, #32
 305 0048 1A60     		str	r2, [r3]
 522:Generated_Source\PSoC5/COM.c ****     #endif /* COM_EP6_ISR_REMOVE */
 523:Generated_Source\PSoC5/COM.c **** 
 524:Generated_Source\PSoC5/COM.c ****     #if (COM_EP7_ISR_ACTIVE)
 525:Generated_Source\PSoC5/COM.c ****         CyIntEnable(COM_EP_7_VECT_NUM);
 526:Generated_Source\PSoC5/COM.c ****     #endif /* (COM_EP7_ISR_ACTIVE) */
 527:Generated_Source\PSoC5/COM.c **** 
 528:Generated_Source\PSoC5/COM.c ****     #if (COM_EP8_ISR_ACTIVE)
 529:Generated_Source\PSoC5/COM.c ****         CyIntEnable(COM_EP_8_VECT_NUM);
 530:Generated_Source\PSoC5/COM.c ****     #endif /* (COM_EP8_ISR_ACTIVE) */
 531:Generated_Source\PSoC5/COM.c **** #endif /* (CY_PSOC4) */
 532:Generated_Source\PSoC5/COM.c **** 
 533:Generated_Source\PSoC5/COM.c **** #if (COM_EP_MANAGEMENT_DMA && COM_ARB_ISR_ACTIVE)
 534:Generated_Source\PSoC5/COM.c ****     /* Enable ARB EP interrupt sources. */
 535:Generated_Source\PSoC5/COM.c ****     COM_ARB_INT_EN_REG = COM_DEFAULT_ARB_INT_EN;
 536:Generated_Source\PSoC5/COM.c **** 
 537:Generated_Source\PSoC5/COM.c ****     #if (CY_PSOC3 || CY_PSOC5)
 538:Generated_Source\PSoC5/COM.c ****         CyIntEnable(COM_ARB_VECT_NUM);
 539:Generated_Source\PSoC5/COM.c ****     #endif /* (CY_PSOC3 || CY_PSOC5) */
 540:Generated_Source\PSoC5/COM.c **** #endif   /* (COM_EP_MANAGEMENT_DMA && COM_ARB_ISR_ACTIVE) */
 541:Generated_Source\PSoC5/COM.c **** 
 542:Generated_Source\PSoC5/COM.c **** /* Arbiter configuration for DMA transfers. */
 543:Generated_Source\PSoC5/COM.c **** #if (COM_EP_MANAGEMENT_DMA)
 544:Generated_Source\PSoC5/COM.c ****     /* Configure Arbiter for Manual or Auto DMA operation and clear configuration completion. */
 545:Generated_Source\PSoC5/COM.c ****     COM_ARB_CFG_REG = COM_DEFAULT_ARB_CFG;
 546:Generated_Source\PSoC5/COM.c **** 
 547:Generated_Source\PSoC5/COM.c ****     #if (CY_PSOC4)
 548:Generated_Source\PSoC5/COM.c ****         /* Enable DMA operation. */
 549:Generated_Source\PSoC5/COM.c ****         CyDmaEnable();
 550:Generated_Source\PSoC5/COM.c **** 
ARM GAS  C:\Users\LUKASC~1\AppData\Local\Temp\ccb2ZD5o.s 			page 16


 551:Generated_Source\PSoC5/COM.c ****         #if (COM_EP_MANAGEMENT_DMA_AUTO)
 552:Generated_Source\PSoC5/COM.c ****             /* Change DMA priority to be highest. */
 553:Generated_Source\PSoC5/COM.c ****              CyIntSetPriority(CYDMA_INTR_NUMBER, COM_DMA_AUTO_INTR_PRIO);
 554:Generated_Source\PSoC5/COM.c ****         #endif /* (COM_EP_MANAGEMENT_DMA_AUTO) */
 555:Generated_Source\PSoC5/COM.c ****     #endif /* (CY_PSOC4) */
 556:Generated_Source\PSoC5/COM.c **** 
 557:Generated_Source\PSoC5/COM.c ****     #if (COM_EP_MANAGEMENT_DMA_AUTO)
 558:Generated_Source\PSoC5/COM.c ****         #if (CY_PSOC4)
 559:Generated_Source\PSoC5/COM.c ****             /* Enable DMA interrupt to handle DMA management. */
 560:Generated_Source\PSoC5/COM.c ****             CyIntEnable(CYDMA_INTR_NUMBER);
 561:Generated_Source\PSoC5/COM.c ****         #else
 562:Generated_Source\PSoC5/COM.c ****             #if (COM_EP_DMA_AUTO_OPT == 0u)
 563:Generated_Source\PSoC5/COM.c ****                 /* Initialize interrupts which handle verification of successful DMA transaction. *
 564:Generated_Source\PSoC5/COM.c ****                 COM_EP_DMA_Done_isr_StartEx(&COM_EP_DMA_DONE_ISR);
 565:Generated_Source\PSoC5/COM.c ****                 COM_EP17_DMA_Done_SR_InterruptEnable();
 566:Generated_Source\PSoC5/COM.c ****                 COM_EP8_DMA_Done_SR_InterruptEnable();
 567:Generated_Source\PSoC5/COM.c ****             #endif /* (COM_EP_DMA_AUTO_OPT == 0u) */
 568:Generated_Source\PSoC5/COM.c ****         #endif /* (CY_PSOC4) */
 569:Generated_Source\PSoC5/COM.c ****     #endif /* (COM_EP_MANAGEMENT_DMA_AUTO) */
 570:Generated_Source\PSoC5/COM.c **** #endif /* (COM_EP_MANAGEMENT_DMA) */
 571:Generated_Source\PSoC5/COM.c **** 
 572:Generated_Source\PSoC5/COM.c ****     /* Enable USB regulator depends on operation voltage. IMO Locking is enabled in Init(). */
 573:Generated_Source\PSoC5/COM.c ****     switch(mode)
 306              		.loc 1 573 0
 307 004a 11B1     		cbz	r1, .L7
 308 004c 0129     		cmp	r1, #1
 309 004e 06D0     		beq	.L8
 310 0050 0BE0     		b	.L10
 311              	.L7:
 574:Generated_Source\PSoC5/COM.c ****     {
 575:Generated_Source\PSoC5/COM.c ****     case COM_3V_OPERATION:
 576:Generated_Source\PSoC5/COM.c ****         /* Disable regulator for 3V operation. */
 577:Generated_Source\PSoC5/COM.c ****         COM_CR1_REG &= (uint8) ~COM_CR1_REG_ENABLE;
 312              		.loc 1 577 0
 313 0052 184A     		ldr	r2, .L12+36
 314 0054 1378     		ldrb	r3, [r2]	@ zero_extendqisi2
 315 0056 03F0FE03 		and	r3, r3, #254
 316 005a 1370     		strb	r3, [r2]
 578:Generated_Source\PSoC5/COM.c ****         break;
 317              		.loc 1 578 0
 318 005c 0AE0     		b	.L9
 319              	.L8:
 579:Generated_Source\PSoC5/COM.c **** 
 580:Generated_Source\PSoC5/COM.c ****     case COM_5V_OPERATION:
 581:Generated_Source\PSoC5/COM.c ****         /* Enable regulator for 5V operation. */
 582:Generated_Source\PSoC5/COM.c ****         COM_CR1_REG |= (uint8)  COM_CR1_REG_ENABLE;
 320              		.loc 1 582 0
 321 005e 154A     		ldr	r2, .L12+36
 322 0060 1378     		ldrb	r3, [r2]	@ zero_extendqisi2
 323 0062 43F00103 		orr	r3, r3, #1
 324 0066 1370     		strb	r3, [r2]
 583:Generated_Source\PSoC5/COM.c ****         break;
 325              		.loc 1 583 0
 326 0068 04E0     		b	.L9
 327              	.L10:
 584:Generated_Source\PSoC5/COM.c **** 
 585:Generated_Source\PSoC5/COM.c ****     default: /* Check DWR settings of USB power supply. */
ARM GAS  C:\Users\LUKASC~1\AppData\Local\Temp\ccb2ZD5o.s 			page 17


 586:Generated_Source\PSoC5/COM.c ****     #if (COM_VDDD_MV < COM_3500MV)
 587:Generated_Source\PSoC5/COM.c ****         /* Disable regulator for 3V operation. */
 588:Generated_Source\PSoC5/COM.c ****         COM_CR1_REG &= (uint8) ~COM_CR1_REG_ENABLE;
 589:Generated_Source\PSoC5/COM.c ****     #else
 590:Generated_Source\PSoC5/COM.c ****         /* Enable regulator for 5V operation. */
 591:Generated_Source\PSoC5/COM.c ****         COM_CR1_REG |= (uint8)  COM_CR1_REG_ENABLE;
 328              		.loc 1 591 0
 329 006a 124A     		ldr	r2, .L12+36
 330 006c 1378     		ldrb	r3, [r2]	@ zero_extendqisi2
 331 006e 43F00103 		orr	r3, r3, #1
 332 0072 1370     		strb	r3, [r2]
 333              	.L9:
 592:Generated_Source\PSoC5/COM.c ****     #endif /* (COM_VDDD_MV < COM_3500MV) */
 593:Generated_Source\PSoC5/COM.c ****         break;
 594:Generated_Source\PSoC5/COM.c ****     }
 595:Generated_Source\PSoC5/COM.c **** 
 596:Generated_Source\PSoC5/COM.c **** #if (CY_PSOC4)
 597:Generated_Source\PSoC5/COM.c ****     /* Clear bus activity. */
 598:Generated_Source\PSoC5/COM.c ****     COM_CR1_REG &= (uint32) ~COM_CR1_BUS_ACTIVITY;
 599:Generated_Source\PSoC5/COM.c **** 
 600:Generated_Source\PSoC5/COM.c ****     /* Clear EP0 count register. */
 601:Generated_Source\PSoC5/COM.c ****     COM_EP0_CNT_REG = COM_CLEAR_REG;
 602:Generated_Source\PSoC5/COM.c **** 
 603:Generated_Source\PSoC5/COM.c ****     /* Set EP0.CR: ACK Setup, NAK IN/OUT. */
 604:Generated_Source\PSoC5/COM.c ****     COM_EP0_CR_REG = COM_MODE_NAK_IN_OUT;
 605:Generated_Source\PSoC5/COM.c **** 
 606:Generated_Source\PSoC5/COM.c ****     #if (COM_LPM_ACTIVE)
 607:Generated_Source\PSoC5/COM.c ****         if (NULL != COM_GetBOSPtr())
 608:Generated_Source\PSoC5/COM.c ****         {
 609:Generated_Source\PSoC5/COM.c ****             /* Enable LPM and acknowledge LPM packets for active device.
 610:Generated_Source\PSoC5/COM.c ****             * Reset NYET_EN and SUB_RESP bits in the LPM_CTRL register.
 611:Generated_Source\PSoC5/COM.c ****             */
 612:Generated_Source\PSoC5/COM.c ****             COM_LPM_CTRL_REG = (COM_LPM_CTRL_LPM_EN | \
 613:Generated_Source\PSoC5/COM.c ****                                              COM_LPM_CTRL_LPM_ACK_RESP);
 614:Generated_Source\PSoC5/COM.c ****         }
 615:Generated_Source\PSoC5/COM.c ****         else
 616:Generated_Source\PSoC5/COM.c ****         {
 617:Generated_Source\PSoC5/COM.c ****             /* Disable LPM for active device. */
 618:Generated_Source\PSoC5/COM.c ****             COM_LPM_CTRL_REG &= (uint32) ~COM_LPM_CTRL_LPM_EN;
 619:Generated_Source\PSoC5/COM.c ****         }
 620:Generated_Source\PSoC5/COM.c ****     #endif /* (COM_LPM_ACTIVE) */
 621:Generated_Source\PSoC5/COM.c **** 
 622:Generated_Source\PSoC5/COM.c ****     /* Enable device to responds to USB traffic with address 0. */
 623:Generated_Source\PSoC5/COM.c ****     COM_CR0_REG = COM_DEFUALT_CR0;
 624:Generated_Source\PSoC5/COM.c **** 
 625:Generated_Source\PSoC5/COM.c **** #else
 626:Generated_Source\PSoC5/COM.c ****     /* Set EP0.CR: ACK Setup, STALL IN/OUT. */
 627:Generated_Source\PSoC5/COM.c ****     COM_EP0_CR_REG = COM_MODE_STALL_IN_OUT;
 334              		.loc 1 627 0
 335 0074 0322     		movs	r2, #3
 336 0076 104B     		ldr	r3, .L12+40
 337 0078 1A70     		strb	r2, [r3]
 628:Generated_Source\PSoC5/COM.c **** 
 629:Generated_Source\PSoC5/COM.c ****     /* Enable device to respond to USB traffic with address 0. */
 630:Generated_Source\PSoC5/COM.c ****     COM_CR0_REG = COM_DEFUALT_CR0;
 338              		.loc 1 630 0
 339 007a 8022     		movs	r2, #128
ARM GAS  C:\Users\LUKASC~1\AppData\Local\Temp\ccb2ZD5o.s 			page 18


 340 007c 203B     		subs	r3, r3, #32
 341 007e 1A70     		strb	r2, [r3]
 631:Generated_Source\PSoC5/COM.c ****     CyDelayCycles(COM_WAIT_CR0_REG_STABILITY);
 342              		.loc 1 631 0
 343 0080 0120     		movs	r0, #1
 344              	.LVL27:
 345 0082 FFF7FEFF 		bl	CyDelayCycles
 346              	.LVL28:
 632:Generated_Source\PSoC5/COM.c **** #endif /* (CY_PSOC4) */
 633:Generated_Source\PSoC5/COM.c **** 
 634:Generated_Source\PSoC5/COM.c ****     /* Enable D+ pull-up and keep USB control on IO. */
 635:Generated_Source\PSoC5/COM.c ****     COM_USBIO_CR1_REG = COM_USBIO_CR1_USBPUEN;
 347              		.loc 1 635 0
 348 0086 0422     		movs	r2, #4
 349 0088 0C4B     		ldr	r3, .L12+44
 350 008a 1A70     		strb	r2, [r3]
 351 008c 08BD     		pop	{r3, pc}
 352              	.L13:
 353 008e 00BF     		.align	2
 354              	.L12:
 355 0090 00000000 		.word	COM_device
 356 0094 00000000 		.word	COM_transferState
 357 0098 00000000 		.word	COM_configurationChanged
 358 009c 00000000 		.word	COM_configuration
 359 00a0 00000000 		.word	COM_interfaceNumber
 360 00a4 00000000 		.word	COM_deviceAddress
 361 00a8 00000000 		.word	COM_deviceStatus
 362 00ac 00000000 		.word	COM_lastPacketSize
 363 00b0 00E100E0 		.word	-536813312
 364 00b4 09600040 		.word	1073766409
 365 00b8 28600040 		.word	1073766440
 366 00bc 12600040 		.word	1073766418
 367              		.cfi_endproc
 368              	.LFE2:
 369              		.size	COM_InitComponent, .-COM_InitComponent
 370              		.section	.text.COM_Start,"ax",%progbits
 371              		.align	2
 372              		.global	COM_Start
 373              		.thumb
 374              		.thumb_func
 375              		.type	COM_Start, %function
 376              	COM_Start:
 377              	.LFB0:
 187:Generated_Source\PSoC5/COM.c ****     if (0u == COM_initVar)
 378              		.loc 1 187 0
 379              		.cfi_startproc
 380              		@ args = 0, pretend = 0, frame = 0
 381              		@ frame_needed = 0, uses_anonymous_args = 0
 382              	.LVL29:
 383 0000 38B5     		push	{r3, r4, r5, lr}
 384              		.cfi_def_cfa_offset 16
 385              		.cfi_offset 3, -16
 386              		.cfi_offset 4, -12
 387              		.cfi_offset 5, -8
 388              		.cfi_offset 14, -4
 389 0002 0546     		mov	r5, r0
 390 0004 0C46     		mov	r4, r1
ARM GAS  C:\Users\LUKASC~1\AppData\Local\Temp\ccb2ZD5o.s 			page 19


 188:Generated_Source\PSoC5/COM.c ****     {
 391              		.loc 1 188 0
 392 0006 064B     		ldr	r3, .L17
 393 0008 1B78     		ldrb	r3, [r3]	@ zero_extendqisi2
 394 000a 23B9     		cbnz	r3, .L15
 190:Generated_Source\PSoC5/COM.c ****         COM_initVar = 1u;
 395              		.loc 1 190 0
 396 000c FFF7FEFF 		bl	COM_Init
 397              	.LVL30:
 191:Generated_Source\PSoC5/COM.c ****     }
 398              		.loc 1 191 0
 399 0010 0122     		movs	r2, #1
 400 0012 034B     		ldr	r3, .L17
 401 0014 1A70     		strb	r2, [r3]
 402              	.L15:
 194:Generated_Source\PSoC5/COM.c **** }
 403              		.loc 1 194 0
 404 0016 2846     		mov	r0, r5
 405 0018 2146     		mov	r1, r4
 406 001a FFF7FEFF 		bl	COM_InitComponent
 407              	.LVL31:
 408 001e 38BD     		pop	{r3, r4, r5, pc}
 409              	.L18:
 410              		.align	2
 411              	.L17:
 412 0020 00000000 		.word	.LANCHOR0
 413              		.cfi_endproc
 414              	.LFE0:
 415              		.size	COM_Start, .-COM_Start
 416              		.section	.text.COM_ReInitComponent,"ax",%progbits
 417              		.align	2
 418              		.global	COM_ReInitComponent
 419              		.thumb
 420              		.thumb_func
 421              		.type	COM_ReInitComponent, %function
 422              	COM_ReInitComponent:
 423              	.LFB3:
 636:Generated_Source\PSoC5/COM.c **** }
 637:Generated_Source\PSoC5/COM.c **** 
 638:Generated_Source\PSoC5/COM.c **** 
 639:Generated_Source\PSoC5/COM.c **** /*******************************************************************************
 640:Generated_Source\PSoC5/COM.c **** * Function Name: COM_ReInitComponent
 641:Generated_Source\PSoC5/COM.c **** ****************************************************************************//**
 642:Generated_Source\PSoC5/COM.c **** *
 643:Generated_Source\PSoC5/COM.c **** *  This function reinitialize the component configuration and is
 644:Generated_Source\PSoC5/COM.c **** *  intend to be called from the Reset interrupt.
 645:Generated_Source\PSoC5/COM.c **** *
 646:Generated_Source\PSoC5/COM.c **** * \globalvars
 647:Generated_Source\PSoC5/COM.c **** *   COM_device - Contains the device number of the desired Device
 648:Generated_Source\PSoC5/COM.c **** *        Descriptor. The device number can be found in the Device Descriptor tab
 649:Generated_Source\PSoC5/COM.c **** *       of the Configure dialog, under the settings of the desired Device Descriptor,
 650:Generated_Source\PSoC5/COM.c **** *       in the Device Number field.
 651:Generated_Source\PSoC5/COM.c **** *   COM_transferState - This variable is used by the communication
 652:Generated_Source\PSoC5/COM.c **** *       functions to handle the current transfer state. Initialized to
 653:Generated_Source\PSoC5/COM.c **** *       TRANS_STATE_IDLE in this API.
 654:Generated_Source\PSoC5/COM.c **** *   COM_configuration - Contains the current configuration number
 655:Generated_Source\PSoC5/COM.c **** *       set by the Host using a SET_CONFIGURATION request.
ARM GAS  C:\Users\LUKASC~1\AppData\Local\Temp\ccb2ZD5o.s 			page 20


 656:Generated_Source\PSoC5/COM.c **** *       Initialized to zero in this API.
 657:Generated_Source\PSoC5/COM.c **** *   COM_deviceAddress - Contains the current device address. This
 658:Generated_Source\PSoC5/COM.c **** *       variable is initialized to zero in this API. The Host starts to communicate
 659:Generated_Source\PSoC5/COM.c **** *      to the device with address 0 and then sets it to a whatever value using
 660:Generated_Source\PSoC5/COM.c **** *      a SET_ADDRESS request.
 661:Generated_Source\PSoC5/COM.c **** *   COM_deviceStatus - Initialized to 0.
 662:Generated_Source\PSoC5/COM.c **** *       This is a two-bit variable which contains the power status in the first bit
 663:Generated_Source\PSoC5/COM.c **** *       (DEVICE_STATUS_BUS_POWERED or DEVICE_STATUS_SELF_POWERED) and the remote
 664:Generated_Source\PSoC5/COM.c **** *       wakeup status (DEVICE_STATUS_REMOTE_WAKEUP) in the second bit.
 665:Generated_Source\PSoC5/COM.c **** *   COM_lastPacketSize - Initialized to 0;
 666:Generated_Source\PSoC5/COM.c **** *
 667:Generated_Source\PSoC5/COM.c **** * \reentrant
 668:Generated_Source\PSoC5/COM.c **** *  No.
 669:Generated_Source\PSoC5/COM.c **** *
 670:Generated_Source\PSoC5/COM.c **** *******************************************************************************/
 671:Generated_Source\PSoC5/COM.c **** void COM_ReInitComponent(void) 
 672:Generated_Source\PSoC5/COM.c **** {
 424              		.loc 1 672 0
 425              		.cfi_startproc
 426              		@ args = 0, pretend = 0, frame = 0
 427              		@ frame_needed = 0, uses_anonymous_args = 0
 428              		@ link register save eliminated.
 673:Generated_Source\PSoC5/COM.c ****     /* Initialize _hidProtocol variable to comply with HID 7.2.6 Set_Protocol
 674:Generated_Source\PSoC5/COM.c ****     *  Request: "When initialized, all devices default to report protocol."
 675:Generated_Source\PSoC5/COM.c ****     */
 676:Generated_Source\PSoC5/COM.c **** #if defined(COM_ENABLE_HID_CLASS)
 677:Generated_Source\PSoC5/COM.c ****     uint8 i;
 678:Generated_Source\PSoC5/COM.c **** 
 679:Generated_Source\PSoC5/COM.c ****     for (i = 0u; i < COM_MAX_INTERFACES_NUMBER; i++)
 680:Generated_Source\PSoC5/COM.c ****     {
 681:Generated_Source\PSoC5/COM.c ****         COM_hidProtocol[i] = COM_PROTOCOL_REPORT;
 682:Generated_Source\PSoC5/COM.c ****     }
 683:Generated_Source\PSoC5/COM.c **** #endif /* COM_ENABLE_HID_CLASS */
 684:Generated_Source\PSoC5/COM.c **** 
 685:Generated_Source\PSoC5/COM.c ****     /* Reset component internal variables. */
 686:Generated_Source\PSoC5/COM.c ****     COM_transferState   = COM_TRANS_STATE_IDLE;
 429              		.loc 1 686 0
 430 0000 0023     		movs	r3, #0
 431 0002 0A4A     		ldr	r2, .L20
 432 0004 1370     		strb	r3, [r2]
 687:Generated_Source\PSoC5/COM.c ****     COM_configurationChanged = 0u;
 433              		.loc 1 687 0
 434 0006 0A4A     		ldr	r2, .L20+4
 435 0008 1370     		strb	r3, [r2]
 688:Generated_Source\PSoC5/COM.c ****     COM_configuration   = 0u;
 436              		.loc 1 688 0
 437 000a 0A4A     		ldr	r2, .L20+8
 438 000c 1370     		strb	r3, [r2]
 689:Generated_Source\PSoC5/COM.c ****     COM_interfaceNumber = 0u;
 439              		.loc 1 689 0
 440 000e 0A4A     		ldr	r2, .L20+12
 441 0010 1370     		strb	r3, [r2]
 690:Generated_Source\PSoC5/COM.c ****     COM_deviceAddress   = 0u;
 442              		.loc 1 690 0
 443 0012 0A4A     		ldr	r2, .L20+16
 444 0014 1370     		strb	r3, [r2]
 691:Generated_Source\PSoC5/COM.c ****     COM_deviceStatus    = 0u;
ARM GAS  C:\Users\LUKASC~1\AppData\Local\Temp\ccb2ZD5o.s 			page 21


 445              		.loc 1 691 0
 446 0016 0A4A     		ldr	r2, .L20+20
 447 0018 1370     		strb	r3, [r2]
 692:Generated_Source\PSoC5/COM.c ****     COM_lastPacketSize  = 0u;
 448              		.loc 1 692 0
 449 001a 0A4A     		ldr	r2, .L20+24
 450 001c 1370     		strb	r3, [r2]
 693:Generated_Source\PSoC5/COM.c **** 
 694:Generated_Source\PSoC5/COM.c **** #if (CY_PSOC4)
 695:Generated_Source\PSoC5/COM.c ****     /* Set EP0.CR: ACK Setup, NAK IN/OUT. */
 696:Generated_Source\PSoC5/COM.c ****     COM_EP0_CR_REG = COM_MODE_NAK_IN_OUT;
 697:Generated_Source\PSoC5/COM.c **** #else
 698:Generated_Source\PSoC5/COM.c ****     /* Set EP0.CR: ACK Setup, STALL IN/OUT. */
 699:Generated_Source\PSoC5/COM.c ****     COM_EP0_CR_REG = COM_MODE_STALL_IN_OUT;
 451              		.loc 1 699 0
 452 001e 0322     		movs	r2, #3
 453 0020 094B     		ldr	r3, .L20+28
 454 0022 1A70     		strb	r2, [r3]
 700:Generated_Source\PSoC5/COM.c **** #endif /* (CY_PSOC4) */
 701:Generated_Source\PSoC5/COM.c **** 
 702:Generated_Source\PSoC5/COM.c ****     /* Enable device to respond to USB traffic with address 0. */
 703:Generated_Source\PSoC5/COM.c ****     COM_CR0_REG = COM_DEFUALT_CR0;
 455              		.loc 1 703 0
 456 0024 8022     		movs	r2, #128
 457 0026 203B     		subs	r3, r3, #32
 458 0028 1A70     		strb	r2, [r3]
 459 002a 7047     		bx	lr
 460              	.L21:
 461              		.align	2
 462              	.L20:
 463 002c 00000000 		.word	COM_transferState
 464 0030 00000000 		.word	COM_configurationChanged
 465 0034 00000000 		.word	COM_configuration
 466 0038 00000000 		.word	COM_interfaceNumber
 467 003c 00000000 		.word	COM_deviceAddress
 468 0040 00000000 		.word	COM_deviceStatus
 469 0044 00000000 		.word	COM_lastPacketSize
 470 0048 28600040 		.word	1073766440
 471              		.cfi_endproc
 472              	.LFE3:
 473              		.size	COM_ReInitComponent, .-COM_ReInitComponent
 474              		.section	.text.COM_Stop,"ax",%progbits
 475              		.align	2
 476              		.global	COM_Stop
 477              		.thumb
 478              		.thumb_func
 479              		.type	COM_Stop, %function
 480              	COM_Stop:
 481              	.LFB4:
 704:Generated_Source\PSoC5/COM.c **** }
 705:Generated_Source\PSoC5/COM.c **** 
 706:Generated_Source\PSoC5/COM.c **** 
 707:Generated_Source\PSoC5/COM.c **** /*******************************************************************************
 708:Generated_Source\PSoC5/COM.c **** * Function Name: COM_Stop
 709:Generated_Source\PSoC5/COM.c **** ****************************************************************************//**
 710:Generated_Source\PSoC5/COM.c **** *
 711:Generated_Source\PSoC5/COM.c **** *  This function shuts down the USB function including to release
ARM GAS  C:\Users\LUKASC~1\AppData\Local\Temp\ccb2ZD5o.s 			page 22


 712:Generated_Source\PSoC5/COM.c **** *  the D+ pull-up and disabling the SIE.
 713:Generated_Source\PSoC5/COM.c **** *
 714:Generated_Source\PSoC5/COM.c **** * \globalvars
 715:Generated_Source\PSoC5/COM.c **** *   \ref COM_configuration
 716:Generated_Source\PSoC5/COM.c **** *
 717:Generated_Source\PSoC5/COM.c **** *   COM_deviceAddress - Contains the current device address. This
 718:Generated_Source\PSoC5/COM.c **** *       variable is initialized to zero in this API. The Host starts to communicate
 719:Generated_Source\PSoC5/COM.c **** *      to the device with address 0 and then sets it to a whatever value using
 720:Generated_Source\PSoC5/COM.c **** *      a SET_ADDRESS request.
 721:Generated_Source\PSoC5/COM.c **** *
 722:Generated_Source\PSoC5/COM.c **** *   \ref COM_deviceStatus
 723:Generated_Source\PSoC5/COM.c **** *
 724:Generated_Source\PSoC5/COM.c **** *   \ref COM_configurationChanged
 725:Generated_Source\PSoC5/COM.c **** *
 726:Generated_Source\PSoC5/COM.c **** *   COM_intiVar -  This variable is set to zero
 727:Generated_Source\PSoC5/COM.c **** *
 728:Generated_Source\PSoC5/COM.c **** *******************************************************************************/
 729:Generated_Source\PSoC5/COM.c **** void COM_Stop(void) 
 730:Generated_Source\PSoC5/COM.c **** {
 482              		.loc 1 730 0
 483              		.cfi_startproc
 484              		@ args = 0, pretend = 0, frame = 0
 485              		@ frame_needed = 0, uses_anonymous_args = 0
 486 0000 08B5     		push	{r3, lr}
 487              		.cfi_def_cfa_offset 8
 488              		.cfi_offset 3, -8
 489              		.cfi_offset 14, -4
 731:Generated_Source\PSoC5/COM.c ****     uint8 enableInterrupts;
 732:Generated_Source\PSoC5/COM.c **** 
 733:Generated_Source\PSoC5/COM.c **** #if (COM_EP_MANAGEMENT_DMA)
 734:Generated_Source\PSoC5/COM.c ****     /* Stop all DMA channels. */
 735:Generated_Source\PSoC5/COM.c ****     COM_Stop_DMA(COM_MAX_EP);
 736:Generated_Source\PSoC5/COM.c **** #endif /* (COM_EP_MANAGEMENT_DMA) */
 737:Generated_Source\PSoC5/COM.c **** 
 738:Generated_Source\PSoC5/COM.c ****     enableInterrupts = CyEnterCriticalSection();
 490              		.loc 1 738 0
 491 0002 FFF7FEFF 		bl	CyEnterCriticalSection
 492              	.LVL32:
 739:Generated_Source\PSoC5/COM.c **** 
 740:Generated_Source\PSoC5/COM.c ****     /* Disable USB IP to respond to USB traffic. */
 741:Generated_Source\PSoC5/COM.c ****     COM_CR0_REG &= (uint8) ~COM_CR0_ENABLE;
 493              		.loc 1 741 0
 494 0006 244A     		ldr	r2, .L24
 495 0008 1378     		ldrb	r3, [r2]	@ zero_extendqisi2
 496 000a 03F07F03 		and	r3, r3, #127
 497 000e 1370     		strb	r3, [r2]
 742:Generated_Source\PSoC5/COM.c **** 
 743:Generated_Source\PSoC5/COM.c ****     /* Disable D+ pull-up. */
 744:Generated_Source\PSoC5/COM.c ****     COM_USBIO_CR1_REG &= (uint8) ~ COM_USBIO_CR1_USBPUEN;
 498              		.loc 1 744 0
 499 0010 0A32     		adds	r2, r2, #10
 500 0012 1378     		ldrb	r3, [r2]	@ zero_extendqisi2
 501 0014 03F0FB03 		and	r3, r3, #251
 502 0018 1370     		strb	r3, [r2]
 745:Generated_Source\PSoC5/COM.c **** 
 746:Generated_Source\PSoC5/COM.c **** #if (CY_PSOC4)
 747:Generated_Source\PSoC5/COM.c ****     /* Disable USBFS block. */
ARM GAS  C:\Users\LUKASC~1\AppData\Local\Temp\ccb2ZD5o.s 			page 23


 748:Generated_Source\PSoC5/COM.c ****     COM_POWER_CTRL_REG &= (uint32) ~COM_POWER_CTRL_ENABLE;
 749:Generated_Source\PSoC5/COM.c **** #else
 750:Generated_Source\PSoC5/COM.c ****     /* Clear power active and standby mode templates. */
 751:Generated_Source\PSoC5/COM.c ****     COM_PM_ACT_CFG_REG  &= (uint8) ~COM_PM_ACT_EN_FSUSB;
 503              		.loc 1 751 0
 504 001a A2F5E352 		sub	r2, r2, #7264
 505 001e 0D3A     		subs	r2, r2, #13
 506 0020 1378     		ldrb	r3, [r2]	@ zero_extendqisi2
 507 0022 03F0FE03 		and	r3, r3, #254
 508 0026 1370     		strb	r3, [r2]
 752:Generated_Source\PSoC5/COM.c ****     COM_PM_STBY_CFG_REG &= (uint8) ~COM_PM_STBY_EN_FSUSB;
 509              		.loc 1 752 0
 510 0028 1032     		adds	r2, r2, #16
 511 002a 1378     		ldrb	r3, [r2]	@ zero_extendqisi2
 512 002c 03F0FE03 		and	r3, r3, #254
 513 0030 1370     		strb	r3, [r2]
 753:Generated_Source\PSoC5/COM.c **** 
 754:Generated_Source\PSoC5/COM.c ****     /* Ensure single-ended disable bits are high (PRT15.INP_DIS[7:6])
 755:Generated_Source\PSoC5/COM.c ****      * (input receiver disabled). */
 756:Generated_Source\PSoC5/COM.c ****     COM_DM_INP_DIS_REG |= (uint8) COM_DM_MASK;
 514              		.loc 1 756 0
 515 0032 1A4B     		ldr	r3, .L24+4
 516 0034 1A78     		ldrb	r2, [r3]	@ zero_extendqisi2
 517 0036 42F08002 		orr	r2, r2, #128
 518 003a 1A70     		strb	r2, [r3]
 757:Generated_Source\PSoC5/COM.c ****     COM_DP_INP_DIS_REG |= (uint8) COM_DP_MASK;
 519              		.loc 1 757 0
 520 003c 1A78     		ldrb	r2, [r3]	@ zero_extendqisi2
 521 003e 42F04002 		orr	r2, r2, #64
 522 0042 1A70     		strb	r2, [r3]
 758:Generated_Source\PSoC5/COM.c **** 
 759:Generated_Source\PSoC5/COM.c **** #endif /* (CY_PSOC4) */
 760:Generated_Source\PSoC5/COM.c **** 
 761:Generated_Source\PSoC5/COM.c ****     CyExitCriticalSection(enableInterrupts);
 523              		.loc 1 761 0
 524 0044 FFF7FEFF 		bl	CyExitCriticalSection
 525              	.LVL33:
 762:Generated_Source\PSoC5/COM.c **** 
 763:Generated_Source\PSoC5/COM.c ****     /* Disable component interrupts. */
 764:Generated_Source\PSoC5/COM.c **** #if (CY_PSOC4)
 765:Generated_Source\PSoC5/COM.c ****     CyIntDisable(COM_INTR_HI_VECT_NUM);
 766:Generated_Source\PSoC5/COM.c ****     CyIntDisable(COM_INTR_LO_VECT_NUM);
 767:Generated_Source\PSoC5/COM.c ****     CyIntDisable(COM_INTR_MED_VECT_NUM);
 768:Generated_Source\PSoC5/COM.c **** #else
 769:Generated_Source\PSoC5/COM.c **** 
 770:Generated_Source\PSoC5/COM.c ****     CyIntDisable(COM_BUS_RESET_VECT_NUM);
 526              		.loc 1 770 0
 527 0048 154B     		ldr	r3, .L24+8
 528 004a 4FF40002 		mov	r2, #8388608
 529 004e 1A60     		str	r2, [r3]
 771:Generated_Source\PSoC5/COM.c ****     CyIntDisable(COM_EP_0_VECT_NUM);
 530              		.loc 1 771 0
 531 0050 4FF08072 		mov	r2, #16777216
 532 0054 1A60     		str	r2, [r3]
 772:Generated_Source\PSoC5/COM.c **** 
 773:Generated_Source\PSoC5/COM.c ****     #if (COM_SOF_ISR_ACTIVE)
 774:Generated_Source\PSoC5/COM.c ****         CyIntDisable(COM_SOF_VECT_NUM);
ARM GAS  C:\Users\LUKASC~1\AppData\Local\Temp\ccb2ZD5o.s 			page 24


 775:Generated_Source\PSoC5/COM.c ****     #endif /* (COM_SOF_ISR_ACTIVE) */
 776:Generated_Source\PSoC5/COM.c **** 
 777:Generated_Source\PSoC5/COM.c ****     #if (COM_EP1_ISR_ACTIVE)
 778:Generated_Source\PSoC5/COM.c ****         CyIntDisable(COM_EP_1_VECT_NUM);
 533              		.loc 1 778 0
 534 0056 0122     		movs	r2, #1
 535 0058 1A60     		str	r2, [r3]
 779:Generated_Source\PSoC5/COM.c ****     #endif /* (COM_EP1_ISR_ACTIVE) */
 780:Generated_Source\PSoC5/COM.c **** 
 781:Generated_Source\PSoC5/COM.c ****     #if (COM_EP2_ISR_ACTIVE)
 782:Generated_Source\PSoC5/COM.c ****         CyIntDisable(COM_EP_2_VECT_NUM);
 536              		.loc 1 782 0
 537 005a 0222     		movs	r2, #2
 538 005c 1A60     		str	r2, [r3]
 783:Generated_Source\PSoC5/COM.c ****     #endif /* (COM_EP2_ISR_ACTIVE) */
 784:Generated_Source\PSoC5/COM.c **** 
 785:Generated_Source\PSoC5/COM.c ****     #if (COM_EP3_ISR_ACTIVE)
 786:Generated_Source\PSoC5/COM.c ****         CyIntDisable(COM_EP_3_VECT_NUM);
 539              		.loc 1 786 0
 540 005e 0422     		movs	r2, #4
 541 0060 1A60     		str	r2, [r3]
 787:Generated_Source\PSoC5/COM.c ****     #endif /* (COM_EP3_ISR_ACTIVE) */
 788:Generated_Source\PSoC5/COM.c **** 
 789:Generated_Source\PSoC5/COM.c ****     #if (COM_EP4_ISR_ACTIVE)
 790:Generated_Source\PSoC5/COM.c ****         CyIntDisable(COM_EP_4_VECT_NUM);
 542              		.loc 1 790 0
 543 0062 0822     		movs	r2, #8
 544 0064 1A60     		str	r2, [r3]
 791:Generated_Source\PSoC5/COM.c ****     #endif /* (COM_EP4_ISR_ACTIVE) */
 792:Generated_Source\PSoC5/COM.c **** 
 793:Generated_Source\PSoC5/COM.c ****     #if (COM_EP5_ISR_ACTIVE)
 794:Generated_Source\PSoC5/COM.c ****         CyIntDisable(COM_EP_5_VECT_NUM);
 545              		.loc 1 794 0
 546 0066 1022     		movs	r2, #16
 547 0068 1A60     		str	r2, [r3]
 795:Generated_Source\PSoC5/COM.c ****     #endif /* (COM_EP5_ISR_ACTIVE) */
 796:Generated_Source\PSoC5/COM.c **** 
 797:Generated_Source\PSoC5/COM.c ****     #if (COM_EP6_ISR_ACTIVE)
 798:Generated_Source\PSoC5/COM.c ****         CyIntDisable(COM_EP_6_VECT_NUM);
 548              		.loc 1 798 0
 549 006a 2022     		movs	r2, #32
 550 006c 1A60     		str	r2, [r3]
 799:Generated_Source\PSoC5/COM.c ****     #endif /* COM_EP6_ISR_REMOVE */
 800:Generated_Source\PSoC5/COM.c **** 
 801:Generated_Source\PSoC5/COM.c ****     #if (COM_EP7_ISR_ACTIVE)
 802:Generated_Source\PSoC5/COM.c ****         CyIntDisable(COM_EP_7_VECT_NUM);
 803:Generated_Source\PSoC5/COM.c ****     #endif /* (COM_EP7_ISR_ACTIVE) */
 804:Generated_Source\PSoC5/COM.c **** 
 805:Generated_Source\PSoC5/COM.c ****     #if (COM_EP8_ISR_ACTIVE)
 806:Generated_Source\PSoC5/COM.c ****         CyIntDisable(COM_EP_8_VECT_NUM);
 807:Generated_Source\PSoC5/COM.c ****     #endif /* (COM_EP8_ISR_ACTIVE) */
 808:Generated_Source\PSoC5/COM.c **** 
 809:Generated_Source\PSoC5/COM.c ****     #if (COM_DP_ISR_ACTIVE)
 810:Generated_Source\PSoC5/COM.c ****         /* Clear active mode Dp interrupt source history. */
 811:Generated_Source\PSoC5/COM.c ****         (void) COM_Dp_ClearInterrupt();
 551              		.loc 1 811 0
 552 006e FFF7FEFF 		bl	COM_Dp_ClearInterrupt
ARM GAS  C:\Users\LUKASC~1\AppData\Local\Temp\ccb2ZD5o.s 			page 25


 553              	.LVL34:
 812:Generated_Source\PSoC5/COM.c ****         CyIntClearPending(COM_DP_INTC_VECT_NUM);
 554              		.loc 1 812 0
 555 0072 4FF48052 		mov	r2, #4096
 556 0076 0B4B     		ldr	r3, .L24+12
 557 0078 1A60     		str	r2, [r3]
 813:Generated_Source\PSoC5/COM.c ****     #endif /* (COM_DP_ISR_ACTIVE). */
 814:Generated_Source\PSoC5/COM.c **** 
 815:Generated_Source\PSoC5/COM.c **** #endif /* (CY_PSOC4) */
 816:Generated_Source\PSoC5/COM.c **** 
 817:Generated_Source\PSoC5/COM.c ****     /* Reset component internal variables. */
 818:Generated_Source\PSoC5/COM.c ****     COM_configurationChanged = 0u;
 558              		.loc 1 818 0
 559 007a 0023     		movs	r3, #0
 560 007c 0A4A     		ldr	r2, .L24+16
 561 007e 1370     		strb	r3, [r2]
 819:Generated_Source\PSoC5/COM.c ****     COM_configuration   = 0u;
 562              		.loc 1 819 0
 563 0080 0A4A     		ldr	r2, .L24+20
 564 0082 1370     		strb	r3, [r2]
 820:Generated_Source\PSoC5/COM.c ****     COM_interfaceNumber = 0u;
 565              		.loc 1 820 0
 566 0084 0A4A     		ldr	r2, .L24+24
 567 0086 1370     		strb	r3, [r2]
 821:Generated_Source\PSoC5/COM.c ****     COM_deviceAddress   = 0u;
 568              		.loc 1 821 0
 569 0088 0A4A     		ldr	r2, .L24+28
 570 008a 1370     		strb	r3, [r2]
 822:Generated_Source\PSoC5/COM.c ****     COM_deviceStatus    = 0u;
 571              		.loc 1 822 0
 572 008c 0A4A     		ldr	r2, .L24+32
 573 008e 1370     		strb	r3, [r2]
 823:Generated_Source\PSoC5/COM.c **** 
 824:Generated_Source\PSoC5/COM.c ****     /* It is mandatory for correct device startup. */
 825:Generated_Source\PSoC5/COM.c ****     COM_initVar = 0u;
 574              		.loc 1 825 0
 575 0090 0A4A     		ldr	r2, .L24+36
 576 0092 1370     		strb	r3, [r2]
 577 0094 08BD     		pop	{r3, pc}
 578              	.L25:
 579 0096 00BF     		.align	2
 580              	.L24:
 581 0098 08600040 		.word	1073766408
 582 009c F8510040 		.word	1073762808
 583 00a0 80E100E0 		.word	-536813184
 584 00a4 80E200E0 		.word	-536812928
 585 00a8 00000000 		.word	COM_configurationChanged
 586 00ac 00000000 		.word	COM_configuration
 587 00b0 00000000 		.word	COM_interfaceNumber
 588 00b4 00000000 		.word	COM_deviceAddress
 589 00b8 00000000 		.word	COM_deviceStatus
 590 00bc 00000000 		.word	.LANCHOR0
 591              		.cfi_endproc
 592              	.LFE4:
 593              		.size	COM_Stop, .-COM_Stop
 594              		.section	.text.COM_CheckActivity,"ax",%progbits
 595              		.align	2
ARM GAS  C:\Users\LUKASC~1\AppData\Local\Temp\ccb2ZD5o.s 			page 26


 596              		.global	COM_CheckActivity
 597              		.thumb
 598              		.thumb_func
 599              		.type	COM_CheckActivity, %function
 600              	COM_CheckActivity:
 601              	.LFB5:
 826:Generated_Source\PSoC5/COM.c **** }
 827:Generated_Source\PSoC5/COM.c **** 
 828:Generated_Source\PSoC5/COM.c **** 
 829:Generated_Source\PSoC5/COM.c **** /*******************************************************************************
 830:Generated_Source\PSoC5/COM.c **** * Function Name: COM_CheckActivity
 831:Generated_Source\PSoC5/COM.c **** ****************************************************************************//**
 832:Generated_Source\PSoC5/COM.c **** *
 833:Generated_Source\PSoC5/COM.c **** *  This function returns the activity status of the bus. It clears the hardware
 834:Generated_Source\PSoC5/COM.c **** *  status to provide updated status on the next call of this function. It
 835:Generated_Source\PSoC5/COM.c **** *  provides a way to determine whether any USB bus activity occurred. The
 836:Generated_Source\PSoC5/COM.c **** *  application should use this function to determine if the USB suspend
 837:Generated_Source\PSoC5/COM.c **** *  conditions are met.
 838:Generated_Source\PSoC5/COM.c **** *
 839:Generated_Source\PSoC5/COM.c **** *
 840:Generated_Source\PSoC5/COM.c **** * \return
 841:Generated_Source\PSoC5/COM.c **** *  cystatus: Status of the bus since the last call of the function.
 842:Generated_Source\PSoC5/COM.c **** *  Return Value |   Description
 843:Generated_Source\PSoC5/COM.c **** *  -------------|---------------------------------------------------------------
 844:Generated_Source\PSoC5/COM.c **** *  1            |Bus activity was detected since the last call to this function
 845:Generated_Source\PSoC5/COM.c **** *  0            |Bus activity was not detected since the last call to this function
 846:Generated_Source\PSoC5/COM.c **** *
 847:Generated_Source\PSoC5/COM.c **** *
 848:Generated_Source\PSoC5/COM.c **** *******************************************************************************/
 849:Generated_Source\PSoC5/COM.c **** uint8 COM_CheckActivity(void) 
 850:Generated_Source\PSoC5/COM.c **** {
 602              		.loc 1 850 0
 603              		.cfi_startproc
 604              		@ args = 0, pretend = 0, frame = 0
 605              		@ frame_needed = 0, uses_anonymous_args = 0
 606              		@ link register save eliminated.
 851:Generated_Source\PSoC5/COM.c ****     uint8 cr1Reg = COM_CR1_REG;
 607              		.loc 1 851 0
 608 0000 064A     		ldr	r2, .L28
 609 0002 1378     		ldrb	r3, [r2]	@ zero_extendqisi2
 610 0004 DBB2     		uxtb	r3, r3
 611              	.LVL35:
 852:Generated_Source\PSoC5/COM.c **** 
 853:Generated_Source\PSoC5/COM.c ****     /* Clear bus activity. */
 854:Generated_Source\PSoC5/COM.c ****     COM_CR1_REG = (cr1Reg & (uint8) ~COM_CR1_BUS_ACTIVITY);
 612              		.loc 1 854 0
 613 0006 03F0FB01 		and	r1, r3, #251
 614 000a 1170     		strb	r1, [r2]
 855:Generated_Source\PSoC5/COM.c **** 
 856:Generated_Source\PSoC5/COM.c ****     /* Get bus activity. */
 857:Generated_Source\PSoC5/COM.c ****     return ((0u != (cr1Reg & COM_CR1_BUS_ACTIVITY)) ? (1u) : (0u));
 615              		.loc 1 857 0
 616 000c 03F00403 		and	r3, r3, #4
 617              	.LVL36:
 618 0010 03F0FF00 		and	r0, r3, #255
 619 0014 03B1     		cbz	r3, .L27
 620 0016 0120     		movs	r0, #1
ARM GAS  C:\Users\LUKASC~1\AppData\Local\Temp\ccb2ZD5o.s 			page 27


 621              	.L27:
 858:Generated_Source\PSoC5/COM.c **** }
 622              		.loc 1 858 0 discriminator 4
 623 0018 7047     		bx	lr
 624              	.L29:
 625 001a 00BF     		.align	2
 626              	.L28:
 627 001c 09600040 		.word	1073766409
 628              		.cfi_endproc
 629              	.LFE5:
 630              		.size	COM_CheckActivity, .-COM_CheckActivity
 631              		.section	.text.COM_GetConfiguration,"ax",%progbits
 632              		.align	2
 633              		.global	COM_GetConfiguration
 634              		.thumb
 635              		.thumb_func
 636              		.type	COM_GetConfiguration, %function
 637              	COM_GetConfiguration:
 638              	.LFB6:
 859:Generated_Source\PSoC5/COM.c **** 
 860:Generated_Source\PSoC5/COM.c **** 
 861:Generated_Source\PSoC5/COM.c **** /*******************************************************************************
 862:Generated_Source\PSoC5/COM.c **** * Function Name: COM_GetConfiguration
 863:Generated_Source\PSoC5/COM.c **** ****************************************************************************//**
 864:Generated_Source\PSoC5/COM.c **** *
 865:Generated_Source\PSoC5/COM.c **** *  This function gets the current configuration of the USB device.
 866:Generated_Source\PSoC5/COM.c **** *
 867:Generated_Source\PSoC5/COM.c **** * \return
 868:Generated_Source\PSoC5/COM.c **** *  Returns the currently assigned configuration. Returns 0 if the device
 869:Generated_Source\PSoC5/COM.c **** *  is not configured
 870:Generated_Source\PSoC5/COM.c **** *
 871:Generated_Source\PSoC5/COM.c **** *******************************************************************************/
 872:Generated_Source\PSoC5/COM.c **** uint8 COM_GetConfiguration(void) 
 873:Generated_Source\PSoC5/COM.c **** {
 639              		.loc 1 873 0
 640              		.cfi_startproc
 641              		@ args = 0, pretend = 0, frame = 0
 642              		@ frame_needed = 0, uses_anonymous_args = 0
 643              		@ link register save eliminated.
 874:Generated_Source\PSoC5/COM.c ****     return (COM_configuration);
 644              		.loc 1 874 0
 645 0000 014B     		ldr	r3, .L31
 646 0002 1878     		ldrb	r0, [r3]	@ zero_extendqisi2
 875:Generated_Source\PSoC5/COM.c **** }
 647              		.loc 1 875 0
 648 0004 7047     		bx	lr
 649              	.L32:
 650 0006 00BF     		.align	2
 651              	.L31:
 652 0008 00000000 		.word	COM_configuration
 653              		.cfi_endproc
 654              	.LFE6:
 655              		.size	COM_GetConfiguration, .-COM_GetConfiguration
 656              		.section	.text.COM_IsConfigurationChanged,"ax",%progbits
 657              		.align	2
 658              		.global	COM_IsConfigurationChanged
 659              		.thumb
ARM GAS  C:\Users\LUKASC~1\AppData\Local\Temp\ccb2ZD5o.s 			page 28


 660              		.thumb_func
 661              		.type	COM_IsConfigurationChanged, %function
 662              	COM_IsConfigurationChanged:
 663              	.LFB7:
 876:Generated_Source\PSoC5/COM.c **** 
 877:Generated_Source\PSoC5/COM.c **** 
 878:Generated_Source\PSoC5/COM.c **** /*******************************************************************************
 879:Generated_Source\PSoC5/COM.c **** * Function Name: COM_IsConfigurationChanged
 880:Generated_Source\PSoC5/COM.c **** ****************************************************************************//**
 881:Generated_Source\PSoC5/COM.c **** *
 882:Generated_Source\PSoC5/COM.c **** *  This function returns the clear-on-read configuration state.  It is useful
 883:Generated_Source\PSoC5/COM.c **** *  when the host sends double SET_CONFIGURATION request with the same 
 884:Generated_Source\PSoC5/COM.c **** *  configuration number or changes alternate settings of the interface. 
 885:Generated_Source\PSoC5/COM.c **** *  After configuration has been changed the OUT endpoints must be enabled and IN 
 886:Generated_Source\PSoC5/COM.c **** *  endpoint must be loaded with data to start communication with the host.
 887:Generated_Source\PSoC5/COM.c **** *
 888:Generated_Source\PSoC5/COM.c **** * \return
 889:Generated_Source\PSoC5/COM.c **** *  None-zero value when new configuration has been changed, otherwise zero is
 890:Generated_Source\PSoC5/COM.c **** *  returned.
 891:Generated_Source\PSoC5/COM.c **** *
 892:Generated_Source\PSoC5/COM.c **** * \globalvars
 893:Generated_Source\PSoC5/COM.c **** *
 894:Generated_Source\PSoC5/COM.c **** *  \ref COM_configurationChanged - This variable is set to 1 after
 895:Generated_Source\PSoC5/COM.c **** *   a SET_CONFIGURATION request and cleared in this function.
 896:Generated_Source\PSoC5/COM.c **** *
 897:Generated_Source\PSoC5/COM.c **** *******************************************************************************/
 898:Generated_Source\PSoC5/COM.c **** uint8 COM_IsConfigurationChanged(void) 
 899:Generated_Source\PSoC5/COM.c **** {
 664              		.loc 1 899 0
 665              		.cfi_startproc
 666              		@ args = 0, pretend = 0, frame = 0
 667              		@ frame_needed = 0, uses_anonymous_args = 0
 668              		@ link register save eliminated.
 669              	.LVL37:
 900:Generated_Source\PSoC5/COM.c ****     uint8 res = 0u;
 901:Generated_Source\PSoC5/COM.c **** 
 902:Generated_Source\PSoC5/COM.c ****     if (COM_configurationChanged != 0u)
 670              		.loc 1 902 0
 671 0000 064B     		ldr	r3, .L36
 672 0002 1B78     		ldrb	r3, [r3]	@ zero_extendqisi2
 673 0004 13F0FF0F 		tst	r3, #255
 674 0008 05D0     		beq	.L35
 903:Generated_Source\PSoC5/COM.c ****     {
 904:Generated_Source\PSoC5/COM.c ****         res = COM_configurationChanged;
 675              		.loc 1 904 0
 676 000a 044B     		ldr	r3, .L36
 677 000c 1878     		ldrb	r0, [r3]	@ zero_extendqisi2
 678 000e C0B2     		uxtb	r0, r0
 679              	.LVL38:
 905:Generated_Source\PSoC5/COM.c ****         COM_configurationChanged = 0u;
 680              		.loc 1 905 0
 681 0010 0022     		movs	r2, #0
 682 0012 1A70     		strb	r2, [r3]
 683 0014 7047     		bx	lr
 684              	.LVL39:
 685              	.L35:
 900:Generated_Source\PSoC5/COM.c ****     uint8 res = 0u;
ARM GAS  C:\Users\LUKASC~1\AppData\Local\Temp\ccb2ZD5o.s 			page 29


 686              		.loc 1 900 0
 687 0016 0020     		movs	r0, #0
 688              	.LVL40:
 906:Generated_Source\PSoC5/COM.c ****     }
 907:Generated_Source\PSoC5/COM.c **** 
 908:Generated_Source\PSoC5/COM.c ****     return (res);
 909:Generated_Source\PSoC5/COM.c **** }
 689              		.loc 1 909 0
 690 0018 7047     		bx	lr
 691              	.L37:
 692 001a 00BF     		.align	2
 693              	.L36:
 694 001c 00000000 		.word	COM_configurationChanged
 695              		.cfi_endproc
 696              	.LFE7:
 697              		.size	COM_IsConfigurationChanged, .-COM_IsConfigurationChanged
 698              		.section	.text.COM_GetInterfaceSetting,"ax",%progbits
 699              		.align	2
 700              		.global	COM_GetInterfaceSetting
 701              		.thumb
 702              		.thumb_func
 703              		.type	COM_GetInterfaceSetting, %function
 704              	COM_GetInterfaceSetting:
 705              	.LFB8:
 910:Generated_Source\PSoC5/COM.c **** 
 911:Generated_Source\PSoC5/COM.c **** 
 912:Generated_Source\PSoC5/COM.c **** /*******************************************************************************
 913:Generated_Source\PSoC5/COM.c **** * Function Name: COM_GetInterfaceSetting
 914:Generated_Source\PSoC5/COM.c **** ****************************************************************************//**
 915:Generated_Source\PSoC5/COM.c **** *
 916:Generated_Source\PSoC5/COM.c **** *  This function gets the current alternate setting for the specified interface.
 917:Generated_Source\PSoC5/COM.c **** *  It is useful to identify which alternate settings are active in the specified 
 918:Generated_Source\PSoC5/COM.c **** *  interface.
 919:Generated_Source\PSoC5/COM.c **** *
 920:Generated_Source\PSoC5/COM.c **** *  \param
 921:Generated_Source\PSoC5/COM.c **** *  interfaceNumber interface number
 922:Generated_Source\PSoC5/COM.c **** *
 923:Generated_Source\PSoC5/COM.c **** * \return
 924:Generated_Source\PSoC5/COM.c **** *  Returns the current alternate setting for the specified interface.
 925:Generated_Source\PSoC5/COM.c **** *
 926:Generated_Source\PSoC5/COM.c **** *******************************************************************************/
 927:Generated_Source\PSoC5/COM.c **** uint8  COM_GetInterfaceSetting(uint8 interfaceNumber)
 928:Generated_Source\PSoC5/COM.c ****                                                     
 929:Generated_Source\PSoC5/COM.c **** {
 706              		.loc 1 929 0
 707              		.cfi_startproc
 708              		@ args = 0, pretend = 0, frame = 0
 709              		@ frame_needed = 0, uses_anonymous_args = 0
 710              		@ link register save eliminated.
 711              	.LVL41:
 930:Generated_Source\PSoC5/COM.c ****     return (COM_interfaceSetting[interfaceNumber]);
 712              		.loc 1 930 0
 713 0000 014B     		ldr	r3, .L39
 714 0002 185C     		ldrb	r0, [r3, r0]	@ zero_extendqisi2
 715              	.LVL42:
 931:Generated_Source\PSoC5/COM.c **** }
 716              		.loc 1 931 0
ARM GAS  C:\Users\LUKASC~1\AppData\Local\Temp\ccb2ZD5o.s 			page 30


 717 0004 7047     		bx	lr
 718              	.L40:
 719 0006 00BF     		.align	2
 720              	.L39:
 721 0008 00000000 		.word	COM_interfaceSetting
 722              		.cfi_endproc
 723              	.LFE8:
 724              		.size	COM_GetInterfaceSetting, .-COM_GetInterfaceSetting
 725              		.section	.text.COM_GetEPState,"ax",%progbits
 726              		.align	2
 727              		.global	COM_GetEPState
 728              		.thumb
 729              		.thumb_func
 730              		.type	COM_GetEPState, %function
 731              	COM_GetEPState:
 732              	.LFB9:
 932:Generated_Source\PSoC5/COM.c **** 
 933:Generated_Source\PSoC5/COM.c **** 
 934:Generated_Source\PSoC5/COM.c **** /*******************************************************************************
 935:Generated_Source\PSoC5/COM.c **** * Function Name: COM_GetEPState
 936:Generated_Source\PSoC5/COM.c **** ****************************************************************************//**
 937:Generated_Source\PSoC5/COM.c **** *
 938:Generated_Source\PSoC5/COM.c **** *  This function returns the state of the requested endpoint.
 939:Generated_Source\PSoC5/COM.c **** *
 940:Generated_Source\PSoC5/COM.c **** * \param epNumber Data endpoint number
 941:Generated_Source\PSoC5/COM.c **** *
 942:Generated_Source\PSoC5/COM.c **** * \return
 943:Generated_Source\PSoC5/COM.c **** *  Returns the current state of the specified USBFS endpoint. Symbolic names and
 944:Generated_Source\PSoC5/COM.c **** *  their associated values are given in the following table. Use these constants
 945:Generated_Source\PSoC5/COM.c **** *  whenever you write code to change the state of the endpoints, such as ISR
 946:Generated_Source\PSoC5/COM.c **** *  code, to handle data sent or received.
 947:Generated_Source\PSoC5/COM.c **** *
 948:Generated_Source\PSoC5/COM.c **** *  Return Value           | Description
 949:Generated_Source\PSoC5/COM.c **** *  -----------------------|-----------------------------------------------------
 950:Generated_Source\PSoC5/COM.c **** *  USBFS_NO_EVENT_PENDING |The endpoint is awaiting SIE action
 951:Generated_Source\PSoC5/COM.c **** *  USBFS_EVENT_PENDING    |The endpoint is awaiting CPU action
 952:Generated_Source\PSoC5/COM.c **** *  USBFS_NO_EVENT_ALLOWED |The endpoint is locked from access
 953:Generated_Source\PSoC5/COM.c **** *  USBFS_IN_BUFFER_FULL   |The IN endpoint is loaded and the mode is set to ACK IN
 954:Generated_Source\PSoC5/COM.c **** *  USBFS_IN_BUFFER_EMPTY  |An IN transaction occurred and more data can be loaded
 955:Generated_Source\PSoC5/COM.c **** *  USBFS_OUT_BUFFER_EMPTY |The OUT endpoint is set to ACK OUT and is waiting for data
 956:Generated_Source\PSoC5/COM.c **** *  USBFS_OUT_BUFFER_FULL  |An OUT transaction has occurred and data can be read
 957:Generated_Source\PSoC5/COM.c **** *
 958:Generated_Source\PSoC5/COM.c **** *******************************************************************************/
 959:Generated_Source\PSoC5/COM.c **** uint8 COM_GetEPState(uint8 epNumber) 
 960:Generated_Source\PSoC5/COM.c **** {
 733              		.loc 1 960 0
 734              		.cfi_startproc
 735              		@ args = 0, pretend = 0, frame = 0
 736              		@ frame_needed = 0, uses_anonymous_args = 0
 737              		@ link register save eliminated.
 738              	.LVL43:
 961:Generated_Source\PSoC5/COM.c ****     return (COM_EP[epNumber].apiEpState);
 739              		.loc 1 961 0
 740 0000 00EB4000 		add	r0, r0, r0, lsl #1
 741              	.LVL44:
 742 0004 8000     		lsls	r0, r0, #2
 743 0006 024B     		ldr	r3, .L42
ARM GAS  C:\Users\LUKASC~1\AppData\Local\Temp\ccb2ZD5o.s 			page 31


 744 0008 1844     		add	r0, r0, r3
 745 000a 4078     		ldrb	r0, [r0, #1]	@ zero_extendqisi2
 962:Generated_Source\PSoC5/COM.c **** }
 746              		.loc 1 962 0
 747 000c 7047     		bx	lr
 748              	.L43:
 749 000e 00BF     		.align	2
 750              	.L42:
 751 0010 00000000 		.word	COM_EP
 752              		.cfi_endproc
 753              	.LFE9:
 754              		.size	COM_GetEPState, .-COM_GetEPState
 755              		.section	.text.COM_GetEPCount,"ax",%progbits
 756              		.align	2
 757              		.global	COM_GetEPCount
 758              		.thumb
 759              		.thumb_func
 760              		.type	COM_GetEPCount, %function
 761              	COM_GetEPCount:
 762              	.LFB10:
 963:Generated_Source\PSoC5/COM.c **** 
 964:Generated_Source\PSoC5/COM.c **** 
 965:Generated_Source\PSoC5/COM.c **** /*******************************************************************************
 966:Generated_Source\PSoC5/COM.c **** * Function Name: COM_GetEPCount
 967:Generated_Source\PSoC5/COM.c **** ****************************************************************************//**
 968:Generated_Source\PSoC5/COM.c **** *
 969:Generated_Source\PSoC5/COM.c **** *  This function supports Data Endpoints only(EP1-EP8).
 970:Generated_Source\PSoC5/COM.c **** *  Returns the transfer count for the requested endpoint.  The value from
 971:Generated_Source\PSoC5/COM.c **** *  the count registers includes 2 counts for the two byte checksum of the
 972:Generated_Source\PSoC5/COM.c **** *  packet.  This function subtracts the two counts.
 973:Generated_Source\PSoC5/COM.c **** *
 974:Generated_Source\PSoC5/COM.c **** *  \param epNumber Data Endpoint Number.
 975:Generated_Source\PSoC5/COM.c **** *                   Valid values are between 1 and 8.
 976:Generated_Source\PSoC5/COM.c **** *
 977:Generated_Source\PSoC5/COM.c **** * \return
 978:Generated_Source\PSoC5/COM.c **** *  Returns the current byte count from the specified endpoint or 0 for an
 979:Generated_Source\PSoC5/COM.c **** *  invalid endpoint.
 980:Generated_Source\PSoC5/COM.c **** *
 981:Generated_Source\PSoC5/COM.c **** *******************************************************************************/
 982:Generated_Source\PSoC5/COM.c **** uint16 COM_GetEPCount(uint8 epNumber) 
 983:Generated_Source\PSoC5/COM.c **** {
 763              		.loc 1 983 0
 764              		.cfi_startproc
 765              		@ args = 0, pretend = 0, frame = 0
 766              		@ frame_needed = 0, uses_anonymous_args = 0
 767              		@ link register save eliminated.
 768              	.LVL45:
 984:Generated_Source\PSoC5/COM.c ****     uint16 cntr = 0u;
 985:Generated_Source\PSoC5/COM.c **** 
 986:Generated_Source\PSoC5/COM.c ****     if ((epNumber > COM_EP0) && (epNumber < COM_MAX_EP))
 769              		.loc 1 986 0
 770 0000 431E     		subs	r3, r0, #1
 771 0002 DBB2     		uxtb	r3, r3
 772 0004 072B     		cmp	r3, #7
 773 0006 0BD8     		bhi	.L46
 987:Generated_Source\PSoC5/COM.c ****     {
 988:Generated_Source\PSoC5/COM.c ****         /* Get 11-bits EP counter where epCnt0 - 3 bits MSB and epCnt1 - 8 bits LSB. */
ARM GAS  C:\Users\LUKASC~1\AppData\Local\Temp\ccb2ZD5o.s 			page 32


 989:Generated_Source\PSoC5/COM.c ****         cntr  = ((uint16) COM_SIE_EP_BASE.sieEp[epNumber].epCnt0) & COM_EPX_CNT0_MASK;
 774              		.loc 1 989 0
 775 0008 064B     		ldr	r3, .L47
 776 000a 0001     		lsls	r0, r0, #4
 777              	.LVL46:
 778 000c 1A18     		adds	r2, r3, r0
 779 000e 185C     		ldrb	r0, [r3, r0]	@ zero_extendqisi2
 780 0010 00F00F00 		and	r0, r0, #15
 781              	.LVL47:
 990:Generated_Source\PSoC5/COM.c ****         cntr  = ((uint16) (cntr << 8u)) | ((uint16) COM_SIE_EP_BASE.sieEp[epNumber].epCnt1);
 782              		.loc 1 990 0
 783 0014 5378     		ldrb	r3, [r2, #1]	@ zero_extendqisi2
 784 0016 43EA0020 		orr	r0, r3, r0, lsl #8
 785              	.LVL48:
 991:Generated_Source\PSoC5/COM.c ****         cntr -= COM_EPX_CNTX_CRC_COUNT;
 786              		.loc 1 991 0
 787 001a 0238     		subs	r0, r0, #2
 788              	.LVL49:
 789 001c 80B2     		uxth	r0, r0
 790              	.LVL50:
 791 001e 7047     		bx	lr
 792              	.LVL51:
 793              	.L46:
 984:Generated_Source\PSoC5/COM.c **** 
 794              		.loc 1 984 0
 795 0020 0020     		movs	r0, #0
 796              	.LVL52:
 992:Generated_Source\PSoC5/COM.c ****     }
 993:Generated_Source\PSoC5/COM.c **** 
 994:Generated_Source\PSoC5/COM.c ****     return (cntr);
 995:Generated_Source\PSoC5/COM.c **** }
 797              		.loc 1 995 0
 798 0022 7047     		bx	lr
 799              	.L48:
 800              		.align	2
 801              	.L47:
 802 0024 FC5F0040 		.word	1073766396
 803              		.cfi_endproc
 804              	.LFE10:
 805              		.size	COM_GetEPCount, .-COM_GetEPCount
 806              		.section	.text.COM_LoadInEP,"ax",%progbits
 807              		.align	2
 808              		.global	COM_LoadInEP
 809              		.thumb
 810              		.thumb_func
 811              		.type	COM_LoadInEP, %function
 812              	COM_LoadInEP:
 813              	.LFB11:
 996:Generated_Source\PSoC5/COM.c **** 
 997:Generated_Source\PSoC5/COM.c **** 
 998:Generated_Source\PSoC5/COM.c **** #if (COM_EP_MANAGEMENT_DMA)
 999:Generated_Source\PSoC5/COM.c **** #if (CY_PSOC4)
1000:Generated_Source\PSoC5/COM.c ****     /*******************************************************************************
1001:Generated_Source\PSoC5/COM.c ****     * Function Name: COM_InitEpDma
1002:Generated_Source\PSoC5/COM.c ****     ****************************************************************************//**
1003:Generated_Source\PSoC5/COM.c ****     *
1004:Generated_Source\PSoC5/COM.c ****     *  This function configures priority for all DMA channels utilized by the
ARM GAS  C:\Users\LUKASC~1\AppData\Local\Temp\ccb2ZD5o.s 			page 33


1005:Generated_Source\PSoC5/COM.c ****     *  component. Also sets callbacks for DMA auto mode.
1006:Generated_Source\PSoC5/COM.c ****     *
1007:Generated_Source\PSoC5/COM.c ****     *******************************************************************************/
1008:Generated_Source\PSoC5/COM.c ****     static void COM_InitEpDma(void)
1009:Generated_Source\PSoC5/COM.c ****     {
1010:Generated_Source\PSoC5/COM.c ****     #if (COM_DMA1_ACTIVE)
1011:Generated_Source\PSoC5/COM.c ****         CYDMA_CH_CTL_BASE.ctl[COM_ep1_dma_CHANNEL] = COM_ep1_dma_CHANNEL_CFG;
1012:Generated_Source\PSoC5/COM.c ****     #endif /* (COM_DMA1_ACTIVE) */
1013:Generated_Source\PSoC5/COM.c **** 
1014:Generated_Source\PSoC5/COM.c ****     #if (COM_DMA2_ACTIVE)
1015:Generated_Source\PSoC5/COM.c ****         CYDMA_CH_CTL_BASE.ctl[COM_ep2_dma_CHANNEL] = COM_ep2_dma_CHANNEL_CFG;
1016:Generated_Source\PSoC5/COM.c ****     #endif /* (COM_DMA2_ACTIVE) */
1017:Generated_Source\PSoC5/COM.c **** 
1018:Generated_Source\PSoC5/COM.c ****     #if (COM_DMA3_ACTIVE)
1019:Generated_Source\PSoC5/COM.c ****         CYDMA_CH_CTL_BASE.ctl[COM_ep3_dma_CHANNEL] = COM_ep3_dma_CHANNEL_CFG;
1020:Generated_Source\PSoC5/COM.c ****     #endif /* (COM_DMA3_ACTIVE) */
1021:Generated_Source\PSoC5/COM.c **** 
1022:Generated_Source\PSoC5/COM.c ****     #if (COM_DMA4_ACTIVE)
1023:Generated_Source\PSoC5/COM.c ****         CYDMA_CH_CTL_BASE.ctl[COM_ep4_dma_CHANNEL] = COM_ep4_dma_CHANNEL_CFG;
1024:Generated_Source\PSoC5/COM.c ****     #endif /* (COM_DMA4_ACTIVE) */
1025:Generated_Source\PSoC5/COM.c **** 
1026:Generated_Source\PSoC5/COM.c ****     #if (COM_DMA5_ACTIVE)
1027:Generated_Source\PSoC5/COM.c ****         CYDMA_CH_CTL_BASE.ctl[COM_ep5_dma_CHANNEL] = COM_ep5_dma_CHANNEL_CFG;
1028:Generated_Source\PSoC5/COM.c ****     #endif /* (COM_DMA5_ACTIVE) */
1029:Generated_Source\PSoC5/COM.c **** 
1030:Generated_Source\PSoC5/COM.c ****     #if (COM_DMA6_ACTIVE)
1031:Generated_Source\PSoC5/COM.c ****         CYDMA_CH_CTL_BASE.ctl[COM_ep6_dma_CHANNEL] = COM_ep6_dma_CHANNEL_CFG;
1032:Generated_Source\PSoC5/COM.c ****     #endif /* (COM_DMA6_ACTIVE) */
1033:Generated_Source\PSoC5/COM.c **** 
1034:Generated_Source\PSoC5/COM.c ****     #if (COM_DMA7_ACTIVE)
1035:Generated_Source\PSoC5/COM.c ****         CYDMA_CH_CTL_BASE.ctl[COM_ep7_dma_CHANNEL] = COM_ep7_dma_CHANNEL_CFG;
1036:Generated_Source\PSoC5/COM.c ****     #endif /* (COM_DMA7_ACTIVE) */
1037:Generated_Source\PSoC5/COM.c **** 
1038:Generated_Source\PSoC5/COM.c ****     #if (COM_DMA8_ACTIVE)
1039:Generated_Source\PSoC5/COM.c ****         CYDMA_CH_CTL_BASE.ctl[COM_ep8_dma_CHANNEL] = COM_ep8_dma_CHANNEL_CFG;
1040:Generated_Source\PSoC5/COM.c ****     #endif /* (COM_DMA8_ACTIVE) */
1041:Generated_Source\PSoC5/COM.c **** 
1042:Generated_Source\PSoC5/COM.c ****     #if (COM_EP_MANAGEMENT_DMA_AUTO)
1043:Generated_Source\PSoC5/COM.c ****         /* Initialize DMA channel callbacks. */
1044:Generated_Source\PSoC5/COM.c ****         #if (COM_DMA1_ACTIVE)
1045:Generated_Source\PSoC5/COM.c ****             (void) COM_ep1_dma_SetInterruptCallback(&COM_EP1_DMA_DONE_ISR);
1046:Generated_Source\PSoC5/COM.c ****         #endif /* (COM_DMA1_ACTIVE) */
1047:Generated_Source\PSoC5/COM.c **** 
1048:Generated_Source\PSoC5/COM.c ****         #if (COM_DMA2_ACTIVE)
1049:Generated_Source\PSoC5/COM.c ****             (void) COM_ep2_dma_SetInterruptCallback(&COM_EP2_DMA_DONE_ISR);
1050:Generated_Source\PSoC5/COM.c ****         #endif /* (COM_DMA2_ACTIVE) */
1051:Generated_Source\PSoC5/COM.c **** 
1052:Generated_Source\PSoC5/COM.c ****         #if (COM_DMA3_ACTIVE)
1053:Generated_Source\PSoC5/COM.c ****             (void) COM_ep3_dma_SetInterruptCallback(&COM_EP3_DMA_DONE_ISR);
1054:Generated_Source\PSoC5/COM.c ****         #endif /* (COM_DMA3_ACTIVE) */
1055:Generated_Source\PSoC5/COM.c **** 
1056:Generated_Source\PSoC5/COM.c ****         #if (COM_DMA4_ACTIVE)
1057:Generated_Source\PSoC5/COM.c ****             (void) COM_ep4_dma_SetInterruptCallback(&COM_EP4_DMA_DONE_ISR);
1058:Generated_Source\PSoC5/COM.c ****         #endif /* (COM_DMA4_ACTIVE) */
1059:Generated_Source\PSoC5/COM.c **** 
1060:Generated_Source\PSoC5/COM.c ****         #if (COM_DMA5_ACTIVE)
1061:Generated_Source\PSoC5/COM.c ****             (void) COM_ep5_dma_SetInterruptCallback(&COM_EP5_DMA_DONE_ISR);
ARM GAS  C:\Users\LUKASC~1\AppData\Local\Temp\ccb2ZD5o.s 			page 34


1062:Generated_Source\PSoC5/COM.c ****         #endif /* (COM_DMA5_ACTIVE) */
1063:Generated_Source\PSoC5/COM.c **** 
1064:Generated_Source\PSoC5/COM.c ****         #if (COM_DMA6_ACTIVE)
1065:Generated_Source\PSoC5/COM.c ****             (void) COM_ep6_dma_SetInterruptCallback(&COM_EP6_DMA_DONE_ISR);
1066:Generated_Source\PSoC5/COM.c ****         #endif /* (COM_DMA6_ACTIVE) */
1067:Generated_Source\PSoC5/COM.c **** 
1068:Generated_Source\PSoC5/COM.c ****         #if (COM_DMA7_ACTIVE)
1069:Generated_Source\PSoC5/COM.c ****             (void) COM_ep7_dma_SetInterruptCallback(&COM_EP7_DMA_DONE_ISR);
1070:Generated_Source\PSoC5/COM.c ****         #endif /* (COM_DMA7_ACTIVE) */
1071:Generated_Source\PSoC5/COM.c **** 
1072:Generated_Source\PSoC5/COM.c ****         #if (COM_DMA8_ACTIVE)
1073:Generated_Source\PSoC5/COM.c ****             (void) COM_ep8_dma_SetInterruptCallback(&COM_EP8_DMA_DONE_ISR);
1074:Generated_Source\PSoC5/COM.c ****         #endif /* (COM_DMA8_ACTIVE) */
1075:Generated_Source\PSoC5/COM.c ****     #endif /* (COM_EP_MANAGEMENT_DMA_AUTO) */
1076:Generated_Source\PSoC5/COM.c ****     }
1077:Generated_Source\PSoC5/COM.c **** #else
1078:Generated_Source\PSoC5/COM.c **** 
1079:Generated_Source\PSoC5/COM.c **** 
1080:Generated_Source\PSoC5/COM.c ****     /***************************************************************************
1081:Generated_Source\PSoC5/COM.c ****     * Function Name: COM_InitEP_DMA
1082:Generated_Source\PSoC5/COM.c ****     ************************************************************************//**
1083:Generated_Source\PSoC5/COM.c ****     *
1084:Generated_Source\PSoC5/COM.c ****     *  This function allocates and initializes a DMA channel to be used by the
1085:Generated_Source\PSoC5/COM.c ****     *  COM_LoadInEP() or COM_ReadOutEP() APIs for data
1086:Generated_Source\PSoC5/COM.c ****     *  transfer. It is available when the Endpoint Memory Management parameter
1087:Generated_Source\PSoC5/COM.c ****     *  is set to DMA.
1088:Generated_Source\PSoC5/COM.c ****     *
1089:Generated_Source\PSoC5/COM.c ****     *  This function is automatically called from the USBFS_LoadInEP() and USBFS_ReadOutEP() APIs.
1090:Generated_Source\PSoC5/COM.c ****     *
1091:Generated_Source\PSoC5/COM.c ****     *  \param epNumber Contains the data endpoint number.
1092:Generated_Source\PSoC5/COM.c ****     *            Valid values are between 1 and 8.
1093:Generated_Source\PSoC5/COM.c ****     *  \param *pData Pointer to a data array that is related to the EP transfers.
1094:Generated_Source\PSoC5/COM.c ****     *
1095:Generated_Source\PSoC5/COM.c ****     * \reentrant No.
1096:Generated_Source\PSoC5/COM.c ****     *
1097:Generated_Source\PSoC5/COM.c ****     ***************************************************************************/
1098:Generated_Source\PSoC5/COM.c ****     void COM_InitEP_DMA(uint8 epNumber, const uint8 *pData)
1099:Generated_Source\PSoC5/COM.c ****                                                                     
1100:Generated_Source\PSoC5/COM.c ****     {
1101:Generated_Source\PSoC5/COM.c ****         uint16 src;
1102:Generated_Source\PSoC5/COM.c ****         uint16 dst;
1103:Generated_Source\PSoC5/COM.c **** 
1104:Generated_Source\PSoC5/COM.c ****     #if (CY_PSOC3)
1105:Generated_Source\PSoC5/COM.c ****         src = HI16(CYDEV_SRAM_BASE);
1106:Generated_Source\PSoC5/COM.c ****         dst = HI16(CYDEV_PERIPH_BASE);
1107:Generated_Source\PSoC5/COM.c ****         pData = pData;
1108:Generated_Source\PSoC5/COM.c ****     #else
1109:Generated_Source\PSoC5/COM.c ****         if ((COM_EP[epNumber].addr & COM_DIR_IN) != 0u)
1110:Generated_Source\PSoC5/COM.c ****         {
1111:Generated_Source\PSoC5/COM.c ****             /* IN endpoint: source is memory buffer. */
1112:Generated_Source\PSoC5/COM.c ****             src = HI16(pData);
1113:Generated_Source\PSoC5/COM.c ****             dst = HI16(CYDEV_PERIPH_BASE);
1114:Generated_Source\PSoC5/COM.c ****         }
1115:Generated_Source\PSoC5/COM.c ****         else
1116:Generated_Source\PSoC5/COM.c ****         {
1117:Generated_Source\PSoC5/COM.c ****             /* OUT endpoint: source is USB IP memory buffer. */
1118:Generated_Source\PSoC5/COM.c ****             src = HI16(CYDEV_PERIPH_BASE);
ARM GAS  C:\Users\LUKASC~1\AppData\Local\Temp\ccb2ZD5o.s 			page 35


1119:Generated_Source\PSoC5/COM.c ****             dst = HI16(pData);
1120:Generated_Source\PSoC5/COM.c ****         }
1121:Generated_Source\PSoC5/COM.c ****     #endif  /* (CY_PSOC3) */
1122:Generated_Source\PSoC5/COM.c **** 
1123:Generated_Source\PSoC5/COM.c ****         switch(epNumber)
1124:Generated_Source\PSoC5/COM.c ****         {
1125:Generated_Source\PSoC5/COM.c ****     #if (COM_DMA1_ACTIVE)
1126:Generated_Source\PSoC5/COM.c ****         case COM_EP1:
1127:Generated_Source\PSoC5/COM.c ****             COM_DmaChan[epNumber] = COM_ep1_DmaInitialize(COM_DMA_BYTES_PER_BURST,
1128:Generated_Source\PSoC5/COM.c ****                                                                                     COM_DMA_REQUEST
1129:Generated_Source\PSoC5/COM.c ****             break;
1130:Generated_Source\PSoC5/COM.c ****     #endif /* (COM_DMA1_ACTIVE) */
1131:Generated_Source\PSoC5/COM.c **** 
1132:Generated_Source\PSoC5/COM.c ****     #if (COM_DMA2_ACTIVE)
1133:Generated_Source\PSoC5/COM.c ****         case COM_EP2:
1134:Generated_Source\PSoC5/COM.c ****             COM_DmaChan[epNumber] = COM_ep2_DmaInitialize(COM_DMA_BYTES_PER_BURST,
1135:Generated_Source\PSoC5/COM.c ****                                                                                     COM_DMA_REQUEST
1136:Generated_Source\PSoC5/COM.c ****             break;
1137:Generated_Source\PSoC5/COM.c ****     #endif /* (COM_DMA2_ACTIVE) */
1138:Generated_Source\PSoC5/COM.c **** 
1139:Generated_Source\PSoC5/COM.c ****     #if (COM_DMA3_ACTIVE)
1140:Generated_Source\PSoC5/COM.c ****             case COM_EP3:
1141:Generated_Source\PSoC5/COM.c ****                 COM_DmaChan[epNumber] = COM_ep3_DmaInitialize(COM_DMA_BYTES_PER_BURST,
1142:Generated_Source\PSoC5/COM.c ****                                                                                         COM_DMA_REQ
1143:Generated_Source\PSoC5/COM.c ****             break;
1144:Generated_Source\PSoC5/COM.c ****     #endif /* (COM_DMA3_ACTIVE) */
1145:Generated_Source\PSoC5/COM.c **** 
1146:Generated_Source\PSoC5/COM.c ****     #if (COM_DMA4_ACTIVE)
1147:Generated_Source\PSoC5/COM.c ****             case COM_EP4:
1148:Generated_Source\PSoC5/COM.c ****                 COM_DmaChan[epNumber] = COM_ep4_DmaInitialize(COM_DMA_BYTES_PER_BURST,
1149:Generated_Source\PSoC5/COM.c ****                                                                                         COM_DMA_REQ
1150:Generated_Source\PSoC5/COM.c ****             break;
1151:Generated_Source\PSoC5/COM.c ****     #endif /* (COM_DMA4_ACTIVE) */
1152:Generated_Source\PSoC5/COM.c **** 
1153:Generated_Source\PSoC5/COM.c ****     #if (COM_DMA5_ACTIVE)
1154:Generated_Source\PSoC5/COM.c ****             case COM_EP5:
1155:Generated_Source\PSoC5/COM.c ****                 COM_DmaChan[epNumber] = COM_ep5_DmaInitialize(COM_DMA_BYTES_PER_BURST,
1156:Generated_Source\PSoC5/COM.c ****                                                                                         COM_DMA_REQ
1157:Generated_Source\PSoC5/COM.c ****             break;
1158:Generated_Source\PSoC5/COM.c ****     #endif /* (COM_DMA5_ACTIVE) */
1159:Generated_Source\PSoC5/COM.c **** 
1160:Generated_Source\PSoC5/COM.c ****     #if (COM_DMA6_ACTIVE)
1161:Generated_Source\PSoC5/COM.c ****         case COM_EP6:
1162:Generated_Source\PSoC5/COM.c ****             COM_DmaChan[epNumber] = COM_ep6_DmaInitialize(COM_DMA_BYTES_PER_BURST,
1163:Generated_Source\PSoC5/COM.c ****                                                                                     COM_DMA_REQUEST
1164:Generated_Source\PSoC5/COM.c ****             break;
1165:Generated_Source\PSoC5/COM.c ****     #endif /* (COM_DMA6_ACTIVE) */
1166:Generated_Source\PSoC5/COM.c **** 
1167:Generated_Source\PSoC5/COM.c ****     #if (COM_DMA7_ACTIVE)
1168:Generated_Source\PSoC5/COM.c ****         case COM_EP7:
1169:Generated_Source\PSoC5/COM.c ****                 COM_DmaChan[epNumber] = COM_ep7_DmaInitialize(COM_DMA_BYTES_PER_BURST,
1170:Generated_Source\PSoC5/COM.c ****                                                                                         COM_DMA_REQ
1171:Generated_Source\PSoC5/COM.c ****             break;
1172:Generated_Source\PSoC5/COM.c ****     #endif /* (COM_DMA7_ACTIVE) */
1173:Generated_Source\PSoC5/COM.c **** 
1174:Generated_Source\PSoC5/COM.c ****     #if (COM_DMA8_ACTIVE)
1175:Generated_Source\PSoC5/COM.c ****         case COM_EP8:
ARM GAS  C:\Users\LUKASC~1\AppData\Local\Temp\ccb2ZD5o.s 			page 36


1176:Generated_Source\PSoC5/COM.c ****                 COM_DmaChan[epNumber] = COM_ep8_DmaInitialize(COM_DMA_BYTES_PER_BURST,
1177:Generated_Source\PSoC5/COM.c ****                                                                                         COM_DMA_REQ
1178:Generated_Source\PSoC5/COM.c ****             break;
1179:Generated_Source\PSoC5/COM.c ****     #endif /* (COM_DMA8_ACTIVE) */
1180:Generated_Source\PSoC5/COM.c **** 
1181:Generated_Source\PSoC5/COM.c ****         default:
1182:Generated_Source\PSoC5/COM.c ****             /* Do nothing for endpoints other than 1-8. */
1183:Generated_Source\PSoC5/COM.c ****             break;
1184:Generated_Source\PSoC5/COM.c ****         }
1185:Generated_Source\PSoC5/COM.c **** 
1186:Generated_Source\PSoC5/COM.c ****         if ((epNumber > COM_EP0) && (epNumber < COM_MAX_EP))
1187:Generated_Source\PSoC5/COM.c ****         {
1188:Generated_Source\PSoC5/COM.c ****             COM_DmaTd[epNumber] = CyDmaTdAllocate();
1189:Generated_Source\PSoC5/COM.c **** 
1190:Generated_Source\PSoC5/COM.c ****         #if (COM_EP_MANAGEMENT_DMA_AUTO && (COM_EP_DMA_AUTO_OPT == 0u))
1191:Generated_Source\PSoC5/COM.c ****             COM_DmaNextTd[epNumber] = CyDmaTdAllocate();
1192:Generated_Source\PSoC5/COM.c ****         #endif /* (COM_EP_MANAGEMENT_DMA_AUTO && (COM_EP_DMA_AUTO_OPT == 0u)) */
1193:Generated_Source\PSoC5/COM.c ****         }
1194:Generated_Source\PSoC5/COM.c ****     }
1195:Generated_Source\PSoC5/COM.c **** #endif /* (CY_PSOC4) */
1196:Generated_Source\PSoC5/COM.c **** 
1197:Generated_Source\PSoC5/COM.c ****     /***************************************************************************
1198:Generated_Source\PSoC5/COM.c ****     * Function Name: COM_Stop_DMA
1199:Generated_Source\PSoC5/COM.c ****     ************************************************************************//**
1200:Generated_Source\PSoC5/COM.c ****     *  
1201:Generated_Source\PSoC5/COM.c ****     *  This function stops DMA channel associated with endpoint. It is available 
1202:Generated_Source\PSoC5/COM.c ****     *  when the Endpoint Buffer Management parameter is set to DMA. Call this 
1203:Generated_Source\PSoC5/COM.c ****     *  function when endpoint direction is changed from IN to OUT or vice versa 
1204:Generated_Source\PSoC5/COM.c ****     *  to trigger DMA re-configuration when COM_LoadInEP() or 
1205:Generated_Source\PSoC5/COM.c ****     *  COM_ReadOutEP() functions are called the first time. 
1206:Generated_Source\PSoC5/COM.c ****     *  
1207:Generated_Source\PSoC5/COM.c ****     *  \param epNumber: The data endpoint number for which associated DMA 
1208:Generated_Source\PSoC5/COM.c ****     *  channel is stopped. The range of valid values is between 1 and 8. To stop 
1209:Generated_Source\PSoC5/COM.c ****     *  all DMAs associated with endpoints call this function with 
1210:Generated_Source\PSoC5/COM.c ****     *  COM_MAX_EP argument.
1211:Generated_Source\PSoC5/COM.c ****     *
1212:Generated_Source\PSoC5/COM.c ****     * \reentrant
1213:Generated_Source\PSoC5/COM.c ****     *  No.
1214:Generated_Source\PSoC5/COM.c ****     *
1215:Generated_Source\PSoC5/COM.c ****     ***************************************************************************/
1216:Generated_Source\PSoC5/COM.c ****     void COM_Stop_DMA(uint8 epNumber) 
1217:Generated_Source\PSoC5/COM.c ****     {
1218:Generated_Source\PSoC5/COM.c ****         uint8 i;
1219:Generated_Source\PSoC5/COM.c **** 
1220:Generated_Source\PSoC5/COM.c ****         i = (epNumber < COM_MAX_EP) ? epNumber : COM_EP1;
1221:Generated_Source\PSoC5/COM.c **** 
1222:Generated_Source\PSoC5/COM.c ****         do
1223:Generated_Source\PSoC5/COM.c ****         {
1224:Generated_Source\PSoC5/COM.c ****         #if (CY_PSOC4)
1225:Generated_Source\PSoC5/COM.c ****             if (0u != COM_DmaChan[i])
1226:Generated_Source\PSoC5/COM.c ****             {
1227:Generated_Source\PSoC5/COM.c ****                 COM_CyDmaChDisable(COM_DmaChan[i]);
1228:Generated_Source\PSoC5/COM.c ****             }
1229:Generated_Source\PSoC5/COM.c ****         #else
1230:Generated_Source\PSoC5/COM.c ****             if(COM_DmaTd[i] != DMA_INVALID_TD)
1231:Generated_Source\PSoC5/COM.c ****             {
1232:Generated_Source\PSoC5/COM.c ****                 (void) CyDmaChDisable(COM_DmaChan[i]);
ARM GAS  C:\Users\LUKASC~1\AppData\Local\Temp\ccb2ZD5o.s 			page 37


1233:Generated_Source\PSoC5/COM.c ****                 CyDmaTdFree(COM_DmaTd[i]);
1234:Generated_Source\PSoC5/COM.c ****                 COM_DmaTd[i] = DMA_INVALID_TD;
1235:Generated_Source\PSoC5/COM.c ****             }
1236:Generated_Source\PSoC5/COM.c **** 
1237:Generated_Source\PSoC5/COM.c ****             #if (COM_EP_MANAGEMENT_DMA_AUTO && (COM_EP_DMA_AUTO_OPT == 0u))
1238:Generated_Source\PSoC5/COM.c ****                 if(COM_DmaNextTd[i] != DMA_INVALID_TD)
1239:Generated_Source\PSoC5/COM.c ****                 {
1240:Generated_Source\PSoC5/COM.c ****                     CyDmaTdFree(COM_DmaNextTd[i]);
1241:Generated_Source\PSoC5/COM.c ****                     COM_DmaNextTd[i] = DMA_INVALID_TD;
1242:Generated_Source\PSoC5/COM.c ****                 }
1243:Generated_Source\PSoC5/COM.c ****             #endif /* (COM_EP_MANAGEMENT_DMA_AUTO && (COM_EP_DMA_AUTO_OPT == 0u)) */
1244:Generated_Source\PSoC5/COM.c **** 
1245:Generated_Source\PSoC5/COM.c ****         #endif /* (CY_PSOC4) */
1246:Generated_Source\PSoC5/COM.c ****             i++;
1247:Generated_Source\PSoC5/COM.c ****         }
1248:Generated_Source\PSoC5/COM.c ****         while ((i < COM_MAX_EP) && (epNumber == COM_MAX_EP));
1249:Generated_Source\PSoC5/COM.c ****     }
1250:Generated_Source\PSoC5/COM.c **** #endif /* (COM_EP_MANAGEMENT_DMA) */
1251:Generated_Source\PSoC5/COM.c **** 
1252:Generated_Source\PSoC5/COM.c **** 
1253:Generated_Source\PSoC5/COM.c **** #if (CY_PSOC3 || CY_PSOC5)
1254:Generated_Source\PSoC5/COM.c **** #if (COM_EP_MANAGEMENT_DMA_AUTO && (COM_EP_DMA_AUTO_OPT == 0u))
1255:Generated_Source\PSoC5/COM.c ****     /***************************************************************************
1256:Generated_Source\PSoC5/COM.c ****     * Function Name: COM_LoadNextInEP
1257:Generated_Source\PSoC5/COM.c ****     ************************************************************************//**
1258:Generated_Source\PSoC5/COM.c ****     *
1259:Generated_Source\PSoC5/COM.c ****     * Summary:
1260:Generated_Source\PSoC5/COM.c ****     *  This internal function is used for IN endpoint DMA reconfiguration in
1261:Generated_Source\PSoC5/COM.c ****     *  Auto DMA mode.
1262:Generated_Source\PSoC5/COM.c ****     *
1263:Generated_Source\PSoC5/COM.c ****     * Parameters:
1264:Generated_Source\PSoC5/COM.c ****     *  epNumber: Contains the data endpoint number.
1265:Generated_Source\PSoC5/COM.c ****     *  mode:   0 - Configure DMA to send the the rest of data.
1266:Generated_Source\PSoC5/COM.c ****     *          1 - Configure DMA to repeat 2 last bytes of the first burst.
1267:Generated_Source\PSoC5/COM.c ****     *
1268:Generated_Source\PSoC5/COM.c ****     ***************************************************************************/
1269:Generated_Source\PSoC5/COM.c ****     void COM_LoadNextInEP(uint8 epNumber, uint8 mode) 
1270:Generated_Source\PSoC5/COM.c ****     {
1271:Generated_Source\PSoC5/COM.c ****         reg16 *convert;
1272:Generated_Source\PSoC5/COM.c **** 
1273:Generated_Source\PSoC5/COM.c ****         if (mode == 0u)
1274:Generated_Source\PSoC5/COM.c ****         {
1275:Generated_Source\PSoC5/COM.c ****             /* Configure DMA to send rest of data. */
1276:Generated_Source\PSoC5/COM.c ****             /* CyDmaTdSetConfiguration API is optimized to change transfer length only and configur
1277:Generated_Source\PSoC5/COM.c ****             convert = (reg16 *) &CY_DMA_TDMEM_STRUCT_PTR[COM_DmaTd[epNumber]].TD0[0u];
1278:Generated_Source\PSoC5/COM.c ****             /* Set transfer length. */
1279:Generated_Source\PSoC5/COM.c ****             CY_SET_REG16(convert, COM_inLength[epNumber] - COM_DMA_BYTES_PER_BURST);
1280:Generated_Source\PSoC5/COM.c ****             /* CyDmaTdSetAddress API is optimized to change source address only. */
1281:Generated_Source\PSoC5/COM.c ****             convert = (reg16 *) &CY_DMA_TDMEM_STRUCT_PTR[COM_DmaTd[epNumber]].TD1[0u];
1282:Generated_Source\PSoC5/COM.c ****             CY_SET_REG16(convert, LO16((uint32)COM_inDataPointer[epNumber] +
1283:Generated_Source\PSoC5/COM.c ****                                             COM_DMA_BYTES_PER_BURST));
1284:Generated_Source\PSoC5/COM.c ****             COM_inBufFull[epNumber] = 1u;
1285:Generated_Source\PSoC5/COM.c ****         }
1286:Generated_Source\PSoC5/COM.c ****         else
1287:Generated_Source\PSoC5/COM.c ****         {
1288:Generated_Source\PSoC5/COM.c ****             /* Configure DMA to repeat 2 last bytes of the first burst. */
1289:Generated_Source\PSoC5/COM.c ****             /* CyDmaTdSetConfiguration API is optimized to change transfer length only and configur
ARM GAS  C:\Users\LUKASC~1\AppData\Local\Temp\ccb2ZD5o.s 			page 38


1290:Generated_Source\PSoC5/COM.c ****             convert = (reg16 *) &CY_DMA_TDMEM_STRUCT_PTR[COM_DmaTd[epNumber]].TD0[0u];
1291:Generated_Source\PSoC5/COM.c ****             /* Set transfer length. */
1292:Generated_Source\PSoC5/COM.c ****             CY_SET_REG16(convert, COM_DMA_BYTES_REPEAT);
1293:Generated_Source\PSoC5/COM.c ****             /* CyDmaTdSetAddress API is optimized to change source address only. */
1294:Generated_Source\PSoC5/COM.c ****             convert = (reg16 *) &CY_DMA_TDMEM_STRUCT_PTR[COM_DmaTd[epNumber]].TD1[0u];
1295:Generated_Source\PSoC5/COM.c ****             CY_SET_REG16(convert,  LO16((uint32)COM_inDataPointer[epNumber] +
1296:Generated_Source\PSoC5/COM.c ****                                    (COM_DMA_BYTES_PER_BURST - COM_DMA_BYTES_REPEAT)));
1297:Generated_Source\PSoC5/COM.c ****         }
1298:Generated_Source\PSoC5/COM.c **** 
1299:Generated_Source\PSoC5/COM.c ****         /* CyDmaChSetInitialTd API is optimized to initialize TD. */
1300:Generated_Source\PSoC5/COM.c ****         CY_DMA_CH_STRUCT_PTR[COM_DmaChan[epNumber]].basic_status[1u] = COM_DmaTd[epNumber];
1301:Generated_Source\PSoC5/COM.c ****     }
1302:Generated_Source\PSoC5/COM.c **** #endif /* (COM_EP_MANAGEMENT_DMA_AUTO && (COM_EP_DMA_AUTO_OPT == 0u)) */
1303:Generated_Source\PSoC5/COM.c **** #endif /* (CY_PSOC3 || CY_PSOC5) */
1304:Generated_Source\PSoC5/COM.c **** 
1305:Generated_Source\PSoC5/COM.c **** 
1306:Generated_Source\PSoC5/COM.c **** /*******************************************************************************
1307:Generated_Source\PSoC5/COM.c **** * Function Name: COM_LoadInEP
1308:Generated_Source\PSoC5/COM.c **** ****************************************************************************//**
1309:Generated_Source\PSoC5/COM.c **** *
1310:Generated_Source\PSoC5/COM.c **** *  This function performs different functionality depending on the Component’s
1311:Generated_Source\PSoC5/COM.c **** *  configured Endpoint Buffer Management. This parameter is defined in
1312:Generated_Source\PSoC5/COM.c **** *  the Descriptor Root in Component Configure window.
1313:Generated_Source\PSoC5/COM.c **** *
1314:Generated_Source\PSoC5/COM.c **** *  *Manual (Static/Dynamic Allocation):*
1315:Generated_Source\PSoC5/COM.c **** *  This function loads and enables the specified USB data endpoint for an IN
1316:Generated_Source\PSoC5/COM.c **** *  data transfer.
1317:Generated_Source\PSoC5/COM.c **** *
1318:Generated_Source\PSoC5/COM.c **** *  *DMA with Manual Buffer Management:*
1319:Generated_Source\PSoC5/COM.c **** *  Configures DMA for a data transfer from system RAM to endpoint buffer.
1320:Generated_Source\PSoC5/COM.c **** *  Generates request for a transfer.
1321:Generated_Source\PSoC5/COM.c **** *
1322:Generated_Source\PSoC5/COM.c **** *  *DMA with Automatic Buffer Management:*
1323:Generated_Source\PSoC5/COM.c **** *  Configures DMA. This is required only once, so it is done only when parameter
1324:Generated_Source\PSoC5/COM.c **** *  pData is not NULL. When the pData pointer is NULL, the function skips this
1325:Generated_Source\PSoC5/COM.c **** *  task. Sets Data ready status: This generates the first DMA transfer and
1326:Generated_Source\PSoC5/COM.c **** *  prepares data in endpoint buffer.
1327:Generated_Source\PSoC5/COM.c **** *
1328:Generated_Source\PSoC5/COM.c **** *  \param epNumber Contains the data endpoint number.
1329:Generated_Source\PSoC5/COM.c **** *            Valid values are between 1 and 8.
1330:Generated_Source\PSoC5/COM.c **** *  \param *pData A pointer to a data array from which the data for the endpoint space
1331:Generated_Source\PSoC5/COM.c **** *          is loaded.
1332:Generated_Source\PSoC5/COM.c **** *  \param length The number of bytes to transfer from the array and then send as
1333:Generated_Source\PSoC5/COM.c **** *          a result of an IN request. Valid values are between 0 and 512
1334:Generated_Source\PSoC5/COM.c **** *          (1023 for DMA with Automatic Buffer Management mode). The value 512
1335:Generated_Source\PSoC5/COM.c **** *          is applicable if only one endpoint is used.
1336:Generated_Source\PSoC5/COM.c **** *
1337:Generated_Source\PSoC5/COM.c **** *
1338:Generated_Source\PSoC5/COM.c **** * \reentrant
1339:Generated_Source\PSoC5/COM.c **** *  No.
1340:Generated_Source\PSoC5/COM.c **** *
1341:Generated_Source\PSoC5/COM.c **** *******************************************************************************/
1342:Generated_Source\PSoC5/COM.c **** void COM_LoadInEP(uint8 epNumber, const uint8 pData[], uint16 length)
1343:Generated_Source\PSoC5/COM.c ****                                                                         
1344:Generated_Source\PSoC5/COM.c **** {
 814              		.loc 1 1344 0
 815              		.cfi_startproc
ARM GAS  C:\Users\LUKASC~1\AppData\Local\Temp\ccb2ZD5o.s 			page 39


 816              		@ args = 0, pretend = 0, frame = 0
 817              		@ frame_needed = 0, uses_anonymous_args = 0
 818              		@ link register save eliminated.
 819              	.LVL53:
1345:Generated_Source\PSoC5/COM.c ****     if ((epNumber > COM_EP0) && (epNumber < COM_MAX_EP))
 820              		.loc 1 1345 0
 821 0000 431E     		subs	r3, r0, #1
 822 0002 DBB2     		uxtb	r3, r3
 823 0004 072B     		cmp	r3, #7
 824 0006 3BD8     		bhi	.L58
1344:Generated_Source\PSoC5/COM.c ****     if ((epNumber > COM_EP0) && (epNumber < COM_MAX_EP))
 825              		.loc 1 1344 0
 826 0008 F0B4     		push	{r4, r5, r6, r7}
 827              		.cfi_def_cfa_offset 16
 828              		.cfi_offset 4, -16
 829              		.cfi_offset 5, -12
 830              		.cfi_offset 6, -8
 831              		.cfi_offset 7, -4
1346:Generated_Source\PSoC5/COM.c ****     {
1347:Generated_Source\PSoC5/COM.c ****     #if (!COM_EP_MANAGEMENT_DMA_AUTO)
1348:Generated_Source\PSoC5/COM.c ****         /* Limit length to available buffer USB IP buffer size.*/
1349:Generated_Source\PSoC5/COM.c ****         if (length > (COM_EPX_DATA_BUF_MAX - COM_EP[epNumber].buffOffset))
 832              		.loc 1 1349 0
 833 000a 0746     		mov	r7, r0
 834 000c 00EB4003 		add	r3, r0, r0, lsl #1
 835 0010 9B00     		lsls	r3, r3, #2
 836 0012 1C4C     		ldr	r4, .L59
 837 0014 2344     		add	r3, r3, r4
 838 0016 DB88     		ldrh	r3, [r3, #6]
 839 0018 9BB2     		uxth	r3, r3
 840 001a C3F50073 		rsb	r3, r3, #512
 841 001e 9A42     		cmp	r2, r3
 842 0020 07D9     		bls	.L51
1350:Generated_Source\PSoC5/COM.c ****         {
1351:Generated_Source\PSoC5/COM.c ****             length = COM_EPX_DATA_BUF_MAX - COM_EP[epNumber].buffOffset;
 843              		.loc 1 1351 0
 844 0022 00EB4003 		add	r3, r0, r0, lsl #1
 845 0026 9B00     		lsls	r3, r3, #2
 846 0028 2344     		add	r3, r3, r4
 847 002a DA88     		ldrh	r2, [r3, #6]
 848              	.LVL54:
 849 002c C2F50072 		rsb	r2, r2, #512
 850 0030 92B2     		uxth	r2, r2
 851              	.LVL55:
 852              	.L51:
1352:Generated_Source\PSoC5/COM.c ****         }
1353:Generated_Source\PSoC5/COM.c ****     #endif /* (!COM_EP_MANAGEMENT_DMA_AUTO) */
1354:Generated_Source\PSoC5/COM.c **** 
1355:Generated_Source\PSoC5/COM.c ****         /* Set count and data toggle. */
1356:Generated_Source\PSoC5/COM.c ****         COM_SIE_EP_BASE.sieEp[epNumber].epCnt0 = (uint8) HI8(length) | COM_EP[epNumber].epToggle;
 853              		.loc 1 1356 0
 854 0032 00EB4003 		add	r3, r0, r0, lsl #1
 855 0036 9B00     		lsls	r3, r3, #2
 856 0038 124C     		ldr	r4, .L59
 857 003a 2344     		add	r3, r3, r4
 858 003c DB78     		ldrb	r3, [r3, #3]	@ zero_extendqisi2
 859 003e 43EA1223 		orr	r3, r3, r2, lsr #8
ARM GAS  C:\Users\LUKASC~1\AppData\Local\Temp\ccb2ZD5o.s 			page 40


 860 0042 114D     		ldr	r5, .L59+4
 861 0044 0401     		lsls	r4, r0, #4
 862 0046 2E19     		adds	r6, r5, r4
 863 0048 2B55     		strb	r3, [r5, r4]
1357:Generated_Source\PSoC5/COM.c ****         COM_SIE_EP_BASE.sieEp[epNumber].epCnt1 = (uint8) LO8(length);
 864              		.loc 1 1357 0
 865 004a D3B2     		uxtb	r3, r2
 866 004c 7370     		strb	r3, [r6, #1]
1358:Generated_Source\PSoC5/COM.c **** 
1359:Generated_Source\PSoC5/COM.c ****     #if (COM_EP_MANAGEMENT_MANUAL)
1360:Generated_Source\PSoC5/COM.c ****         if (NULL != pData)
 867              		.loc 1 1360 0
 868 004e 39B9     		cbnz	r1, .L55
 869              	.LBB2:
 870 0050 09E0     		b	.L53
 871              	.LVL56:
 872              	.L54:
1361:Generated_Source\PSoC5/COM.c ****         {
1362:Generated_Source\PSoC5/COM.c **** 			/* Copy data using arbiter data register. */
1363:Generated_Source\PSoC5/COM.c ****             uint16 i;
1364:Generated_Source\PSoC5/COM.c ****             for (i = 0u; i < length; ++i)
1365:Generated_Source\PSoC5/COM.c ****             {
1366:Generated_Source\PSoC5/COM.c ****                 COM_ARB_EP_BASE.arbEp[epNumber].rwDr = pData[i];
 873              		.loc 1 1366 0 discriminator 3
 874 0052 CE5C     		ldrb	r6, [r1, r3]	@ zero_extendqisi2
 875 0054 3D01     		lsls	r5, r7, #4
 876 0056 0D4C     		ldr	r4, .L59+8
 877 0058 6655     		strb	r6, [r4, r5]
1364:Generated_Source\PSoC5/COM.c ****             {
 878              		.loc 1 1364 0 discriminator 3
 879 005a 0133     		adds	r3, r3, #1
 880              	.LVL57:
 881 005c 9BB2     		uxth	r3, r3
 882              	.LVL58:
 883 005e 00E0     		b	.L52
 884              	.LVL59:
 885              	.L55:
 886              	.LBE2:
 887 0060 0023     		movs	r3, #0
 888              	.L52:
 889              	.LVL60:
 890              	.LBB3:
1364:Generated_Source\PSoC5/COM.c ****             {
 891              		.loc 1 1364 0 is_stmt 0 discriminator 1
 892 0062 9342     		cmp	r3, r2
 893 0064 F5D3     		bcc	.L54
 894              	.LVL61:
 895              	.L53:
 896              	.LBE3:
1367:Generated_Source\PSoC5/COM.c ****             }
1368:Generated_Source\PSoC5/COM.c ****         }
1369:Generated_Source\PSoC5/COM.c **** 
1370:Generated_Source\PSoC5/COM.c ****         /* IN endpoint buffer is full - read to be read. */
1371:Generated_Source\PSoC5/COM.c ****         COM_EP[epNumber].apiEpState = COM_NO_EVENT_PENDING;
 897              		.loc 1 1371 0 is_stmt 1
 898 0066 4300     		lsls	r3, r0, #1
 899 0068 0344     		add	r3, r3, r0
ARM GAS  C:\Users\LUKASC~1\AppData\Local\Temp\ccb2ZD5o.s 			page 41


 900 006a 9B00     		lsls	r3, r3, #2
 901 006c 054A     		ldr	r2, .L59
 902              	.LVL62:
 903 006e 1344     		add	r3, r3, r2
 904 0070 0022     		movs	r2, #0
 905 0072 5A70     		strb	r2, [r3, #1]
1372:Generated_Source\PSoC5/COM.c **** 
1373:Generated_Source\PSoC5/COM.c ****         /* Arm IN endpoint. */
1374:Generated_Source\PSoC5/COM.c ****         COM_SIE_EP_BASE.sieEp[epNumber].epCr0 = COM_EP[epNumber].epMode;
 906              		.loc 1 1374 0
 907 0074 5A79     		ldrb	r2, [r3, #5]	@ zero_extendqisi2
 908 0076 D2B2     		uxtb	r2, r2
 909 0078 0001     		lsls	r0, r0, #4
 910              	.LVL63:
 911 007a 054B     		ldr	r3, .L59+12
 912 007c 1A54     		strb	r2, [r3, r0]
1375:Generated_Source\PSoC5/COM.c **** 
1376:Generated_Source\PSoC5/COM.c ****     #else
1377:Generated_Source\PSoC5/COM.c **** 
1378:Generated_Source\PSoC5/COM.c ****         #if (CY_PSOC3 || CY_PSOC5LP)
1379:Generated_Source\PSoC5/COM.c ****             /* Initialize DMA if it was not initialized. */
1380:Generated_Source\PSoC5/COM.c ****             if (DMA_INVALID_TD == COM_DmaTd[epNumber])
1381:Generated_Source\PSoC5/COM.c ****             {
1382:Generated_Source\PSoC5/COM.c ****                 COM_InitEP_DMA(epNumber, pData);
1383:Generated_Source\PSoC5/COM.c ****             }
1384:Generated_Source\PSoC5/COM.c ****         #endif /* (CY_PSOC3 || CY_PSOC5LP) */
1385:Generated_Source\PSoC5/COM.c **** 
1386:Generated_Source\PSoC5/COM.c ****         #if (COM_EP_MANAGEMENT_DMA_MANUAL)
1387:Generated_Source\PSoC5/COM.c ****             /* IN endpoint buffer will be fully loaded by DMA shortly. */
1388:Generated_Source\PSoC5/COM.c ****             COM_EP[epNumber].apiEpState = COM_NO_EVENT_PENDING;
1389:Generated_Source\PSoC5/COM.c **** 
1390:Generated_Source\PSoC5/COM.c ****             if ((pData != NULL) && (length > 0u))
1391:Generated_Source\PSoC5/COM.c ****             {
1392:Generated_Source\PSoC5/COM.c ****             #if (CY_PSOC4)
1393:Generated_Source\PSoC5/COM.c ****                 uint32 channelNum = (uint32) COM_DmaChan[epNumber];
1394:Generated_Source\PSoC5/COM.c **** 
1395:Generated_Source\PSoC5/COM.c ****                 /* Disable DMA channel: start configuration. */
1396:Generated_Source\PSoC5/COM.c ****                 COM_CyDmaChDisable(channelNum);
1397:Generated_Source\PSoC5/COM.c **** 
1398:Generated_Source\PSoC5/COM.c ****                 /* Configure source and destination. */
1399:Generated_Source\PSoC5/COM.c ****                 COM_CyDmaSetSrcAddress(channelNum, COM_DMA_DESCR0, (void*) pData);
1400:Generated_Source\PSoC5/COM.c ****                 COM_CyDmaSetDstAddress(channelNum, COM_DMA_DESCR0, (void*) &COM_ARB_EP_BASE.arbEp[e
1401:Generated_Source\PSoC5/COM.c **** 
1402:Generated_Source\PSoC5/COM.c ****                 /* Configure DMA descriptor. */
1403:Generated_Source\PSoC5/COM.c ****                 --length;
1404:Generated_Source\PSoC5/COM.c ****                 COM_CyDmaSetConfiguration(channelNum, COM_DMA_DESCR0, COM_DMA_COMMON_CFG | length |
1405:Generated_Source\PSoC5/COM.c ****                                                         CYDMA_BYTE | CYDMA_ELEMENT_WORD | CYDMA_INC
1406:Generated_Source\PSoC5/COM.c **** 
1407:Generated_Source\PSoC5/COM.c ****                 /* Validate descriptor to execute on following DMA request. */
1408:Generated_Source\PSoC5/COM.c ****                 COM_CyDmaValidateDescriptor(channelNum, COM_DMA_DESCR0);
1409:Generated_Source\PSoC5/COM.c **** 
1410:Generated_Source\PSoC5/COM.c ****                 /* Enable DMA channel: configuration complete. */
1411:Generated_Source\PSoC5/COM.c ****                 COM_CyDmaChEnable(channelNum);
1412:Generated_Source\PSoC5/COM.c ****             #else
1413:Generated_Source\PSoC5/COM.c ****                 /* Configure DMA to transfer data. */
1414:Generated_Source\PSoC5/COM.c ****                 (void) CyDmaChDisable(COM_DmaChan[epNumber]);
1415:Generated_Source\PSoC5/COM.c ****                 (void) CyDmaTdSetConfiguration(COM_DmaTd[epNumber], length, CY_DMA_DISABLE_TD, TD_T
ARM GAS  C:\Users\LUKASC~1\AppData\Local\Temp\ccb2ZD5o.s 			page 42


1416:Generated_Source\PSoC5/COM.c ****                 (void) CyDmaTdSetAddress(COM_DmaTd[epNumber], LO16((uint32) pData), LO16((uint32) &
1417:Generated_Source\PSoC5/COM.c **** 
1418:Generated_Source\PSoC5/COM.c ****                 /* Enable DMA channel. */
1419:Generated_Source\PSoC5/COM.c ****                 (void) CyDmaChSetInitialTd(COM_DmaChan[epNumber], COM_DmaTd[epNumber]);
1420:Generated_Source\PSoC5/COM.c ****                 (void) CyDmaChEnable(COM_DmaChan[epNumber], 1u);
1421:Generated_Source\PSoC5/COM.c ****             #endif /* (CY_PSOC4) */
1422:Generated_Source\PSoC5/COM.c **** 
1423:Generated_Source\PSoC5/COM.c ****                 /* Generate DMA request. */
1424:Generated_Source\PSoC5/COM.c ****                 COM_ARB_EP_BASE.arbEp[epNumber].epCfg |=  (uint8)  COM_ARB_EPX_CFG_DMA_REQ;
1425:Generated_Source\PSoC5/COM.c ****                 COM_ARB_EP_BASE.arbEp[epNumber].epCfg &=  (uint8) ~COM_ARB_EPX_CFG_DMA_REQ;
1426:Generated_Source\PSoC5/COM.c **** 
1427:Generated_Source\PSoC5/COM.c ****                 /* IN endpoint will be armed in ARB_ISR(source: IN_BUF_FULL) after first DMA transf
1428:Generated_Source\PSoC5/COM.c ****             }
1429:Generated_Source\PSoC5/COM.c ****             else
1430:Generated_Source\PSoC5/COM.c ****             {
1431:Generated_Source\PSoC5/COM.c ****                 /* When zero-length packet: arm IN endpoint directly. */
1432:Generated_Source\PSoC5/COM.c ****                 COM_SIE_EP_BASE.sieEp[epNumber].epCr0 = COM_EP[epNumber].epMode;
1433:Generated_Source\PSoC5/COM.c ****             }
1434:Generated_Source\PSoC5/COM.c ****         #endif /* (COM_EP_MANAGEMENT_DMA_MANUAL) */
1435:Generated_Source\PSoC5/COM.c **** 
1436:Generated_Source\PSoC5/COM.c ****         #if (COM_EP_MANAGEMENT_DMA_AUTO)
1437:Generated_Source\PSoC5/COM.c ****             if (pData != NULL)
1438:Generated_Source\PSoC5/COM.c ****             {
1439:Generated_Source\PSoC5/COM.c ****             #if (CY_PSOC4)
1440:Generated_Source\PSoC5/COM.c ****                 uint32 channelNum = (uint32) COM_DmaChan[epNumber];
1441:Generated_Source\PSoC5/COM.c **** 
1442:Generated_Source\PSoC5/COM.c ****                 /* Store address of buffer. */
1443:Generated_Source\PSoC5/COM.c ****                 COM_DmaEpBufferAddrBackup[epNumber] = (uint32) pData;
1444:Generated_Source\PSoC5/COM.c **** 
1445:Generated_Source\PSoC5/COM.c ****                 /* Disable DMA channel: start configuration. */
1446:Generated_Source\PSoC5/COM.c ****                 COM_CyDmaChDisable(channelNum);
1447:Generated_Source\PSoC5/COM.c **** 
1448:Generated_Source\PSoC5/COM.c ****                 /* Set destination address. */
1449:Generated_Source\PSoC5/COM.c ****                 COM_CyDmaSetDstAddress(channelNum, COM_DMA_DESCR0, (void*) &COM_ARB_EP_BASE.arbEp[e
1450:Generated_Source\PSoC5/COM.c ****                 COM_CyDmaSetDstAddress(channelNum, COM_DMA_DESCR1, (void*) &COM_ARB_EP_BASE.arbEp[e
1451:Generated_Source\PSoC5/COM.c **** 
1452:Generated_Source\PSoC5/COM.c ****                 /* Configure DMA descriptor. */
1453:Generated_Source\PSoC5/COM.c ****                 COM_CyDmaSetConfiguration(channelNum, COM_DMA_DESCR0, COM_DMA_COMMON_CFG  |
1454:Generated_Source\PSoC5/COM.c ****                                                         CYDMA_BYTE | CYDMA_ELEMENT_WORD | CYDMA_INC
1455:Generated_Source\PSoC5/COM.c **** 
1456:Generated_Source\PSoC5/COM.c ****                 /* Configure DMA descriptor. */
1457:Generated_Source\PSoC5/COM.c ****                 COM_CyDmaSetConfiguration(channelNum, COM_DMA_DESCR1, COM_DMA_COMMON_CFG  |
1458:Generated_Source\PSoC5/COM.c ****                                                         CYDMA_BYTE | CYDMA_ELEMENT_WORD | CYDMA_INC
1459:Generated_Source\PSoC5/COM.c **** 
1460:Generated_Source\PSoC5/COM.c ****                 /* Enable interrupt from DMA channel. */
1461:Generated_Source\PSoC5/COM.c ****                 COM_CyDmaSetInterruptMask(channelNum);
1462:Generated_Source\PSoC5/COM.c **** 
1463:Generated_Source\PSoC5/COM.c **** 
1464:Generated_Source\PSoC5/COM.c ****                 /* Enable DMA channel: configuration complete. */
1465:Generated_Source\PSoC5/COM.c ****                 COM_CyDmaChEnable(channelNum);
1466:Generated_Source\PSoC5/COM.c **** 
1467:Generated_Source\PSoC5/COM.c ****             #else
1468:Generated_Source\PSoC5/COM.c ****                 (void) CyDmaChDisable(COM_DmaChan[epNumber]);
1469:Generated_Source\PSoC5/COM.c **** 
1470:Generated_Source\PSoC5/COM.c ****                 #if (COM_EP_DMA_AUTO_OPT == 0u)
1471:Generated_Source\PSoC5/COM.c ****                     COM_inLength[epNumber] = length;
1472:Generated_Source\PSoC5/COM.c ****                     COM_inDataPointer[epNumber] = pData;
ARM GAS  C:\Users\LUKASC~1\AppData\Local\Temp\ccb2ZD5o.s 			page 43


1473:Generated_Source\PSoC5/COM.c **** 
1474:Generated_Source\PSoC5/COM.c ****                     /* Configure DMA to send data only for first burst */
1475:Generated_Source\PSoC5/COM.c ****                     (void) CyDmaTdSetConfiguration(COM_DmaTd[epNumber],
1476:Generated_Source\PSoC5/COM.c ****                         (length > COM_DMA_BYTES_PER_BURST) ? COM_DMA_BYTES_PER_BURST : length,
1477:Generated_Source\PSoC5/COM.c ****                         COM_DmaNextTd[epNumber], TD_TERMIN_EN | TD_INC_SRC_ADR);
1478:Generated_Source\PSoC5/COM.c ****                     (void) CyDmaTdSetAddress(COM_DmaTd[epNumber], LO16((uint32) pData),
1479:Generated_Source\PSoC5/COM.c ****                                                                                LO16((uint32) &COM_A
1480:Generated_Source\PSoC5/COM.c **** 
1481:Generated_Source\PSoC5/COM.c ****                     /* The second TD will be executed only when the first one fails.
1482:Generated_Source\PSoC5/COM.c ****                     *  The intention of this TD is to generate NRQ interrupt
1483:Generated_Source\PSoC5/COM.c ****                     *  and repeat 2 last bytes of the first burst.
1484:Generated_Source\PSoC5/COM.c ****                     */
1485:Generated_Source\PSoC5/COM.c ****                     (void) CyDmaTdSetConfiguration(COM_DmaNextTd[epNumber], 1u,
1486:Generated_Source\PSoC5/COM.c ****                                                    COM_DmaNextTd[epNumber],
1487:Generated_Source\PSoC5/COM.c ****                                                    COM_epX_TD_TERMOUT_EN[epNumber]);
1488:Generated_Source\PSoC5/COM.c **** 
1489:Generated_Source\PSoC5/COM.c ****                     /* Configure DmaNextTd to clear Data Ready status. */
1490:Generated_Source\PSoC5/COM.c ****                     (void) CyDmaTdSetAddress(COM_DmaNextTd[epNumber], LO16((uint32) &clearInDataRdy
1491:Generated_Source\PSoC5/COM.c ****                                                                                    LO16((uint32) &C
1492:Generated_Source\PSoC5/COM.c ****                 #else
1493:Generated_Source\PSoC5/COM.c ****                     /* Configure DMA to send all data. */
1494:Generated_Source\PSoC5/COM.c ****                     (void) CyDmaTdSetConfiguration(COM_DmaTd[epNumber], length,
1495:Generated_Source\PSoC5/COM.c ****                                                    COM_DmaTd[epNumber], TD_TERMIN_EN | TD_INC_SRC_A
1496:Generated_Source\PSoC5/COM.c ****                     (void) CyDmaTdSetAddress(COM_DmaTd[epNumber], LO16((uint32) pData),
1497:Generated_Source\PSoC5/COM.c ****                                                                                LO16((uint32) &COM_A
1498:Generated_Source\PSoC5/COM.c ****                 #endif /* (COM_EP_DMA_AUTO_OPT == 0u) */
1499:Generated_Source\PSoC5/COM.c **** 
1500:Generated_Source\PSoC5/COM.c ****                 /* Clear any potential pending DMA requests before starting DMA channel to transfer
1501:Generated_Source\PSoC5/COM.c ****                 (void) CyDmaClearPendingDrq(COM_DmaChan[epNumber]);
1502:Generated_Source\PSoC5/COM.c ****                 /* Enable DMA. */
1503:Generated_Source\PSoC5/COM.c ****                 (void) CyDmaChSetInitialTd(COM_DmaChan[epNumber], COM_DmaTd[epNumber]);
1504:Generated_Source\PSoC5/COM.c ****                 (void) CyDmaChEnable(COM_DmaChan[epNumber], 1u);
1505:Generated_Source\PSoC5/COM.c ****             #endif /* (CY_PSOC4) */
1506:Generated_Source\PSoC5/COM.c ****             }
1507:Generated_Source\PSoC5/COM.c ****             else
1508:Generated_Source\PSoC5/COM.c ****             {
1509:Generated_Source\PSoC5/COM.c ****                 /* IN endpoint buffer (32 bytes) will shortly be preloaded by DMA. */
1510:Generated_Source\PSoC5/COM.c ****                 COM_EP[epNumber].apiEpState = COM_NO_EVENT_PENDING;
1511:Generated_Source\PSoC5/COM.c **** 
1512:Generated_Source\PSoC5/COM.c ****                 if (length > 0u)
1513:Generated_Source\PSoC5/COM.c ****                 {
1514:Generated_Source\PSoC5/COM.c ****                 #if (CY_PSOC4)
1515:Generated_Source\PSoC5/COM.c ****                     uint32 lengthDescr0, lengthDescr1;
1516:Generated_Source\PSoC5/COM.c ****                     uint32 channelNum = (uint32) COM_DmaChan[epNumber];
1517:Generated_Source\PSoC5/COM.c **** 
1518:Generated_Source\PSoC5/COM.c ****                     /* Get number of full bursts. */
1519:Generated_Source\PSoC5/COM.c ****                     COM_DmaEpBurstCnt[epNumber] = (uint8) (length / COM_DMA_BYTES_PER_BURST);
1520:Generated_Source\PSoC5/COM.c **** 
1521:Generated_Source\PSoC5/COM.c ****                     /* Get number of elements in the last burst. */
1522:Generated_Source\PSoC5/COM.c ****                     COM_DmaEpLastBurstEl[epNumber] = (uint8) (length % COM_DMA_BYTES_PER_BURST);
1523:Generated_Source\PSoC5/COM.c **** 
1524:Generated_Source\PSoC5/COM.c ****                     /* Get total number of bursts. */
1525:Generated_Source\PSoC5/COM.c ****                     COM_DmaEpBurstCnt[epNumber] += (0u != COM_DmaEpLastBurstEl[epNumber]) ? 1u : 0u
1526:Generated_Source\PSoC5/COM.c **** 
1527:Generated_Source\PSoC5/COM.c ****                     /* Adjust number of data elements transferred in last burst. */
1528:Generated_Source\PSoC5/COM.c ****                     COM_DmaEpLastBurstEl[epNumber] = (0u != COM_DmaEpLastBurstEl[epNumber]) ?
1529:Generated_Source\PSoC5/COM.c ****                                                                           (COM_DmaEpLastBurstEl[epN
ARM GAS  C:\Users\LUKASC~1\AppData\Local\Temp\ccb2ZD5o.s 			page 44


1530:Generated_Source\PSoC5/COM.c ****                                                                           (COM_DMA_BYTES_PER_BURST 
1531:Generated_Source\PSoC5/COM.c **** 
1532:Generated_Source\PSoC5/COM.c ****                     /* Get number of data elements to transfer for descriptor 0 and 1. */
1533:Generated_Source\PSoC5/COM.c ****                     lengthDescr0 = (1u == COM_DmaEpBurstCnt[epNumber]) ? COM_DmaEpLastBurstEl[epNum
1534:Generated_Source\PSoC5/COM.c ****                     lengthDescr1 = (2u == COM_DmaEpBurstCnt[epNumber]) ? COM_DmaEpLastBurstEl[epNum
1535:Generated_Source\PSoC5/COM.c **** 
1536:Generated_Source\PSoC5/COM.c **** 
1537:Generated_Source\PSoC5/COM.c ****                     /* Mark which descriptor is last one to execute. */
1538:Generated_Source\PSoC5/COM.c ****                     COM_DmaEpLastBurstEl[epNumber] |= (0u != (COM_DmaEpBurstCnt[epNumber] & 0x1u)) 
1539:Generated_Source\PSoC5/COM.c ****                                                                             COM_DMA_DESCR0_MASK : C
1540:Generated_Source\PSoC5/COM.c **** 
1541:Generated_Source\PSoC5/COM.c ****                     /* Restore DMA settings for current transfer. */
1542:Generated_Source\PSoC5/COM.c ****                     COM_CyDmaChDisable(channelNum);
1543:Generated_Source\PSoC5/COM.c **** 
1544:Generated_Source\PSoC5/COM.c ****                     /* Restore destination address for input endpoint. */
1545:Generated_Source\PSoC5/COM.c ****                     COM_CyDmaSetSrcAddress(channelNum, COM_DMA_DESCR0, (void*) ((uint32) COM_DmaEpB
1546:Generated_Source\PSoC5/COM.c ****                     COM_CyDmaSetSrcAddress(channelNum, COM_DMA_DESCR1, (void*) ((uint32) COM_DmaEpB
1547:Generated_Source\PSoC5/COM.c ****                                                                                                    
1548:Generated_Source\PSoC5/COM.c **** 
1549:Generated_Source\PSoC5/COM.c ****                     /* Set number of elements to transfer. */
1550:Generated_Source\PSoC5/COM.c ****                     COM_CyDmaSetNumDataElements(channelNum, COM_DMA_DESCR0, lengthDescr0);
1551:Generated_Source\PSoC5/COM.c ****                     COM_CyDmaSetNumDataElements(channelNum, COM_DMA_DESCR1, lengthDescr1);
1552:Generated_Source\PSoC5/COM.c **** 
1553:Generated_Source\PSoC5/COM.c ****                     /* Validate descriptor 0 and command to start with it. */
1554:Generated_Source\PSoC5/COM.c ****                     COM_CyDmaValidateDescriptor(channelNum, COM_DMA_DESCR0);
1555:Generated_Source\PSoC5/COM.c ****                     COM_CyDmaSetDescriptor0Next(channelNum);
1556:Generated_Source\PSoC5/COM.c **** 
1557:Generated_Source\PSoC5/COM.c ****                     /* Validate descriptor 1. */
1558:Generated_Source\PSoC5/COM.c ****                     if (COM_DmaEpBurstCnt[epNumber] > 1u)
1559:Generated_Source\PSoC5/COM.c ****                     {
1560:Generated_Source\PSoC5/COM.c ****                         COM_CyDmaValidateDescriptor(channelNum, COM_DMA_DESCR1); 
1561:Generated_Source\PSoC5/COM.c ****                     }                   
1562:Generated_Source\PSoC5/COM.c **** 
1563:Generated_Source\PSoC5/COM.c ****                     /* Adjust burst counter taking to account: 2 valid descriptors and interrupt tr
1564:Generated_Source\PSoC5/COM.c ****                     COM_DmaEpBurstCnt[epNumber] = COM_DMA_GET_BURST_CNT(COM_DmaEpBurstCnt[epNumber]
1565:Generated_Source\PSoC5/COM.c **** 
1566:Generated_Source\PSoC5/COM.c ****                     /* Enable DMA channel: configuration complete. */
1567:Generated_Source\PSoC5/COM.c ****                     COM_CyDmaChEnable(channelNum);
1568:Generated_Source\PSoC5/COM.c **** 
1569:Generated_Source\PSoC5/COM.c ****                 #elif (COM_EP_DMA_AUTO_OPT == 0u)
1570:Generated_Source\PSoC5/COM.c ****                     COM_inLength[epNumber]  = length;
1571:Generated_Source\PSoC5/COM.c ****                     COM_inBufFull[epNumber] = 0u;
1572:Generated_Source\PSoC5/COM.c **** 
1573:Generated_Source\PSoC5/COM.c ****                     (void) CyDmaChDisable(COM_DmaChan[epNumber]);
1574:Generated_Source\PSoC5/COM.c ****                     /* Configure DMA to send data only for first burst. */
1575:Generated_Source\PSoC5/COM.c ****                     (void) CyDmaTdSetConfiguration(
1576:Generated_Source\PSoC5/COM.c ****                         COM_DmaTd[epNumber], (length > COM_DMA_BYTES_PER_BURST) ?
1577:Generated_Source\PSoC5/COM.c ****                         COM_DMA_BYTES_PER_BURST : length,
1578:Generated_Source\PSoC5/COM.c ****                         COM_DmaNextTd[epNumber], TD_TERMIN_EN | TD_INC_SRC_ADR );
1579:Generated_Source\PSoC5/COM.c ****                     (void) CyDmaTdSetAddress(COM_DmaTd[epNumber], LO16((uint32)  COM_inDataPointer[
1580:Generated_Source\PSoC5/COM.c ****                                                                                LO16((uint32) &COM_A
1581:Generated_Source\PSoC5/COM.c ****                     /* Clear Any potential pending DMA requests before starting DMA channel to tran
1582:Generated_Source\PSoC5/COM.c ****                     (void) CyDmaClearPendingDrq(COM_DmaChan[epNumber]);
1583:Generated_Source\PSoC5/COM.c ****                     /* Enable DMA. */
1584:Generated_Source\PSoC5/COM.c ****                     (void) CyDmaChSetInitialTd(COM_DmaChan[epNumber], COM_DmaTd[epNumber]);
1585:Generated_Source\PSoC5/COM.c ****                     (void) CyDmaChEnable(COM_DmaChan[epNumber], 1u);
1586:Generated_Source\PSoC5/COM.c ****                 #endif /* (CY_PSOC4) */
ARM GAS  C:\Users\LUKASC~1\AppData\Local\Temp\ccb2ZD5o.s 			page 45


1587:Generated_Source\PSoC5/COM.c **** 
1588:Generated_Source\PSoC5/COM.c ****                 #if !defined (COM_MANUAL_IN_EP_ARM)
1589:Generated_Source\PSoC5/COM.c ****                     /* Set IN data ready to generate DMA request to load data into endpoint buffer.
1590:Generated_Source\PSoC5/COM.c ****                     COM_ARB_EP_BASE.arbEp[epNumber].epCfg |= COM_ARB_EPX_CFG_IN_DATA_RDY;
1591:Generated_Source\PSoC5/COM.c ****                 #endif  /* (COM_MANUAL_IN_EP_ARM) */
1592:Generated_Source\PSoC5/COM.c **** 
1593:Generated_Source\PSoC5/COM.c ****                     /* IN endpoint will be armed in ARB_ISR(source: IN_BUF_FULL) after first DMA tr
1594:Generated_Source\PSoC5/COM.c ****                 }
1595:Generated_Source\PSoC5/COM.c ****                 else
1596:Generated_Source\PSoC5/COM.c ****                 {
1597:Generated_Source\PSoC5/COM.c ****                     /* When zero-length packet: arm IN endpoint directly. */
1598:Generated_Source\PSoC5/COM.c ****                     COM_SIE_EP_BASE.sieEp[epNumber].epCr0 = COM_EP[epNumber].epMode;
1599:Generated_Source\PSoC5/COM.c ****                 }
1600:Generated_Source\PSoC5/COM.c ****             }
1601:Generated_Source\PSoC5/COM.c ****         #endif /* (COM_EP_MANAGEMENT_DMA_AUTO) */
1602:Generated_Source\PSoC5/COM.c ****     #endif /* (COM_EP_MANAGEMENT_MANUAL) */
1603:Generated_Source\PSoC5/COM.c ****     }
1604:Generated_Source\PSoC5/COM.c **** }
 913              		.loc 1 1604 0
 914 007e F0BC     		pop	{r4, r5, r6, r7}
 915              		.cfi_restore 7
 916              		.cfi_restore 6
 917              		.cfi_restore 5
 918              		.cfi_restore 4
 919              		.cfi_def_cfa_offset 0
 920              	.L58:
 921 0080 7047     		bx	lr
 922              	.L60:
 923 0082 00BF     		.align	2
 924              	.L59:
 925 0084 00000000 		.word	COM_EP
 926 0088 FC5F0040 		.word	1073766396
 927 008c 78600040 		.word	1073766520
 928 0090 FE5F0040 		.word	1073766398
 929              		.cfi_endproc
 930              	.LFE11:
 931              		.size	COM_LoadInEP, .-COM_LoadInEP
 932              		.section	.text.COM_EnableOutEP,"ax",%progbits
 933              		.align	2
 934              		.global	COM_EnableOutEP
 935              		.thumb
 936              		.thumb_func
 937              		.type	COM_EnableOutEP, %function
 938              	COM_EnableOutEP:
 939              	.LFB13:
1605:Generated_Source\PSoC5/COM.c **** 
1606:Generated_Source\PSoC5/COM.c **** 
1607:Generated_Source\PSoC5/COM.c **** /*******************************************************************************
1608:Generated_Source\PSoC5/COM.c **** * Function Name: COM_ReadOutEP
1609:Generated_Source\PSoC5/COM.c **** ****************************************************************************//**
1610:Generated_Source\PSoC5/COM.c **** *
1611:Generated_Source\PSoC5/COM.c **** *   This function performs different functionality depending on the Component’s
1612:Generated_Source\PSoC5/COM.c **** *   configured Endpoint Buffer Management. This parameter is defined in the
1613:Generated_Source\PSoC5/COM.c **** *   Descriptor Root in Component Configure window.
1614:Generated_Source\PSoC5/COM.c **** *
1615:Generated_Source\PSoC5/COM.c **** *   *Manual (Static/Dynamic Allocation):*
1616:Generated_Source\PSoC5/COM.c **** *   This function moves the specified number of bytes from endpoint buffer to
ARM GAS  C:\Users\LUKASC~1\AppData\Local\Temp\ccb2ZD5o.s 			page 46


1617:Generated_Source\PSoC5/COM.c **** *   system RAM. The number of bytes actually transferred from endpoint buffer to
1618:Generated_Source\PSoC5/COM.c **** *   system RAM is the lesser of the actual number of bytes sent by the host or
1619:Generated_Source\PSoC5/COM.c **** *   the number of bytes requested by the length parameter.
1620:Generated_Source\PSoC5/COM.c **** *
1621:Generated_Source\PSoC5/COM.c **** *   *DMA with Manual Buffer Management:*
1622:Generated_Source\PSoC5/COM.c **** *   Configure DMA to transfer data from endpoint buffer to system RAM. Generate
1623:Generated_Source\PSoC5/COM.c **** *   a DMA request. The firmware must wait until the DMA completes the data
1624:Generated_Source\PSoC5/COM.c **** *   transfer after calling the COM_ReadOutEP() API. For example,
1625:Generated_Source\PSoC5/COM.c **** *   by checking EPstate:
1626:Generated_Source\PSoC5/COM.c **** *
1627:Generated_Source\PSoC5/COM.c **** *   \snippet /USBFS_sut_02.cydsn/main.c checking EPstatey
1628:Generated_Source\PSoC5/COM.c **** *
1629:Generated_Source\PSoC5/COM.c **** *   The USBFS_EnableOutEP() has to be called to allow host to write data into
1630:Generated_Source\PSoC5/COM.c **** *   the endpoint buffer after DMA has completed transfer data from OUT endpoint
1631:Generated_Source\PSoC5/COM.c **** *   buffer to SRAM.
1632:Generated_Source\PSoC5/COM.c **** *
1633:Generated_Source\PSoC5/COM.c **** *   *DMA with Automatic Buffer Management:*
1634:Generated_Source\PSoC5/COM.c **** *   Configure DMA. This is required only once and automatically generates DMA
1635:Generated_Source\PSoC5/COM.c **** *   requests as data arrives
1636:Generated_Source\PSoC5/COM.c **** *
1637:Generated_Source\PSoC5/COM.c **** *  \param epNumber: Contains the data endpoint number.
1638:Generated_Source\PSoC5/COM.c **** *            Valid values are between 1 and 8.
1639:Generated_Source\PSoC5/COM.c **** *  \param pData: A pointer to a data array from which the data for the endpoint
1640:Generated_Source\PSoC5/COM.c **** *         space is loaded.
1641:Generated_Source\PSoC5/COM.c **** *  \param length: The number of bytes to transfer from the USB Out endpoint and
1642:Generated_Source\PSoC5/COM.c **** *          loads it into data array. Valid values are between 0 and 1023. The
1643:Generated_Source\PSoC5/COM.c **** *          function moves fewer than the requested number of bytes if the host
1644:Generated_Source\PSoC5/COM.c **** *          sends fewer bytes than requested.
1645:Generated_Source\PSoC5/COM.c **** *
1646:Generated_Source\PSoC5/COM.c **** * \return
1647:Generated_Source\PSoC5/COM.c **** *  Number of bytes received, 0 for an invalid endpoint.
1648:Generated_Source\PSoC5/COM.c **** *
1649:Generated_Source\PSoC5/COM.c **** * \reentrant
1650:Generated_Source\PSoC5/COM.c **** *  No.
1651:Generated_Source\PSoC5/COM.c **** *
1652:Generated_Source\PSoC5/COM.c **** *******************************************************************************/
1653:Generated_Source\PSoC5/COM.c **** uint16 COM_ReadOutEP(uint8 epNumber, uint8 pData[], uint16 length)
1654:Generated_Source\PSoC5/COM.c ****                                                                         
1655:Generated_Source\PSoC5/COM.c **** {
1656:Generated_Source\PSoC5/COM.c ****     if ((pData != NULL) && (epNumber > COM_EP0) && (epNumber < COM_MAX_EP))
1657:Generated_Source\PSoC5/COM.c ****     {
1658:Generated_Source\PSoC5/COM.c ****     #if (!COM_EP_MANAGEMENT_DMA_AUTO)
1659:Generated_Source\PSoC5/COM.c ****         /* Adjust requested length to available data. */
1660:Generated_Source\PSoC5/COM.c ****         length = (length > COM_GetEPCount(epNumber)) ? COM_GetEPCount(epNumber) : length;
1661:Generated_Source\PSoC5/COM.c ****     #endif /* (!COM_EP_MANAGEMENT_DMA_AUTO) */
1662:Generated_Source\PSoC5/COM.c **** 
1663:Generated_Source\PSoC5/COM.c ****     #if (COM_EP_MANAGEMENT_MANUAL)
1664:Generated_Source\PSoC5/COM.c ****         {
1665:Generated_Source\PSoC5/COM.c ****             /* Copy data using arbiter data register. */
1666:Generated_Source\PSoC5/COM.c ****             uint16 i;
1667:Generated_Source\PSoC5/COM.c ****             for (i = 0u; i < length; ++i)
1668:Generated_Source\PSoC5/COM.c ****             {
1669:Generated_Source\PSoC5/COM.c ****                 pData[i] = (uint8) COM_ARB_EP_BASE.arbEp[epNumber].rwDr;
1670:Generated_Source\PSoC5/COM.c ****             }
1671:Generated_Source\PSoC5/COM.c ****         }
1672:Generated_Source\PSoC5/COM.c **** 
1673:Generated_Source\PSoC5/COM.c ****         /* Arm OUT endpoint after data has been copied from endpoint buffer. */
ARM GAS  C:\Users\LUKASC~1\AppData\Local\Temp\ccb2ZD5o.s 			page 47


1674:Generated_Source\PSoC5/COM.c ****         COM_EnableOutEP(epNumber);
1675:Generated_Source\PSoC5/COM.c ****     #else
1676:Generated_Source\PSoC5/COM.c **** 
1677:Generated_Source\PSoC5/COM.c ****         #if (CY_PSOC3 || CY_PSOC5LP)
1678:Generated_Source\PSoC5/COM.c ****             /* Initialize DMA if it was not initialized. */
1679:Generated_Source\PSoC5/COM.c ****             if (DMA_INVALID_TD == COM_DmaTd[epNumber])
1680:Generated_Source\PSoC5/COM.c ****             {
1681:Generated_Source\PSoC5/COM.c ****                 COM_InitEP_DMA(epNumber, pData);
1682:Generated_Source\PSoC5/COM.c ****             }
1683:Generated_Source\PSoC5/COM.c ****         #endif /* (CY_PSOC3 || CY_PSOC5LP) */
1684:Generated_Source\PSoC5/COM.c **** 
1685:Generated_Source\PSoC5/COM.c ****         #if (COM_EP_MANAGEMENT_DMA_MANUAL)
1686:Generated_Source\PSoC5/COM.c ****         #if (CY_PSOC4)
1687:Generated_Source\PSoC5/COM.c ****         {
1688:Generated_Source\PSoC5/COM.c ****             uint32 channelNum = (uint32) COM_DmaChan[epNumber];
1689:Generated_Source\PSoC5/COM.c **** 
1690:Generated_Source\PSoC5/COM.c ****             /* Disable DMA channel: start configuration. */
1691:Generated_Source\PSoC5/COM.c ****             COM_CyDmaChDisable(channelNum);
1692:Generated_Source\PSoC5/COM.c **** 
1693:Generated_Source\PSoC5/COM.c ****             /* Configure source and destination. */
1694:Generated_Source\PSoC5/COM.c ****             COM_CyDmaSetSrcAddress(channelNum, COM_DMA_DESCR0, (void*) &COM_ARB_EP_BASE.arbEp[epNum
1695:Generated_Source\PSoC5/COM.c ****             COM_CyDmaSetDstAddress(channelNum, COM_DMA_DESCR0, (void*) pData);
1696:Generated_Source\PSoC5/COM.c **** 
1697:Generated_Source\PSoC5/COM.c ****             /* Configure DMA descriptor. */
1698:Generated_Source\PSoC5/COM.c ****             COM_CyDmaSetConfiguration(channelNum, COM_DMA_DESCR0, COM_DMA_COMMON_CFG | (uint16)(len
1699:Generated_Source\PSoC5/COM.c ****                                                     CYDMA_BYTE | CYDMA_WORD_ELEMENT | CYDMA_INC_DST
1700:Generated_Source\PSoC5/COM.c **** 
1701:Generated_Source\PSoC5/COM.c ****             /* Validate descriptor to execute on following DMA request. */
1702:Generated_Source\PSoC5/COM.c ****             COM_CyDmaValidateDescriptor(channelNum, COM_DMA_DESCR0);
1703:Generated_Source\PSoC5/COM.c **** 
1704:Generated_Source\PSoC5/COM.c ****             /* Enable DMA channel: configuration complete. */
1705:Generated_Source\PSoC5/COM.c ****             COM_CyDmaChEnable(channelNum);
1706:Generated_Source\PSoC5/COM.c ****         }
1707:Generated_Source\PSoC5/COM.c ****         #else
1708:Generated_Source\PSoC5/COM.c ****             /* Configure DMA to transfer data. */
1709:Generated_Source\PSoC5/COM.c ****             (void) CyDmaChDisable(COM_DmaChan[epNumber]);
1710:Generated_Source\PSoC5/COM.c ****             (void) CyDmaTdSetConfiguration(COM_DmaTd[epNumber], length, CY_DMA_DISABLE_TD, TD_TERMI
1711:Generated_Source\PSoC5/COM.c ****             (void) CyDmaTdSetAddress(COM_DmaTd[epNumber], LO16((uint32) &COM_ARB_EP_BASE.arbEp[epNu
1712:Generated_Source\PSoC5/COM.c **** 
1713:Generated_Source\PSoC5/COM.c ****             /* Enable DMA channel. */
1714:Generated_Source\PSoC5/COM.c ****             (void) CyDmaChSetInitialTd(COM_DmaChan[epNumber], COM_DmaTd[epNumber]);
1715:Generated_Source\PSoC5/COM.c ****             (void) CyDmaChEnable(COM_DmaChan[epNumber], 1u);
1716:Generated_Source\PSoC5/COM.c ****         #endif /* (CY_PSOC4) */
1717:Generated_Source\PSoC5/COM.c **** 
1718:Generated_Source\PSoC5/COM.c ****             /* Generate DMA request. */
1719:Generated_Source\PSoC5/COM.c ****             COM_ARB_EP_BASE.arbEp[epNumber].epCfg |=  (uint8)  COM_ARB_EPX_CFG_DMA_REQ;
1720:Generated_Source\PSoC5/COM.c ****             COM_ARB_EP_BASE.arbEp[epNumber].epCfg &=  (uint8) ~COM_ARB_EPX_CFG_DMA_REQ;
1721:Generated_Source\PSoC5/COM.c **** 
1722:Generated_Source\PSoC5/COM.c ****             /* OUT endpoint has to be armed again by user when DMA transfers have been completed.
1723:Generated_Source\PSoC5/COM.c ****             * NO_EVENT_PENDING: notifies that data has been copied from endpoint buffer.
1724:Generated_Source\PSoC5/COM.c ****             */
1725:Generated_Source\PSoC5/COM.c **** 
1726:Generated_Source\PSoC5/COM.c ****         #endif /* (COM_EP_MANAGEMENT_DMA_MANUAL) */
1727:Generated_Source\PSoC5/COM.c **** 
1728:Generated_Source\PSoC5/COM.c ****         #if (COM_EP_MANAGEMENT_DMA_AUTO)
1729:Generated_Source\PSoC5/COM.c ****         #if (CY_PSOC4)
1730:Generated_Source\PSoC5/COM.c ****         {
ARM GAS  C:\Users\LUKASC~1\AppData\Local\Temp\ccb2ZD5o.s 			page 48


1731:Generated_Source\PSoC5/COM.c ****             uint32 channelNum = (uint32) COM_DmaChan[epNumber];
1732:Generated_Source\PSoC5/COM.c ****             uint32 lengthDescr0, lengthDescr1;
1733:Generated_Source\PSoC5/COM.c **** 
1734:Generated_Source\PSoC5/COM.c ****             /* Get number of full bursts. */
1735:Generated_Source\PSoC5/COM.c ****             COM_DmaEpBurstCnt[epNumber] = (uint8) (length / COM_DMA_BYTES_PER_BURST);
1736:Generated_Source\PSoC5/COM.c **** 
1737:Generated_Source\PSoC5/COM.c ****             /* Get number of elements in the last burst. */
1738:Generated_Source\PSoC5/COM.c ****             COM_DmaEpLastBurstEl[epNumber] = (uint8) (length % COM_DMA_BYTES_PER_BURST);
1739:Generated_Source\PSoC5/COM.c **** 
1740:Generated_Source\PSoC5/COM.c ****             /* Get total number of bursts. */
1741:Generated_Source\PSoC5/COM.c ****             COM_DmaEpBurstCnt[epNumber] += (0u != COM_DmaEpLastBurstEl[epNumber]) ? 1u : 0u;
1742:Generated_Source\PSoC5/COM.c **** 
1743:Generated_Source\PSoC5/COM.c ****             /* Adjust number of the data elements transfered in last burst. */
1744:Generated_Source\PSoC5/COM.c ****             COM_DmaEpLastBurstEl[epNumber] = (0u != COM_DmaEpLastBurstEl[epNumber]) ?
1745:Generated_Source\PSoC5/COM.c ****                                                                   (COM_DmaEpLastBurstEl[epNumber] -
1746:Generated_Source\PSoC5/COM.c ****                                                                   (COM_DMA_BYTES_PER_BURST - 1u);
1747:Generated_Source\PSoC5/COM.c **** 
1748:Generated_Source\PSoC5/COM.c ****             /* Get number of data elements to transfer for descriptor 0 and 1. */
1749:Generated_Source\PSoC5/COM.c ****             lengthDescr0 = (1u == COM_DmaEpBurstCnt[epNumber]) ? COM_DmaEpLastBurstEl[epNumber] : (
1750:Generated_Source\PSoC5/COM.c ****             lengthDescr1 = (2u == COM_DmaEpBurstCnt[epNumber]) ? COM_DmaEpLastBurstEl[epNumber] : (
1751:Generated_Source\PSoC5/COM.c **** 
1752:Generated_Source\PSoC5/COM.c ****             /* Mark if revert number of data elements in descriptor after transfer completion. */
1753:Generated_Source\PSoC5/COM.c ****             COM_DmaEpLastBurstEl[epNumber] |= (COM_DmaEpBurstCnt[epNumber] > 2u) ? COM_DMA_DESCR_RE
1754:Generated_Source\PSoC5/COM.c **** 
1755:Generated_Source\PSoC5/COM.c ****             /* Mark last descriptor to be executed. */
1756:Generated_Source\PSoC5/COM.c ****             COM_DmaEpLastBurstEl[epNumber] |= (0u != (COM_DmaEpBurstCnt[epNumber] & 0x1u)) ?
1757:Generated_Source\PSoC5/COM.c ****                                                                     COM_DMA_DESCR0_MASK : COM_DMA_D
1758:Generated_Source\PSoC5/COM.c **** 
1759:Generated_Source\PSoC5/COM.c ****             /* Store address of buffer and burst counter for endpoint. */
1760:Generated_Source\PSoC5/COM.c ****             COM_DmaEpBufferAddrBackup[epNumber] = (uint32) pData;
1761:Generated_Source\PSoC5/COM.c ****             COM_DmaEpBurstCntBackup[epNumber]   = COM_DmaEpBurstCnt[epNumber];
1762:Generated_Source\PSoC5/COM.c **** 
1763:Generated_Source\PSoC5/COM.c ****             /* Adjust burst counter taking to account: 2 valid descriptors and interrupt trigger af
1764:Generated_Source\PSoC5/COM.c ****             COM_DmaEpBurstCnt[epNumber] = COM_DMA_GET_BURST_CNT(COM_DmaEpBurstCnt[epNumber]);
1765:Generated_Source\PSoC5/COM.c **** 
1766:Generated_Source\PSoC5/COM.c ****             /* Disable DMA channel: start configuration. */
1767:Generated_Source\PSoC5/COM.c ****             COM_CyDmaChDisable(channelNum);
1768:Generated_Source\PSoC5/COM.c **** 
1769:Generated_Source\PSoC5/COM.c ****             /* Set destination address. */
1770:Generated_Source\PSoC5/COM.c ****             COM_CyDmaSetSrcAddress(channelNum, COM_DMA_DESCR0, (void*) &COM_ARB_EP_BASE.arbEp[epNum
1771:Generated_Source\PSoC5/COM.c ****             COM_CyDmaSetSrcAddress(channelNum, COM_DMA_DESCR1, (void*) &COM_ARB_EP_BASE.arbEp[epNum
1772:Generated_Source\PSoC5/COM.c **** 
1773:Generated_Source\PSoC5/COM.c ****             COM_CyDmaSetDstAddress(channelNum, COM_DMA_DESCR0, (void*) ((uint32) pData));
1774:Generated_Source\PSoC5/COM.c ****             COM_CyDmaSetDstAddress(channelNum, COM_DMA_DESCR1, (void*) ((uint32) pData + COM_DMA_BY
1775:Generated_Source\PSoC5/COM.c **** 
1776:Generated_Source\PSoC5/COM.c ****             /* Configure DMA descriptor. */
1777:Generated_Source\PSoC5/COM.c ****             COM_CyDmaSetConfiguration(channelNum, COM_DMA_DESCR0, COM_DMA_COMMON_CFG  | lengthDescr
1778:Generated_Source\PSoC5/COM.c ****                                                     CYDMA_BYTE | CYDMA_WORD_ELEMENT | CYDMA_INC_DST
1779:Generated_Source\PSoC5/COM.c **** 
1780:Generated_Source\PSoC5/COM.c ****             /* Configure DMA descriptor. */
1781:Generated_Source\PSoC5/COM.c ****             COM_CyDmaSetConfiguration(channelNum, COM_DMA_DESCR1, COM_DMA_COMMON_CFG  | lengthDescr
1782:Generated_Source\PSoC5/COM.c ****                                                     CYDMA_BYTE | CYDMA_WORD_ELEMENT | CYDMA_INC_DST
1783:Generated_Source\PSoC5/COM.c **** 
1784:Generated_Source\PSoC5/COM.c ****             /* Enable interrupt from DMA channel. */
1785:Generated_Source\PSoC5/COM.c ****             COM_CyDmaSetInterruptMask(channelNum);
1786:Generated_Source\PSoC5/COM.c **** 
1787:Generated_Source\PSoC5/COM.c ****             /* Validate DMA descriptor 0 and 1. */
ARM GAS  C:\Users\LUKASC~1\AppData\Local\Temp\ccb2ZD5o.s 			page 49


1788:Generated_Source\PSoC5/COM.c ****             COM_CyDmaValidateDescriptor(channelNum, COM_DMA_DESCR0);
1789:Generated_Source\PSoC5/COM.c **** 
1790:Generated_Source\PSoC5/COM.c ****             if (COM_DmaEpBurstCntBackup[epNumber] > 1u)
1791:Generated_Source\PSoC5/COM.c ****             {
1792:Generated_Source\PSoC5/COM.c ****                 COM_CyDmaValidateDescriptor(channelNum, COM_DMA_DESCR1);
1793:Generated_Source\PSoC5/COM.c ****             }
1794:Generated_Source\PSoC5/COM.c **** 
1795:Generated_Source\PSoC5/COM.c ****             /* Enable DMA channel: configuration complete. */
1796:Generated_Source\PSoC5/COM.c ****             COM_CyDmaChEnable(channelNum);
1797:Generated_Source\PSoC5/COM.c ****         }
1798:Generated_Source\PSoC5/COM.c ****         #else
1799:Generated_Source\PSoC5/COM.c ****             (void) CyDmaChDisable(COM_DmaChan[epNumber]);
1800:Generated_Source\PSoC5/COM.c ****             (void) CyDmaTdSetConfiguration(COM_DmaTd[epNumber], length,  COM_DmaTd[epNumber], TD_TE
1801:Generated_Source\PSoC5/COM.c ****             (void) CyDmaTdSetAddress(COM_DmaTd[epNumber], LO16((uint32) &COM_ARB_EP_BASE.arbEp[epNu
1802:Generated_Source\PSoC5/COM.c **** 
1803:Generated_Source\PSoC5/COM.c ****             /* Clear Any potential pending DMA requests before starting DMA channel to transfer dat
1804:Generated_Source\PSoC5/COM.c ****             (void) CyDmaClearPendingDrq(COM_DmaChan[epNumber]);
1805:Generated_Source\PSoC5/COM.c **** 
1806:Generated_Source\PSoC5/COM.c ****             /* Enable DMA channel. */
1807:Generated_Source\PSoC5/COM.c ****             (void) CyDmaChSetInitialTd(COM_DmaChan[epNumber], COM_DmaTd[epNumber]);
1808:Generated_Source\PSoC5/COM.c ****             (void) CyDmaChEnable(COM_DmaChan[epNumber], 1u);
1809:Generated_Source\PSoC5/COM.c ****         #endif /* (CY_PSOC4) */
1810:Generated_Source\PSoC5/COM.c **** 
1811:Generated_Source\PSoC5/COM.c ****             /* OUT endpoint has to be armed again by user when DMA transfers have been completed.
1812:Generated_Source\PSoC5/COM.c ****             * NO_EVENT_PENDING: notifies that data has been copied from endpoint buffer.
1813:Generated_Source\PSoC5/COM.c ****             */
1814:Generated_Source\PSoC5/COM.c **** 
1815:Generated_Source\PSoC5/COM.c ****         #endif /* (COM_EP_MANAGEMENT_DMA_AUTO) */
1816:Generated_Source\PSoC5/COM.c ****     #endif /* (COM_EP_MANAGEMENT_MANUAL) */
1817:Generated_Source\PSoC5/COM.c ****     }
1818:Generated_Source\PSoC5/COM.c ****     else
1819:Generated_Source\PSoC5/COM.c ****     {
1820:Generated_Source\PSoC5/COM.c ****         length = 0u;
1821:Generated_Source\PSoC5/COM.c ****     }
1822:Generated_Source\PSoC5/COM.c **** 
1823:Generated_Source\PSoC5/COM.c ****     return (length);
1824:Generated_Source\PSoC5/COM.c **** }
1825:Generated_Source\PSoC5/COM.c **** 
1826:Generated_Source\PSoC5/COM.c **** 
1827:Generated_Source\PSoC5/COM.c **** #if (COM_16BITS_EP_ACCESS_ENABLE)
1828:Generated_Source\PSoC5/COM.c **** /*******************************************************************************
1829:Generated_Source\PSoC5/COM.c **** * Function Name: COM_LoadInEP16
1830:Generated_Source\PSoC5/COM.c **** ****************************************************************************//**
1831:Generated_Source\PSoC5/COM.c **** *
1832:Generated_Source\PSoC5/COM.c **** *  This function performs different functionality depending on the Component’s
1833:Generated_Source\PSoC5/COM.c **** *  configured Endpoint Buffer Management. This parameter is defined in
1834:Generated_Source\PSoC5/COM.c **** *  the Descriptor Root in Component Configure window.
1835:Generated_Source\PSoC5/COM.c **** *
1836:Generated_Source\PSoC5/COM.c **** *  *Manual (Static/Dynamic Allocation):*
1837:Generated_Source\PSoC5/COM.c **** *  This function loads and enables the specified USB data endpoint for an IN
1838:Generated_Source\PSoC5/COM.c **** *  data transfer.
1839:Generated_Source\PSoC5/COM.c **** *
1840:Generated_Source\PSoC5/COM.c **** *  *DMA with Manual Buffer Management:*
1841:Generated_Source\PSoC5/COM.c **** *  Configures DMA for a data transfer from system RAM to endpoint buffer.
1842:Generated_Source\PSoC5/COM.c **** *  Generates request for a transfer.
1843:Generated_Source\PSoC5/COM.c **** *
1844:Generated_Source\PSoC5/COM.c **** *  *DMA with Automatic Buffer Management:*
ARM GAS  C:\Users\LUKASC~1\AppData\Local\Temp\ccb2ZD5o.s 			page 50


1845:Generated_Source\PSoC5/COM.c **** *  Configures DMA. This is required only once, so it is done only when parameter
1846:Generated_Source\PSoC5/COM.c **** *  pData is not NULL. When the pData pointer is NULL, the function skips this
1847:Generated_Source\PSoC5/COM.c **** *  task. Sets Data ready status: This generates the first DMA transfer and
1848:Generated_Source\PSoC5/COM.c **** *  prepares data in endpoint buffer.
1849:Generated_Source\PSoC5/COM.c **** *
1850:Generated_Source\PSoC5/COM.c **** *  \param epNumber Contains the data endpoint number.
1851:Generated_Source\PSoC5/COM.c **** *        Valid values are between 1 and 8.
1852:Generated_Source\PSoC5/COM.c **** *  \param *pData A pointer to a data array from which the data for the endpoint
1853:Generated_Source\PSoC5/COM.c **** *        space is loaded. It shall be ensured that this pointer address is even
1854:Generated_Source\PSoC5/COM.c **** *        to ensure the 16-bit transfer is aligned to even address. Else, a hard
1855:Generated_Source\PSoC5/COM.c **** *        fault condition can occur.
1856:Generated_Source\PSoC5/COM.c **** *  \param length The number of bytes to transfer from the array and then send as
1857:Generated_Source\PSoC5/COM.c **** *        a result of an IN request. Valid values are between 0 and 512 (1023 for
1858:Generated_Source\PSoC5/COM.c **** *        DMA with Automatic Buffer Management mode). The value 512 is applicable
1859:Generated_Source\PSoC5/COM.c **** *        if only one endpoint is used.
1860:Generated_Source\PSoC5/COM.c **** *
1861:Generated_Source\PSoC5/COM.c **** * \reentrant
1862:Generated_Source\PSoC5/COM.c **** *  No.
1863:Generated_Source\PSoC5/COM.c **** *
1864:Generated_Source\PSoC5/COM.c **** *******************************************************************************/
1865:Generated_Source\PSoC5/COM.c **** void COM_LoadInEP16(uint8 epNumber, const uint8 pData[], uint16 length)
1866:Generated_Source\PSoC5/COM.c **** {
1867:Generated_Source\PSoC5/COM.c ****     /* Check array alignment on half-word boundary. */
1868:Generated_Source\PSoC5/COM.c ****     CYASSERT(0u == (((uint32) pData) & 0x01u));
1869:Generated_Source\PSoC5/COM.c **** 
1870:Generated_Source\PSoC5/COM.c ****     if ((epNumber > COM_EP0) && (epNumber < COM_MAX_EP))
1871:Generated_Source\PSoC5/COM.c ****     {
1872:Generated_Source\PSoC5/COM.c ****     #if (!COM_EP_MANAGEMENT_DMA_AUTO)
1873:Generated_Source\PSoC5/COM.c ****         /* Limit length to available buffer USB IP buffer size. */
1874:Generated_Source\PSoC5/COM.c ****         if (length > (COM_EPX_DATA_BUF_MAX - COM_EP[epNumber].buffOffset))
1875:Generated_Source\PSoC5/COM.c ****         {
1876:Generated_Source\PSoC5/COM.c ****             length = COM_EPX_DATA_BUF_MAX - COM_EP[epNumber].buffOffset;
1877:Generated_Source\PSoC5/COM.c ****         }
1878:Generated_Source\PSoC5/COM.c ****     #endif /* (!COM_EP_MANAGEMENT_DMA_AUTO) */
1879:Generated_Source\PSoC5/COM.c **** 
1880:Generated_Source\PSoC5/COM.c ****         /* Set count and data toggle. */
1881:Generated_Source\PSoC5/COM.c ****         COM_SIE_EP_BASE.sieEp[epNumber].epCnt0 = (uint32) HI8(length) | COM_EP[epNumber].epToggle;
1882:Generated_Source\PSoC5/COM.c ****         COM_SIE_EP_BASE.sieEp[epNumber].epCnt1 = (uint32) LO8(length);
1883:Generated_Source\PSoC5/COM.c **** 
1884:Generated_Source\PSoC5/COM.c ****         /* Adjust requested length: 2 bytes are handled at one data register access. */
1885:Generated_Source\PSoC5/COM.c ****         length += (length & 0x01u);
1886:Generated_Source\PSoC5/COM.c **** 
1887:Generated_Source\PSoC5/COM.c ****     #if (COM_EP_MANAGEMENT_MANUAL)
1888:Generated_Source\PSoC5/COM.c ****         if (NULL != pData)
1889:Generated_Source\PSoC5/COM.c ****         {
1890:Generated_Source\PSoC5/COM.c ****             /* Convert uint8 array to uint16. */
1891:Generated_Source\PSoC5/COM.c ****             const uint16 *dataBuf = (uint16 *) pData;
1892:Generated_Source\PSoC5/COM.c **** 
1893:Generated_Source\PSoC5/COM.c ****             /* Copy data using 16-bits arbiter data register. */
1894:Generated_Source\PSoC5/COM.c ****             uint16 i;
1895:Generated_Source\PSoC5/COM.c ****             for (i = 0u; i < (length >> 1u); ++i)
1896:Generated_Source\PSoC5/COM.c ****             {
1897:Generated_Source\PSoC5/COM.c ****                 COM_ARB_EP16_BASE.arbEp[epNumber].rwDr16 = dataBuf[i];
1898:Generated_Source\PSoC5/COM.c ****             }
1899:Generated_Source\PSoC5/COM.c ****         }
1900:Generated_Source\PSoC5/COM.c **** 
1901:Generated_Source\PSoC5/COM.c ****         /* IN endpoint buffer is full - read to be read. */
ARM GAS  C:\Users\LUKASC~1\AppData\Local\Temp\ccb2ZD5o.s 			page 51


1902:Generated_Source\PSoC5/COM.c ****         COM_EP[epNumber].apiEpState = COM_NO_EVENT_PENDING;
1903:Generated_Source\PSoC5/COM.c **** 
1904:Generated_Source\PSoC5/COM.c ****         /* Arm IN endpoint. */
1905:Generated_Source\PSoC5/COM.c ****         COM_SIE_EP_BASE.sieEp[epNumber].epCr0 = COM_EP[epNumber].epMode;
1906:Generated_Source\PSoC5/COM.c **** 
1907:Generated_Source\PSoC5/COM.c ****     #else
1908:Generated_Source\PSoC5/COM.c **** 
1909:Generated_Source\PSoC5/COM.c ****         #if (COM_EP_MANAGEMENT_DMA_MANUAL)
1910:Generated_Source\PSoC5/COM.c ****             /* IN endpoint buffer will be fully loaded by DMA shortly. */
1911:Generated_Source\PSoC5/COM.c ****             COM_EP[epNumber].apiEpState = COM_NO_EVENT_PENDING;
1912:Generated_Source\PSoC5/COM.c **** 
1913:Generated_Source\PSoC5/COM.c ****             if ((pData != NULL) && (length > 0u))
1914:Generated_Source\PSoC5/COM.c ****             {
1915:Generated_Source\PSoC5/COM.c ****                 uint32 channelNum = (uint32) COM_DmaChan[epNumber];
1916:Generated_Source\PSoC5/COM.c **** 
1917:Generated_Source\PSoC5/COM.c ****                 /* Disable DMA channel: start configuration. */
1918:Generated_Source\PSoC5/COM.c ****                 COM_CyDmaChDisable(channelNum);
1919:Generated_Source\PSoC5/COM.c **** 
1920:Generated_Source\PSoC5/COM.c ****                 /* Configure source and destination. */
1921:Generated_Source\PSoC5/COM.c ****                 COM_CyDmaSetSrcAddress(channelNum, COM_DMA_DESCR0, (void*) pData);
1922:Generated_Source\PSoC5/COM.c ****                 COM_CyDmaSetDstAddress(channelNum, COM_DMA_DESCR0, (void*) &COM_ARB_EP16_BASE.arbEp
1923:Generated_Source\PSoC5/COM.c **** 
1924:Generated_Source\PSoC5/COM.c ****                 /* Configure DMA descriptor. */
1925:Generated_Source\PSoC5/COM.c ****                 length = (length >> 1u) - 1u;
1926:Generated_Source\PSoC5/COM.c ****                 COM_CyDmaSetConfiguration(channelNum, COM_DMA_DESCR0, COM_DMA_COMMON_CFG | length |
1927:Generated_Source\PSoC5/COM.c ****                                                         CYDMA_HALFWORD | CYDMA_ELEMENT_WORD | CYDMA
1928:Generated_Source\PSoC5/COM.c **** 
1929:Generated_Source\PSoC5/COM.c ****                 /* Validate descriptor to execute on following DMA request. */
1930:Generated_Source\PSoC5/COM.c ****                 COM_CyDmaValidateDescriptor(channelNum, COM_DMA_DESCR0);
1931:Generated_Source\PSoC5/COM.c **** 
1932:Generated_Source\PSoC5/COM.c ****                 /* Enable DMA channel: configuration complete. */
1933:Generated_Source\PSoC5/COM.c ****                 COM_CyDmaChEnable(channelNum);
1934:Generated_Source\PSoC5/COM.c **** 
1935:Generated_Source\PSoC5/COM.c ****                 /* Generate DMA request. */
1936:Generated_Source\PSoC5/COM.c ****                 COM_ARB_EP_BASE.arbEp[epNumber].epCfg |=  (uint32)  COM_ARB_EPX_CFG_DMA_REQ;
1937:Generated_Source\PSoC5/COM.c ****                 COM_ARB_EP_BASE.arbEp[epNumber].epCfg &=  (uint32) ~COM_ARB_EPX_CFG_DMA_REQ;
1938:Generated_Source\PSoC5/COM.c **** 
1939:Generated_Source\PSoC5/COM.c ****                 /* IN endpoint will be armed in ARB_ISR(source: IN_BUF_FULL) after first DMA transf
1940:Generated_Source\PSoC5/COM.c ****             }
1941:Generated_Source\PSoC5/COM.c ****             else
1942:Generated_Source\PSoC5/COM.c ****             {
1943:Generated_Source\PSoC5/COM.c ****                 /* When zero-length packet: arm IN endpoint directly. */
1944:Generated_Source\PSoC5/COM.c ****                 COM_SIE_EP_BASE.sieEp[epNumber].epCr0 = COM_EP[epNumber].epMode;
1945:Generated_Source\PSoC5/COM.c ****             }
1946:Generated_Source\PSoC5/COM.c ****         #endif /* (COM_EP_MANAGEMENT_DMA_MANUAL) */
1947:Generated_Source\PSoC5/COM.c **** 
1948:Generated_Source\PSoC5/COM.c ****         #if (COM_EP_MANAGEMENT_DMA_AUTO)
1949:Generated_Source\PSoC5/COM.c ****             if (pData != NULL)
1950:Generated_Source\PSoC5/COM.c ****             {
1951:Generated_Source\PSoC5/COM.c ****                 uint32 channelNum = (uint32) COM_DmaChan[epNumber];
1952:Generated_Source\PSoC5/COM.c **** 
1953:Generated_Source\PSoC5/COM.c ****                 /* Store address of buffer. */
1954:Generated_Source\PSoC5/COM.c ****                 COM_DmaEpBufferAddrBackup[epNumber] = (uint32) pData;
1955:Generated_Source\PSoC5/COM.c **** 
1956:Generated_Source\PSoC5/COM.c ****                 /* Disable DMA channel: start configuration. */
1957:Generated_Source\PSoC5/COM.c ****                 COM_CyDmaChDisable(channelNum);
1958:Generated_Source\PSoC5/COM.c **** 
ARM GAS  C:\Users\LUKASC~1\AppData\Local\Temp\ccb2ZD5o.s 			page 52


1959:Generated_Source\PSoC5/COM.c ****                 /* Set destination address. */
1960:Generated_Source\PSoC5/COM.c ****                 COM_CyDmaSetDstAddress(channelNum, COM_DMA_DESCR0, (void*) &COM_ARB_EP16_BASE.arbEp
1961:Generated_Source\PSoC5/COM.c ****                 COM_CyDmaSetDstAddress(channelNum, COM_DMA_DESCR1, (void*) &COM_ARB_EP16_BASE.arbEp
1962:Generated_Source\PSoC5/COM.c **** 
1963:Generated_Source\PSoC5/COM.c ****                 /* Configure DMA descriptor. */
1964:Generated_Source\PSoC5/COM.c ****                 COM_CyDmaSetConfiguration(channelNum, COM_DMA_DESCR0, COM_DMA_COMMON_CFG  |
1965:Generated_Source\PSoC5/COM.c ****                                                         CYDMA_HALFWORD | CYDMA_ELEMENT_WORD | CYDMA
1966:Generated_Source\PSoC5/COM.c **** 
1967:Generated_Source\PSoC5/COM.c ****                 /* Configure DMA descriptor. */
1968:Generated_Source\PSoC5/COM.c ****                 COM_CyDmaSetConfiguration(channelNum, COM_DMA_DESCR1, COM_DMA_COMMON_CFG  |
1969:Generated_Source\PSoC5/COM.c ****                                                         CYDMA_HALFWORD | CYDMA_ELEMENT_WORD | CYDMA
1970:Generated_Source\PSoC5/COM.c **** 
1971:Generated_Source\PSoC5/COM.c ****                 /* Enable interrupt from DMA channel. */
1972:Generated_Source\PSoC5/COM.c ****                 COM_CyDmaSetInterruptMask(channelNum);
1973:Generated_Source\PSoC5/COM.c **** 
1974:Generated_Source\PSoC5/COM.c ****                 /* Enable DMA channel: configuration complete. */
1975:Generated_Source\PSoC5/COM.c ****                 COM_CyDmaChEnable(channelNum);
1976:Generated_Source\PSoC5/COM.c ****             }
1977:Generated_Source\PSoC5/COM.c ****             else
1978:Generated_Source\PSoC5/COM.c ****             {
1979:Generated_Source\PSoC5/COM.c ****                 /* IN endpoint buffer (32 bytes) will shortly be preloaded by DMA. */
1980:Generated_Source\PSoC5/COM.c ****                 COM_EP[epNumber].apiEpState = COM_NO_EVENT_PENDING;
1981:Generated_Source\PSoC5/COM.c **** 
1982:Generated_Source\PSoC5/COM.c ****                 if (length > 0u)
1983:Generated_Source\PSoC5/COM.c ****                 {
1984:Generated_Source\PSoC5/COM.c ****                     uint32 lengthDescr0, lengthDescr1;
1985:Generated_Source\PSoC5/COM.c ****                     uint32 channelNum = (uint32) COM_DmaChan[epNumber];
1986:Generated_Source\PSoC5/COM.c **** 
1987:Generated_Source\PSoC5/COM.c ****                     /* Get number of full bursts. */
1988:Generated_Source\PSoC5/COM.c ****                     COM_DmaEpBurstCnt[epNumber] = (uint8) (length / COM_DMA_BYTES_PER_BURST);
1989:Generated_Source\PSoC5/COM.c **** 
1990:Generated_Source\PSoC5/COM.c ****                     /* Get number of elements in the last burst. */
1991:Generated_Source\PSoC5/COM.c ****                     COM_DmaEpLastBurstEl[epNumber] = (uint8) (length % COM_DMA_BYTES_PER_BURST);
1992:Generated_Source\PSoC5/COM.c **** 
1993:Generated_Source\PSoC5/COM.c ****                     /* Get total number of bursts. */
1994:Generated_Source\PSoC5/COM.c ****                     COM_DmaEpBurstCnt[epNumber] += (0u != COM_DmaEpLastBurstEl[epNumber]) ? 1u : 0u
1995:Generated_Source\PSoC5/COM.c **** 
1996:Generated_Source\PSoC5/COM.c ****                     /* Adjust number of data elements transferred in last burst. */
1997:Generated_Source\PSoC5/COM.c ****                     COM_DmaEpLastBurstEl[epNumber] = (0u != COM_DmaEpLastBurstEl[epNumber]) ?
1998:Generated_Source\PSoC5/COM.c ****                                                                           ((COM_DmaEpLastBurstEl[ep
1999:Generated_Source\PSoC5/COM.c ****                                                                            (COM_DMA_HALFWORDS_PER_B
2000:Generated_Source\PSoC5/COM.c **** 
2001:Generated_Source\PSoC5/COM.c ****                     /* Get number of data elements to transfer for descriptor 0 and 1. */
2002:Generated_Source\PSoC5/COM.c ****                     lengthDescr0 = (1u == COM_DmaEpBurstCnt[epNumber]) ? COM_DmaEpLastBurstEl[epNum
2003:Generated_Source\PSoC5/COM.c ****                     lengthDescr1 = (2u == COM_DmaEpBurstCnt[epNumber]) ? COM_DmaEpLastBurstEl[epNum
2004:Generated_Source\PSoC5/COM.c **** 
2005:Generated_Source\PSoC5/COM.c ****                     /* Mark which descriptor is last one to execute. */
2006:Generated_Source\PSoC5/COM.c ****                     COM_DmaEpLastBurstEl[epNumber] |= (0u != (COM_DmaEpBurstCnt[epNumber] & 0x1u)) 
2007:Generated_Source\PSoC5/COM.c ****                                                                             COM_DMA_DESCR0_MASK : C
2008:Generated_Source\PSoC5/COM.c **** 
2009:Generated_Source\PSoC5/COM.c ****                     /* Restore DMA settings for current transfer. */
2010:Generated_Source\PSoC5/COM.c ****                     COM_CyDmaChDisable(channelNum);
2011:Generated_Source\PSoC5/COM.c **** 
2012:Generated_Source\PSoC5/COM.c ****                     /* Restore destination address for input endpoint. */
2013:Generated_Source\PSoC5/COM.c ****                     COM_CyDmaSetSrcAddress(channelNum, COM_DMA_DESCR0, (void*) ((uint32) COM_DmaEpB
2014:Generated_Source\PSoC5/COM.c ****                     COM_CyDmaSetSrcAddress(channelNum, COM_DMA_DESCR1, (void*) ((uint32) COM_DmaEpB
2015:Generated_Source\PSoC5/COM.c ****                                                                                                    
ARM GAS  C:\Users\LUKASC~1\AppData\Local\Temp\ccb2ZD5o.s 			page 53


2016:Generated_Source\PSoC5/COM.c **** 
2017:Generated_Source\PSoC5/COM.c ****                     /* Set number of elements to transfer. */
2018:Generated_Source\PSoC5/COM.c ****                     COM_CyDmaSetNumDataElements(channelNum, COM_DMA_DESCR0, lengthDescr0);
2019:Generated_Source\PSoC5/COM.c ****                     COM_CyDmaSetNumDataElements(channelNum, COM_DMA_DESCR1, lengthDescr1);
2020:Generated_Source\PSoC5/COM.c **** 
2021:Generated_Source\PSoC5/COM.c ****                     /* Validate descriptor 0 and command to start with it. */
2022:Generated_Source\PSoC5/COM.c ****                     COM_CyDmaValidateDescriptor(channelNum, COM_DMA_DESCR0);
2023:Generated_Source\PSoC5/COM.c ****                     COM_CyDmaSetDescriptor0Next(channelNum);
2024:Generated_Source\PSoC5/COM.c **** 
2025:Generated_Source\PSoC5/COM.c ****                     /* Validate descriptor 1. */
2026:Generated_Source\PSoC5/COM.c ****                     if (COM_DmaEpBurstCnt[epNumber] > 1u)
2027:Generated_Source\PSoC5/COM.c ****                     {
2028:Generated_Source\PSoC5/COM.c ****                         COM_CyDmaValidateDescriptor(channelNum, COM_DMA_DESCR1);
2029:Generated_Source\PSoC5/COM.c ****                     }
2030:Generated_Source\PSoC5/COM.c **** 
2031:Generated_Source\PSoC5/COM.c ****                     /* Adjust burst counter taking to account: 2 valid descriptors and interrupt tr
2032:Generated_Source\PSoC5/COM.c ****                     COM_DmaEpBurstCnt[epNumber] = COM_DMA_GET_BURST_CNT(COM_DmaEpBurstCnt[epNumber]
2033:Generated_Source\PSoC5/COM.c **** 
2034:Generated_Source\PSoC5/COM.c ****                     /* Enable DMA channel: configuration complete. */
2035:Generated_Source\PSoC5/COM.c ****                     COM_CyDmaChEnable(channelNum);
2036:Generated_Source\PSoC5/COM.c **** 
2037:Generated_Source\PSoC5/COM.c ****                 #if !defined (COM_MANUAL_IN_EP_ARM)
2038:Generated_Source\PSoC5/COM.c ****                     /* Set IN data ready to generate DMA request to load data into endpoint buffer.
2039:Generated_Source\PSoC5/COM.c ****                     COM_ARB_EP_BASE.arbEp[epNumber].epCfg |= COM_ARB_EPX_CFG_IN_DATA_RDY;
2040:Generated_Source\PSoC5/COM.c ****                 #endif  /* (COM_MANUAL_IN_EP_ARM) */
2041:Generated_Source\PSoC5/COM.c **** 
2042:Generated_Source\PSoC5/COM.c ****                     /* IN endpoint will be armed in ARB_ISR(source: IN_BUF_FULL) after first DMA tr
2043:Generated_Source\PSoC5/COM.c ****                 }
2044:Generated_Source\PSoC5/COM.c ****                 else
2045:Generated_Source\PSoC5/COM.c ****                 {
2046:Generated_Source\PSoC5/COM.c ****                     /* When zero-length packet: arm IN endpoint directly. */
2047:Generated_Source\PSoC5/COM.c ****                     COM_SIE_EP_BASE.sieEp[epNumber].epCr0 = COM_EP[epNumber].epMode;
2048:Generated_Source\PSoC5/COM.c ****                 }
2049:Generated_Source\PSoC5/COM.c ****             }
2050:Generated_Source\PSoC5/COM.c ****         #endif /* (COM_EP_MANAGEMENT_DMA_AUTO) */
2051:Generated_Source\PSoC5/COM.c ****     #endif /* (COM_EP_MANAGEMENT_MANUAL) */
2052:Generated_Source\PSoC5/COM.c ****     }
2053:Generated_Source\PSoC5/COM.c **** }
2054:Generated_Source\PSoC5/COM.c **** 
2055:Generated_Source\PSoC5/COM.c **** 
2056:Generated_Source\PSoC5/COM.c **** /*******************************************************************************
2057:Generated_Source\PSoC5/COM.c **** * Function Name: COM_ReadOutEP16
2058:Generated_Source\PSoC5/COM.c **** ****************************************************************************//**
2059:Generated_Source\PSoC5/COM.c **** *
2060:Generated_Source\PSoC5/COM.c **** *   This function performs different functionality depending on the Component’s
2061:Generated_Source\PSoC5/COM.c **** *   configured Endpoint Buffer Management. This parameter is defined in the
2062:Generated_Source\PSoC5/COM.c **** *   Descriptor Root in Component Configure window.
2063:Generated_Source\PSoC5/COM.c **** *
2064:Generated_Source\PSoC5/COM.c **** *   *Manual (Static/Dynamic Allocation):*
2065:Generated_Source\PSoC5/COM.c **** *   This function moves the specified number of bytes from endpoint buffer to
2066:Generated_Source\PSoC5/COM.c **** *   system RAM. The number of bytes actually transferred from endpoint buffer to
2067:Generated_Source\PSoC5/COM.c **** *   system RAM is the lesser of the actual number of bytes sent by the host or
2068:Generated_Source\PSoC5/COM.c **** *   the number of bytes requested by the length parameter.
2069:Generated_Source\PSoC5/COM.c **** *
2070:Generated_Source\PSoC5/COM.c **** *   *DMA with Manual Buffer Management:*
2071:Generated_Source\PSoC5/COM.c **** *   Configure DMA to transfer data from endpoint buffer to system RAM. Generate
2072:Generated_Source\PSoC5/COM.c **** *   a DMA request. The firmware must wait until the DMA completes the data
ARM GAS  C:\Users\LUKASC~1\AppData\Local\Temp\ccb2ZD5o.s 			page 54


2073:Generated_Source\PSoC5/COM.c **** *   transfer after calling the COM_ReadOutEP() API. For example,
2074:Generated_Source\PSoC5/COM.c **** *   by checking EPstate:
2075:Generated_Source\PSoC5/COM.c **** *
2076:Generated_Source\PSoC5/COM.c **** *   \snippet /USBFS_sut_02.cydsn/main.c checking EPstatey
2077:Generated_Source\PSoC5/COM.c **** *
2078:Generated_Source\PSoC5/COM.c **** *   The USBFS_EnableOutEP() has to be called to allow host to write data into
2079:Generated_Source\PSoC5/COM.c **** *   the endpoint buffer after DMA has completed transfer data from OUT endpoint
2080:Generated_Source\PSoC5/COM.c **** *   buffer to SRAM.
2081:Generated_Source\PSoC5/COM.c **** *
2082:Generated_Source\PSoC5/COM.c **** *   *DMA with Automatic Buffer Management:*
2083:Generated_Source\PSoC5/COM.c **** *   Configure DMA. This is required only once and automatically generates DMA
2084:Generated_Source\PSoC5/COM.c **** *   requests as data arrives
2085:Generated_Source\PSoC5/COM.c **** *
2086:Generated_Source\PSoC5/COM.c **** *  \param epNumber: Contains the data endpoint number.
2087:Generated_Source\PSoC5/COM.c **** *         Valid values are between 1 and 8.
2088:Generated_Source\PSoC5/COM.c **** *  \param pData: A pointer to a data array into which the data for the endpoint
2089:Generated_Source\PSoC5/COM.c **** *         space is copied. It shall be ensured that this pointer address is
2090:Generated_Source\PSoC5/COM.c **** *         even to ensure the 16-bit transfer is aligned to even address. Else,
2091:Generated_Source\PSoC5/COM.c **** *         a hard fault condition can occur.
2092:Generated_Source\PSoC5/COM.c **** *  \param length: The number of bytes to transfer from the USB Out endpoint and
2093:Generated_Source\PSoC5/COM.c **** *         loads it into data array. Valid values are between 0 and 1023. The
2094:Generated_Source\PSoC5/COM.c **** *         function moves fewer than the requested number of bytes if the host
2095:Generated_Source\PSoC5/COM.c **** *         sends fewer bytes than requested.
2096:Generated_Source\PSoC5/COM.c **** *
2097:Generated_Source\PSoC5/COM.c **** * \return
2098:Generated_Source\PSoC5/COM.c **** *  Number of bytes received, 0 for an invalid endpoint.
2099:Generated_Source\PSoC5/COM.c **** *
2100:Generated_Source\PSoC5/COM.c **** * \reentrant
2101:Generated_Source\PSoC5/COM.c **** *  No.
2102:Generated_Source\PSoC5/COM.c **** *
2103:Generated_Source\PSoC5/COM.c **** *******************************************************************************/
2104:Generated_Source\PSoC5/COM.c **** uint16 COM_ReadOutEP16(uint8 epNumber, uint8 pData[], uint16 length)
2105:Generated_Source\PSoC5/COM.c **** {
2106:Generated_Source\PSoC5/COM.c ****     uint32 adjLength;
2107:Generated_Source\PSoC5/COM.c **** 
2108:Generated_Source\PSoC5/COM.c ****     /* Check array alignment on half-word boundary */
2109:Generated_Source\PSoC5/COM.c ****     CYASSERT(0u == (((uint32) pData) & 0x01u));
2110:Generated_Source\PSoC5/COM.c **** 
2111:Generated_Source\PSoC5/COM.c ****     if ((pData != NULL) && (epNumber > COM_EP0) && (epNumber < COM_MAX_EP))
2112:Generated_Source\PSoC5/COM.c ****     {
2113:Generated_Source\PSoC5/COM.c ****     #if (!COM_EP_MANAGEMENT_DMA_AUTO)
2114:Generated_Source\PSoC5/COM.c ****         /* Adjust requested length to available data. */
2115:Generated_Source\PSoC5/COM.c ****         length = (length > COM_GetEPCount(epNumber)) ? COM_GetEPCount(epNumber) : length;
2116:Generated_Source\PSoC5/COM.c ****     #endif /* (!COM_EP_MANAGEMENT_DMA_AUTO) */
2117:Generated_Source\PSoC5/COM.c **** 
2118:Generated_Source\PSoC5/COM.c ****     /* Adjust requested length: 2 bytes are handled at one data register access. */
2119:Generated_Source\PSoC5/COM.c ****     adjLength =  length + ((uint32)length & 1u);
2120:Generated_Source\PSoC5/COM.c **** 
2121:Generated_Source\PSoC5/COM.c ****     #if (COM_EP_MANAGEMENT_MANUAL)
2122:Generated_Source\PSoC5/COM.c ****         {
2123:Generated_Source\PSoC5/COM.c ****             /* Convert uint8 array to uint16. */
2124:Generated_Source\PSoC5/COM.c ****             uint16 *dataBuf = (uint16 *) pData;
2125:Generated_Source\PSoC5/COM.c **** 
2126:Generated_Source\PSoC5/COM.c ****             /* Copy data using 16-bits arbiter data register. */
2127:Generated_Source\PSoC5/COM.c ****             uint16 i;
2128:Generated_Source\PSoC5/COM.c ****             for (i = 0u; i < (adjLength >> 1u); ++i)
2129:Generated_Source\PSoC5/COM.c ****             {
ARM GAS  C:\Users\LUKASC~1\AppData\Local\Temp\ccb2ZD5o.s 			page 55


2130:Generated_Source\PSoC5/COM.c ****                 dataBuf[i] = (uint16) COM_ARB_EP16_BASE.arbEp[epNumber].rwDr16;
2131:Generated_Source\PSoC5/COM.c ****             }
2132:Generated_Source\PSoC5/COM.c ****         }
2133:Generated_Source\PSoC5/COM.c **** 
2134:Generated_Source\PSoC5/COM.c ****         /* Arm OUT endpoint after data has been read from endpoint buffer. */
2135:Generated_Source\PSoC5/COM.c ****         COM_EnableOutEP(epNumber);
2136:Generated_Source\PSoC5/COM.c ****     #else
2137:Generated_Source\PSoC5/COM.c **** 
2138:Generated_Source\PSoC5/COM.c ****         #if (COM_EP_MANAGEMENT_DMA_MANUAL)
2139:Generated_Source\PSoC5/COM.c ****         {
2140:Generated_Source\PSoC5/COM.c ****             uint32 channelNum = (uint32) COM_DmaChan[epNumber];
2141:Generated_Source\PSoC5/COM.c **** 
2142:Generated_Source\PSoC5/COM.c ****             /* Disable DMA channel: start configuration. */
2143:Generated_Source\PSoC5/COM.c ****             COM_CyDmaChDisable(channelNum);
2144:Generated_Source\PSoC5/COM.c **** 
2145:Generated_Source\PSoC5/COM.c ****             /* Configure source and destination. */
2146:Generated_Source\PSoC5/COM.c ****             COM_CyDmaSetSrcAddress(channelNum, COM_DMA_DESCR0, (void*) &COM_ARB_EP16_BASE.arbEp[epN
2147:Generated_Source\PSoC5/COM.c ****             COM_CyDmaSetDstAddress(channelNum, COM_DMA_DESCR0, (void*) pData);
2148:Generated_Source\PSoC5/COM.c **** 
2149:Generated_Source\PSoC5/COM.c ****             /* Configure DMA descriptor. */
2150:Generated_Source\PSoC5/COM.c ****             COM_CyDmaSetConfiguration(channelNum, COM_DMA_DESCR0, COM_DMA_COMMON_CFG | (uint16)((ad
2151:Generated_Source\PSoC5/COM.c ****                                                     CYDMA_HALFWORD | CYDMA_WORD_ELEMENT | CYDMA_INC
2152:Generated_Source\PSoC5/COM.c **** 
2153:Generated_Source\PSoC5/COM.c ****             /* Validate descriptor to execute on following DMA request. */
2154:Generated_Source\PSoC5/COM.c ****             COM_CyDmaValidateDescriptor(channelNum, COM_DMA_DESCR0);
2155:Generated_Source\PSoC5/COM.c **** 
2156:Generated_Source\PSoC5/COM.c ****             /* Enable DMA channel: configuration complete. */
2157:Generated_Source\PSoC5/COM.c ****             COM_CyDmaChEnable(channelNum);
2158:Generated_Source\PSoC5/COM.c **** 
2159:Generated_Source\PSoC5/COM.c ****             /* Generate DMA request. */
2160:Generated_Source\PSoC5/COM.c ****             COM_ARB_EP_BASE.arbEp[epNumber].epCfg |=  (uint32)  COM_ARB_EPX_CFG_DMA_REQ;
2161:Generated_Source\PSoC5/COM.c ****             COM_ARB_EP_BASE.arbEp[epNumber].epCfg &=  (uint32) ~COM_ARB_EPX_CFG_DMA_REQ;
2162:Generated_Source\PSoC5/COM.c **** 
2163:Generated_Source\PSoC5/COM.c ****             /* OUT endpoint has to be armed again by user when DMA transfers have been completed.
2164:Generated_Source\PSoC5/COM.c ****             * NO_EVENT_PENDING: notifies that data has been copied from endpoint buffer.
2165:Generated_Source\PSoC5/COM.c ****             */
2166:Generated_Source\PSoC5/COM.c ****         }
2167:Generated_Source\PSoC5/COM.c ****         #endif /* (COM_EP_MANAGEMENT_DMA_MANUAL) */
2168:Generated_Source\PSoC5/COM.c **** 
2169:Generated_Source\PSoC5/COM.c ****         #if (COM_EP_MANAGEMENT_DMA_AUTO)
2170:Generated_Source\PSoC5/COM.c ****         {
2171:Generated_Source\PSoC5/COM.c ****             uint32 lengthDescr0, lengthDescr1;
2172:Generated_Source\PSoC5/COM.c ****             uint32 channelNum = (uint32) COM_DmaChan[epNumber];
2173:Generated_Source\PSoC5/COM.c **** 
2174:Generated_Source\PSoC5/COM.c ****             /* Get number of full bursts. */
2175:Generated_Source\PSoC5/COM.c ****             COM_DmaEpBurstCnt[epNumber] = (uint8) (adjLength / COM_DMA_BYTES_PER_BURST);
2176:Generated_Source\PSoC5/COM.c **** 
2177:Generated_Source\PSoC5/COM.c ****             /* Get number of elements in last burst. */
2178:Generated_Source\PSoC5/COM.c ****             COM_DmaEpLastBurstEl[epNumber] = (uint8) (adjLength % COM_DMA_BYTES_PER_BURST);
2179:Generated_Source\PSoC5/COM.c **** 
2180:Generated_Source\PSoC5/COM.c ****             /* Get total number of bursts. */
2181:Generated_Source\PSoC5/COM.c ****             COM_DmaEpBurstCnt[epNumber] += (0u != COM_DmaEpLastBurstEl[epNumber]) ? 1u : 0u;
2182:Generated_Source\PSoC5/COM.c **** 
2183:Generated_Source\PSoC5/COM.c ****             /* Adjust number of data elements transferred in last burst. */
2184:Generated_Source\PSoC5/COM.c ****             COM_DmaEpLastBurstEl[epNumber] = (0u != COM_DmaEpLastBurstEl[epNumber]) ?
2185:Generated_Source\PSoC5/COM.c ****                                                                   ((COM_DmaEpLastBurstEl[epNumber] 
2186:Generated_Source\PSoC5/COM.c ****                                                                    (COM_DMA_HALFWORDS_PER_BURST - 1
ARM GAS  C:\Users\LUKASC~1\AppData\Local\Temp\ccb2ZD5o.s 			page 56


2187:Generated_Source\PSoC5/COM.c **** 
2188:Generated_Source\PSoC5/COM.c ****             /* Get number of data elements to transfer for descriptor 0 and 1. */
2189:Generated_Source\PSoC5/COM.c ****             lengthDescr0 = (1u == COM_DmaEpBurstCnt[epNumber]) ? COM_DmaEpLastBurstEl[epNumber] : (
2190:Generated_Source\PSoC5/COM.c ****             lengthDescr1 = (2u == COM_DmaEpBurstCnt[epNumber]) ? COM_DmaEpLastBurstEl[epNumber] : (
2191:Generated_Source\PSoC5/COM.c **** 
2192:Generated_Source\PSoC5/COM.c ****             /* Mark last descriptor to be executed. */
2193:Generated_Source\PSoC5/COM.c ****             COM_DmaEpLastBurstEl[epNumber] |= (0u != (COM_DmaEpBurstCnt[epNumber] & 0x1u)) ?
2194:Generated_Source\PSoC5/COM.c ****                                                                     COM_DMA_DESCR0_MASK : COM_DMA_D
2195:Generated_Source\PSoC5/COM.c **** 
2196:Generated_Source\PSoC5/COM.c ****             /* Mark if revert number of data elements in descriptor after transfer completion. */
2197:Generated_Source\PSoC5/COM.c ****             COM_DmaEpLastBurstEl[epNumber] |= (COM_DmaEpBurstCnt[epNumber] > 2u) ? COM_DMA_DESCR_RE
2198:Generated_Source\PSoC5/COM.c **** 
2199:Generated_Source\PSoC5/COM.c ****             /* Mark that 16-bits access to data register is performed. */
2200:Generated_Source\PSoC5/COM.c ****             COM_DmaEpLastBurstEl[epNumber] |= COM_DMA_DESCR_16BITS;
2201:Generated_Source\PSoC5/COM.c **** 
2202:Generated_Source\PSoC5/COM.c ****             /* Store address of buffer and burst counter for endpoint. */
2203:Generated_Source\PSoC5/COM.c ****             COM_DmaEpBufferAddrBackup[epNumber] = (uint32) pData;
2204:Generated_Source\PSoC5/COM.c ****             COM_DmaEpBurstCntBackup[epNumber]   = COM_DmaEpBurstCnt[epNumber];
2205:Generated_Source\PSoC5/COM.c **** 
2206:Generated_Source\PSoC5/COM.c ****             /* Adjust burst counter taking to account: 2 valid descriptors and interrupt trigger af
2207:Generated_Source\PSoC5/COM.c ****             COM_DmaEpBurstCnt[epNumber] = COM_DMA_GET_BURST_CNT(COM_DmaEpBurstCnt[epNumber]);
2208:Generated_Source\PSoC5/COM.c **** 
2209:Generated_Source\PSoC5/COM.c ****             /* Disable DMA channel: start configuration. */
2210:Generated_Source\PSoC5/COM.c ****             COM_CyDmaChDisable(channelNum);
2211:Generated_Source\PSoC5/COM.c **** 
2212:Generated_Source\PSoC5/COM.c ****             /* Set destination address. */
2213:Generated_Source\PSoC5/COM.c ****             COM_CyDmaSetSrcAddress(channelNum, COM_DMA_DESCR0, (void*) &COM_ARB_EP16_BASE.arbEp[epN
2214:Generated_Source\PSoC5/COM.c ****             COM_CyDmaSetSrcAddress(channelNum, COM_DMA_DESCR1, (void*) &COM_ARB_EP16_BASE.arbEp[epN
2215:Generated_Source\PSoC5/COM.c **** 
2216:Generated_Source\PSoC5/COM.c ****             COM_CyDmaSetDstAddress(channelNum, COM_DMA_DESCR0, (void*) ((uint32) pData));
2217:Generated_Source\PSoC5/COM.c ****             COM_CyDmaSetDstAddress(channelNum, COM_DMA_DESCR1, (void*) ((uint32) pData + COM_DMA_BY
2218:Generated_Source\PSoC5/COM.c **** 
2219:Generated_Source\PSoC5/COM.c ****             /* Configure DMA descriptor 0. */
2220:Generated_Source\PSoC5/COM.c ****             COM_CyDmaSetConfiguration(channelNum, COM_DMA_DESCR0, COM_DMA_COMMON_CFG  | lengthDescr
2221:Generated_Source\PSoC5/COM.c ****                                                     CYDMA_HALFWORD | CYDMA_WORD_ELEMENT | CYDMA_INC
2222:Generated_Source\PSoC5/COM.c **** 
2223:Generated_Source\PSoC5/COM.c ****             /* Configure DMA descriptor 1. */
2224:Generated_Source\PSoC5/COM.c ****             COM_CyDmaSetConfiguration(channelNum, COM_DMA_DESCR1, COM_DMA_COMMON_CFG  | lengthDescr
2225:Generated_Source\PSoC5/COM.c ****                                                     CYDMA_HALFWORD | CYDMA_WORD_ELEMENT | CYDMA_INC
2226:Generated_Source\PSoC5/COM.c **** 
2227:Generated_Source\PSoC5/COM.c ****             /* Enable interrupt from DMA channel. */
2228:Generated_Source\PSoC5/COM.c ****             COM_CyDmaSetInterruptMask(channelNum);
2229:Generated_Source\PSoC5/COM.c **** 
2230:Generated_Source\PSoC5/COM.c ****             /* Validate DMA descriptor 0 and 1. */
2231:Generated_Source\PSoC5/COM.c ****             COM_CyDmaValidateDescriptor(channelNum, COM_DMA_DESCR0);
2232:Generated_Source\PSoC5/COM.c ****             
2233:Generated_Source\PSoC5/COM.c ****             if (COM_DmaEpBurstCntBackup[epNumber] > 1u)
2234:Generated_Source\PSoC5/COM.c ****             {
2235:Generated_Source\PSoC5/COM.c ****                 COM_CyDmaValidateDescriptor(channelNum, COM_DMA_DESCR1);
2236:Generated_Source\PSoC5/COM.c ****             }
2237:Generated_Source\PSoC5/COM.c **** 
2238:Generated_Source\PSoC5/COM.c ****             /* Enable DMA channel: configuration complete. */
2239:Generated_Source\PSoC5/COM.c ****             COM_CyDmaChEnable(channelNum);
2240:Generated_Source\PSoC5/COM.c **** 
2241:Generated_Source\PSoC5/COM.c ****             /* OUT endpoint has to be armed again by user when DMA transfers have been completed.
2242:Generated_Source\PSoC5/COM.c ****             * NO_EVENT_PENDING: notifies that data has been copied from endpoint buffer.
2243:Generated_Source\PSoC5/COM.c ****             */
ARM GAS  C:\Users\LUKASC~1\AppData\Local\Temp\ccb2ZD5o.s 			page 57


2244:Generated_Source\PSoC5/COM.c ****         }
2245:Generated_Source\PSoC5/COM.c ****         #endif /* (COM_EP_MANAGEMENT_DMA_AUTO) */
2246:Generated_Source\PSoC5/COM.c ****     #endif /* (COM_EP_MANAGEMENT_MANUAL) */
2247:Generated_Source\PSoC5/COM.c ****     }
2248:Generated_Source\PSoC5/COM.c ****     else
2249:Generated_Source\PSoC5/COM.c ****     {
2250:Generated_Source\PSoC5/COM.c ****         length = 0u;
2251:Generated_Source\PSoC5/COM.c ****     }
2252:Generated_Source\PSoC5/COM.c **** 
2253:Generated_Source\PSoC5/COM.c ****     return (length);
2254:Generated_Source\PSoC5/COM.c **** }
2255:Generated_Source\PSoC5/COM.c **** #endif /* (COM_16BITS_EP_ACCESS_ENABLE) */
2256:Generated_Source\PSoC5/COM.c **** 
2257:Generated_Source\PSoC5/COM.c **** 
2258:Generated_Source\PSoC5/COM.c **** /*******************************************************************************
2259:Generated_Source\PSoC5/COM.c **** * Function Name: COM_EnableOutEP
2260:Generated_Source\PSoC5/COM.c **** ****************************************************************************//**
2261:Generated_Source\PSoC5/COM.c **** *
2262:Generated_Source\PSoC5/COM.c **** *  This function enables the specified endpoint for OUT transfers. Do not call
2263:Generated_Source\PSoC5/COM.c **** *  this function for IN endpoints.
2264:Generated_Source\PSoC5/COM.c **** *
2265:Generated_Source\PSoC5/COM.c **** *  \param epNumber: Contains the data endpoint number. Valid values are between
2266:Generated_Source\PSoC5/COM.c **** *  1 and 8.
2267:Generated_Source\PSoC5/COM.c **** *
2268:Generated_Source\PSoC5/COM.c **** * \globalvars
2269:Generated_Source\PSoC5/COM.c **** *
2270:Generated_Source\PSoC5/COM.c **** *  \ref COM_EP[epNumber].apiEpState - set to NO_EVENT_PENDING
2271:Generated_Source\PSoC5/COM.c **** *
2272:Generated_Source\PSoC5/COM.c **** * \reentrant
2273:Generated_Source\PSoC5/COM.c **** *  No.
2274:Generated_Source\PSoC5/COM.c **** *
2275:Generated_Source\PSoC5/COM.c **** *******************************************************************************/
2276:Generated_Source\PSoC5/COM.c **** void COM_EnableOutEP(uint8 epNumber) 
2277:Generated_Source\PSoC5/COM.c **** {
 940              		.loc 1 2277 0
 941              		.cfi_startproc
 942              		@ args = 0, pretend = 0, frame = 0
 943              		@ frame_needed = 0, uses_anonymous_args = 0
 944              		@ link register save eliminated.
 945              	.LVL64:
2278:Generated_Source\PSoC5/COM.c ****     if ((epNumber > COM_EP0) && (epNumber < COM_MAX_EP))
 946              		.loc 1 2278 0
 947 0000 431E     		subs	r3, r0, #1
 948 0002 DBB2     		uxtb	r3, r3
 949 0004 072B     		cmp	r3, #7
 950 0006 0BD8     		bhi	.L61
2279:Generated_Source\PSoC5/COM.c ****     {
2280:Generated_Source\PSoC5/COM.c ****         COM_EP[epNumber].apiEpState = COM_NO_EVENT_PENDING;
 951              		.loc 1 2280 0
 952 0008 4300     		lsls	r3, r0, #1
 953 000a 0344     		add	r3, r3, r0
 954 000c 9B00     		lsls	r3, r3, #2
 955 000e 054A     		ldr	r2, .L63
 956 0010 1344     		add	r3, r3, r2
 957 0012 0022     		movs	r2, #0
 958 0014 5A70     		strb	r2, [r3, #1]
2281:Generated_Source\PSoC5/COM.c **** 
ARM GAS  C:\Users\LUKASC~1\AppData\Local\Temp\ccb2ZD5o.s 			page 58


2282:Generated_Source\PSoC5/COM.c ****         /* Enable OUT endpoint to be written by Host. */
2283:Generated_Source\PSoC5/COM.c ****         COM_SIE_EP_BASE.sieEp[epNumber].epCr0 = COM_EP[epNumber].epMode;
 959              		.loc 1 2283 0
 960 0016 5A79     		ldrb	r2, [r3, #5]	@ zero_extendqisi2
 961 0018 D2B2     		uxtb	r2, r2
 962 001a 0001     		lsls	r0, r0, #4
 963              	.LVL65:
 964 001c 024B     		ldr	r3, .L63+4
 965 001e 1A54     		strb	r2, [r3, r0]
 966              	.L61:
 967 0020 7047     		bx	lr
 968              	.L64:
 969 0022 00BF     		.align	2
 970              	.L63:
 971 0024 00000000 		.word	COM_EP
 972 0028 FE5F0040 		.word	1073766398
 973              		.cfi_endproc
 974              	.LFE13:
 975              		.size	COM_EnableOutEP, .-COM_EnableOutEP
 976              		.section	.text.COM_ReadOutEP,"ax",%progbits
 977              		.align	2
 978              		.global	COM_ReadOutEP
 979              		.thumb
 980              		.thumb_func
 981              		.type	COM_ReadOutEP, %function
 982              	COM_ReadOutEP:
 983              	.LFB12:
1655:Generated_Source\PSoC5/COM.c ****     if ((pData != NULL) && (epNumber > COM_EP0) && (epNumber < COM_MAX_EP))
 984              		.loc 1 1655 0
 985              		.cfi_startproc
 986              		@ args = 0, pretend = 0, frame = 0
 987              		@ frame_needed = 0, uses_anonymous_args = 0
 988              	.LVL66:
 989 0000 70B5     		push	{r4, r5, r6, lr}
 990              		.cfi_def_cfa_offset 16
 991              		.cfi_offset 4, -16
 992              		.cfi_offset 5, -12
 993              		.cfi_offset 6, -8
 994              		.cfi_offset 14, -4
1656:Generated_Source\PSoC5/COM.c ****     {
 995              		.loc 1 1656 0
 996 0002 D9B1     		cbz	r1, .L70
 997 0004 0546     		mov	r5, r0
 998 0006 1446     		mov	r4, r2
 999 0008 0E46     		mov	r6, r1
1656:Generated_Source\PSoC5/COM.c ****     {
 1000              		.loc 1 1656 0 is_stmt 0 discriminator 1
 1001 000a C8B1     		cbz	r0, .L71
1656:Generated_Source\PSoC5/COM.c ****     {
 1002              		.loc 1 1656 0 discriminator 2
 1003 000c 0828     		cmp	r0, #8
 1004 000e 19D8     		bhi	.L72
1660:Generated_Source\PSoC5/COM.c ****     #endif /* (!COM_EP_MANAGEMENT_DMA_AUTO) */
 1005              		.loc 1 1660 0 is_stmt 1
 1006 0010 FFF7FEFF 		bl	COM_GetEPCount
 1007              	.LVL67:
 1008 0014 A042     		cmp	r0, r4
ARM GAS  C:\Users\LUKASC~1\AppData\Local\Temp\ccb2ZD5o.s 			page 59


 1009 0016 03D2     		bcs	.L67
1660:Generated_Source\PSoC5/COM.c ****     #endif /* (!COM_EP_MANAGEMENT_DMA_AUTO) */
 1010              		.loc 1 1660 0 is_stmt 0 discriminator 1
 1011 0018 2846     		mov	r0, r5
 1012 001a FFF7FEFF 		bl	COM_GetEPCount
 1013              	.LVL68:
 1014 001e 0446     		mov	r4, r0
 1015              	.L67:
 1016              	.LVL69:
 1017              	.LBB4:
1667:Generated_Source\PSoC5/COM.c ****             {
 1018              		.loc 1 1667 0 is_stmt 1 discriminator 4
 1019 0020 0023     		movs	r3, #0
 1020 0022 05E0     		b	.L68
 1021              	.LVL70:
 1022              	.L69:
1669:Generated_Source\PSoC5/COM.c ****             }
 1023              		.loc 1 1669 0 discriminator 3
 1024 0024 2901     		lsls	r1, r5, #4
 1025 0026 094A     		ldr	r2, .L74
 1026 0028 525C     		ldrb	r2, [r2, r1]	@ zero_extendqisi2
 1027 002a F254     		strb	r2, [r6, r3]
1667:Generated_Source\PSoC5/COM.c ****             {
 1028              		.loc 1 1667 0 discriminator 3
 1029 002c 0133     		adds	r3, r3, #1
 1030              	.LVL71:
 1031 002e 9BB2     		uxth	r3, r3
 1032              	.LVL72:
 1033              	.L68:
1667:Generated_Source\PSoC5/COM.c ****             {
 1034              		.loc 1 1667 0 is_stmt 0 discriminator 1
 1035 0030 A342     		cmp	r3, r4
 1036 0032 F7D3     		bcc	.L69
 1037              	.LBE4:
1674:Generated_Source\PSoC5/COM.c ****     #else
 1038              		.loc 1 1674 0 is_stmt 1
 1039 0034 2846     		mov	r0, r5
 1040 0036 FFF7FEFF 		bl	COM_EnableOutEP
 1041              	.LVL73:
 1042 003a 04E0     		b	.L66
 1043              	.LVL74:
 1044              	.L70:
1820:Generated_Source\PSoC5/COM.c ****     }
 1045              		.loc 1 1820 0
 1046 003c 0024     		movs	r4, #0
 1047 003e 02E0     		b	.L66
 1048              	.L71:
 1049 0040 0024     		movs	r4, #0
 1050 0042 00E0     		b	.L66
 1051              	.L72:
 1052 0044 0024     		movs	r4, #0
 1053              	.LVL75:
 1054              	.L66:
1824:Generated_Source\PSoC5/COM.c **** 
 1055              		.loc 1 1824 0
 1056 0046 2046     		mov	r0, r4
 1057 0048 70BD     		pop	{r4, r5, r6, pc}
ARM GAS  C:\Users\LUKASC~1\AppData\Local\Temp\ccb2ZD5o.s 			page 60


 1058              	.LVL76:
 1059              	.L75:
 1060 004a 00BF     		.align	2
 1061              	.L74:
 1062 004c 78600040 		.word	1073766520
 1063              		.cfi_endproc
 1064              	.LFE12:
 1065              		.size	COM_ReadOutEP, .-COM_ReadOutEP
 1066              		.section	.text.COM_DisableOutEP,"ax",%progbits
 1067              		.align	2
 1068              		.global	COM_DisableOutEP
 1069              		.thumb
 1070              		.thumb_func
 1071              		.type	COM_DisableOutEP, %function
 1072              	COM_DisableOutEP:
 1073              	.LFB14:
2284:Generated_Source\PSoC5/COM.c ****         
2285:Generated_Source\PSoC5/COM.c ****     }
2286:Generated_Source\PSoC5/COM.c **** }
2287:Generated_Source\PSoC5/COM.c **** 
2288:Generated_Source\PSoC5/COM.c **** 
2289:Generated_Source\PSoC5/COM.c **** /*******************************************************************************
2290:Generated_Source\PSoC5/COM.c **** * Function Name: COM_DisableOutEP
2291:Generated_Source\PSoC5/COM.c **** ****************************************************************************//**
2292:Generated_Source\PSoC5/COM.c **** *
2293:Generated_Source\PSoC5/COM.c **** *  This function disables the specified USBFS OUT endpoint. Do not call this
2294:Generated_Source\PSoC5/COM.c **** *  function for IN endpoints.
2295:Generated_Source\PSoC5/COM.c **** *
2296:Generated_Source\PSoC5/COM.c **** *  \param epNumber: Contains the data endpoint number.
2297:Generated_Source\PSoC5/COM.c **** *            Valid values are between 1 and 8.
2298:Generated_Source\PSoC5/COM.c **** *
2299:Generated_Source\PSoC5/COM.c **** *******************************************************************************/
2300:Generated_Source\PSoC5/COM.c **** void COM_DisableOutEP(uint8 epNumber) 
2301:Generated_Source\PSoC5/COM.c **** {
 1074              		.loc 1 2301 0
 1075              		.cfi_startproc
 1076              		@ args = 0, pretend = 0, frame = 0
 1077              		@ frame_needed = 0, uses_anonymous_args = 0
 1078              		@ link register save eliminated.
 1079              	.LVL77:
2302:Generated_Source\PSoC5/COM.c ****     if ((epNumber > COM_EP0) && (epNumber < COM_MAX_EP))
 1080              		.loc 1 2302 0
 1081 0000 431E     		subs	r3, r0, #1
 1082 0002 DBB2     		uxtb	r3, r3
 1083 0004 072B     		cmp	r3, #7
 1084 0006 03D8     		bhi	.L76
2303:Generated_Source\PSoC5/COM.c ****     {
2304:Generated_Source\PSoC5/COM.c ****         /* Set NAK response for OUT endpoint. */
2305:Generated_Source\PSoC5/COM.c ****         COM_SIE_EP_BASE.sieEp[epNumber].epCr0 = COM_MODE_NAK_OUT;
 1085              		.loc 1 2305 0
 1086 0008 0001     		lsls	r0, r0, #4
 1087              	.LVL78:
 1088 000a 024B     		ldr	r3, .L78
 1089 000c 0822     		movs	r2, #8
 1090 000e 1A54     		strb	r2, [r3, r0]
 1091              	.L76:
 1092 0010 7047     		bx	lr
ARM GAS  C:\Users\LUKASC~1\AppData\Local\Temp\ccb2ZD5o.s 			page 61


 1093              	.L79:
 1094 0012 00BF     		.align	2
 1095              	.L78:
 1096 0014 FE5F0040 		.word	1073766398
 1097              		.cfi_endproc
 1098              	.LFE14:
 1099              		.size	COM_DisableOutEP, .-COM_DisableOutEP
 1100              		.section	.text.COM_Force,"ax",%progbits
 1101              		.align	2
 1102              		.global	COM_Force
 1103              		.thumb
 1104              		.thumb_func
 1105              		.type	COM_Force, %function
 1106              	COM_Force:
 1107              	.LFB15:
2306:Generated_Source\PSoC5/COM.c ****     }
2307:Generated_Source\PSoC5/COM.c **** }
2308:Generated_Source\PSoC5/COM.c **** 
2309:Generated_Source\PSoC5/COM.c **** 
2310:Generated_Source\PSoC5/COM.c **** /*******************************************************************************
2311:Generated_Source\PSoC5/COM.c **** * Function Name: COM_Force
2312:Generated_Source\PSoC5/COM.c **** ****************************************************************************//**
2313:Generated_Source\PSoC5/COM.c **** *
2314:Generated_Source\PSoC5/COM.c **** *  This function forces a USB J, K, or SE0 state on the D+/D– lines. It provides
2315:Generated_Source\PSoC5/COM.c **** *  the necessary mechanism for a USB device application to perform a USB Remote
2316:Generated_Source\PSoC5/COM.c **** *  Wakeup. For more information, see the USB 2.0 Specification for details on
2317:Generated_Source\PSoC5/COM.c **** *  Suspend and Resume.
2318:Generated_Source\PSoC5/COM.c **** *
2319:Generated_Source\PSoC5/COM.c **** *  \param state A byte indicating which of the four bus states to enable.
2320:Generated_Source\PSoC5/COM.c **** *        Symbolic names  and their associated values are listed here:
2321:Generated_Source\PSoC5/COM.c **** *    State                      |Description
2322:Generated_Source\PSoC5/COM.c **** *    ---------------------------|----------------------------------------------
2323:Generated_Source\PSoC5/COM.c **** *    COM_FORCE_J   | Force a J State onto the D+/D– lines
2324:Generated_Source\PSoC5/COM.c **** *    COM_FORCE_K   | Force a K State onto the D+/D– lines
2325:Generated_Source\PSoC5/COM.c **** *    COM_FORCE_SE0 | Force a Single Ended 0 onto the D+/D– lines
2326:Generated_Source\PSoC5/COM.c **** *    COM_FORCE_NONE| Return bus to SIE control
2327:Generated_Source\PSoC5/COM.c **** *
2328:Generated_Source\PSoC5/COM.c **** *
2329:Generated_Source\PSoC5/COM.c **** *******************************************************************************/
2330:Generated_Source\PSoC5/COM.c **** void COM_Force(uint8 bState) 
2331:Generated_Source\PSoC5/COM.c **** {
 1108              		.loc 1 2331 0
 1109              		.cfi_startproc
 1110              		@ args = 0, pretend = 0, frame = 0
 1111              		@ frame_needed = 0, uses_anonymous_args = 0
 1112              		@ link register save eliminated.
 1113              	.LVL79:
2332:Generated_Source\PSoC5/COM.c ****     /* This registers is used only for manual control of SIE (no masking is
2333:Generated_Source\PSoC5/COM.c ****     * needed before write into it).
2334:Generated_Source\PSoC5/COM.c ****     */
2335:Generated_Source\PSoC5/COM.c ****     COM_USBIO_CR0_REG = bState;
 1114              		.loc 1 2335 0
 1115 0000 014B     		ldr	r3, .L81
 1116 0002 1870     		strb	r0, [r3]
 1117 0004 7047     		bx	lr
 1118              	.L82:
 1119 0006 00BF     		.align	2
ARM GAS  C:\Users\LUKASC~1\AppData\Local\Temp\ccb2ZD5o.s 			page 62


 1120              	.L81:
 1121 0008 10600040 		.word	1073766416
 1122              		.cfi_endproc
 1123              	.LFE15:
 1124              		.size	COM_Force, .-COM_Force
 1125              		.section	.text.COM_GetEPAckState,"ax",%progbits
 1126              		.align	2
 1127              		.global	COM_GetEPAckState
 1128              		.thumb
 1129              		.thumb_func
 1130              		.type	COM_GetEPAckState, %function
 1131              	COM_GetEPAckState:
 1132              	.LFB16:
2336:Generated_Source\PSoC5/COM.c **** }
2337:Generated_Source\PSoC5/COM.c **** 
2338:Generated_Source\PSoC5/COM.c **** 
2339:Generated_Source\PSoC5/COM.c **** /*******************************************************************************
2340:Generated_Source\PSoC5/COM.c **** * Function Name: COM_GetEPAckState
2341:Generated_Source\PSoC5/COM.c **** ****************************************************************************//**
2342:Generated_Source\PSoC5/COM.c **** *
2343:Generated_Source\PSoC5/COM.c **** *  This function determines whether an ACK transaction occurred on this endpoint
2344:Generated_Source\PSoC5/COM.c **** *  by reading the ACK bit in the control register of the endpoint. It does not
2345:Generated_Source\PSoC5/COM.c **** *  clear the ACK bit.
2346:Generated_Source\PSoC5/COM.c **** *
2347:Generated_Source\PSoC5/COM.c **** *  \param epNumber Contains the data endpoint number.
2348:Generated_Source\PSoC5/COM.c **** *            Valid values are between 1 and 8.
2349:Generated_Source\PSoC5/COM.c **** *
2350:Generated_Source\PSoC5/COM.c **** *  \return
2351:Generated_Source\PSoC5/COM.c **** *  If an ACKed transaction occurred, this function returns a non-zero value.
2352:Generated_Source\PSoC5/COM.c **** *  Otherwise, it returns zero.
2353:Generated_Source\PSoC5/COM.c **** *
2354:Generated_Source\PSoC5/COM.c **** *******************************************************************************/
2355:Generated_Source\PSoC5/COM.c **** uint8 COM_GetEPAckState(uint8 epNumber) 
2356:Generated_Source\PSoC5/COM.c **** {
 1133              		.loc 1 2356 0
 1134              		.cfi_startproc
 1135              		@ args = 0, pretend = 0, frame = 0
 1136              		@ frame_needed = 0, uses_anonymous_args = 0
 1137              		@ link register save eliminated.
 1138              	.LVL80:
2357:Generated_Source\PSoC5/COM.c ****     uint8 cr = 0u;
2358:Generated_Source\PSoC5/COM.c **** 
2359:Generated_Source\PSoC5/COM.c ****     if ((epNumber > COM_EP0) && (epNumber < COM_MAX_EP))
 1139              		.loc 1 2359 0
 1140 0000 431E     		subs	r3, r0, #1
 1141 0002 DBB2     		uxtb	r3, r3
 1142 0004 072B     		cmp	r3, #7
 1143 0006 06D8     		bhi	.L85
2360:Generated_Source\PSoC5/COM.c ****     {
2361:Generated_Source\PSoC5/COM.c ****         cr = COM_SIE_EP_BASE.sieEp[epNumber].epCr0 & COM_MODE_ACKD;
 1144              		.loc 1 2361 0
 1145 0008 0001     		lsls	r0, r0, #4
 1146              	.LVL81:
 1147 000a 044B     		ldr	r3, .L86
 1148 000c 185C     		ldrb	r0, [r3, r0]	@ zero_extendqisi2
 1149 000e 00F01000 		and	r0, r0, #16
 1150 0012 C0B2     		uxtb	r0, r0
ARM GAS  C:\Users\LUKASC~1\AppData\Local\Temp\ccb2ZD5o.s 			page 63


 1151              	.LVL82:
 1152 0014 7047     		bx	lr
 1153              	.LVL83:
 1154              	.L85:
2357:Generated_Source\PSoC5/COM.c ****     uint8 cr = 0u;
 1155              		.loc 1 2357 0
 1156 0016 0020     		movs	r0, #0
 1157              	.LVL84:
2362:Generated_Source\PSoC5/COM.c ****     }
2363:Generated_Source\PSoC5/COM.c **** 
2364:Generated_Source\PSoC5/COM.c ****     return ((uint8) cr);
2365:Generated_Source\PSoC5/COM.c **** }
 1158              		.loc 1 2365 0
 1159 0018 7047     		bx	lr
 1160              	.L87:
 1161 001a 00BF     		.align	2
 1162              	.L86:
 1163 001c FE5F0040 		.word	1073766398
 1164              		.cfi_endproc
 1165              	.LFE16:
 1166              		.size	COM_GetEPAckState, .-COM_GetEPAckState
 1167              		.section	.text.COM_SetPowerStatus,"ax",%progbits
 1168              		.align	2
 1169              		.global	COM_SetPowerStatus
 1170              		.thumb
 1171              		.thumb_func
 1172              		.type	COM_SetPowerStatus, %function
 1173              	COM_SetPowerStatus:
 1174              	.LFB17:
2366:Generated_Source\PSoC5/COM.c **** 
2367:Generated_Source\PSoC5/COM.c **** 
2368:Generated_Source\PSoC5/COM.c **** /*******************************************************************************
2369:Generated_Source\PSoC5/COM.c **** * Function Name: COM_SetPowerStatus
2370:Generated_Source\PSoC5/COM.c **** ****************************************************************************//**
2371:Generated_Source\PSoC5/COM.c **** *
2372:Generated_Source\PSoC5/COM.c **** *  This function sets the current power status. The device replies to USB
2373:Generated_Source\PSoC5/COM.c **** *  GET_STATUS requests based on this value. This allows the device to properly
2374:Generated_Source\PSoC5/COM.c **** *  report its status for USB Chapter 9 compliance. Devices can change their
2375:Generated_Source\PSoC5/COM.c **** *  power source from self powered to bus powered at any time and report their
2376:Generated_Source\PSoC5/COM.c **** *  current power source as part of the device status. You should call this
2377:Generated_Source\PSoC5/COM.c **** *  function any time your device changes from self powered to bus powered or
2378:Generated_Source\PSoC5/COM.c **** *  vice versa, and set the status appropriately.
2379:Generated_Source\PSoC5/COM.c **** *
2380:Generated_Source\PSoC5/COM.c **** *  \param powerStatus: Contains the desired power status, one for self powered
2381:Generated_Source\PSoC5/COM.c **** *        or zero for bus powered. Symbolic names and their associated values are
2382:Generated_Source\PSoC5/COM.c **** *        given here:
2383:Generated_Source\PSoC5/COM.c **** *  Power Status                                |Description
2384:Generated_Source\PSoC5/COM.c **** *  --------------------------------------------|---------------------------
2385:Generated_Source\PSoC5/COM.c **** *  COM_DEVICE_STATUS_BUS_POWERED  | Set the device to bus powered
2386:Generated_Source\PSoC5/COM.c **** *  COM_DEVICE_STATUS_SELF_POWERED | Set the device to self powered
2387:Generated_Source\PSoC5/COM.c **** *
2388:Generated_Source\PSoC5/COM.c **** * \globalvars
2389:Generated_Source\PSoC5/COM.c **** *
2390:Generated_Source\PSoC5/COM.c **** *  \ref COM_deviceStatus - set power status
2391:Generated_Source\PSoC5/COM.c **** *
2392:Generated_Source\PSoC5/COM.c **** * \reentrant
2393:Generated_Source\PSoC5/COM.c **** *  No.
ARM GAS  C:\Users\LUKASC~1\AppData\Local\Temp\ccb2ZD5o.s 			page 64


2394:Generated_Source\PSoC5/COM.c **** *
2395:Generated_Source\PSoC5/COM.c **** *******************************************************************************/
2396:Generated_Source\PSoC5/COM.c **** void COM_SetPowerStatus(uint8 powerStatus) 
2397:Generated_Source\PSoC5/COM.c **** {
 1175              		.loc 1 2397 0
 1176              		.cfi_startproc
 1177              		@ args = 0, pretend = 0, frame = 0
 1178              		@ frame_needed = 0, uses_anonymous_args = 0
 1179              		@ link register save eliminated.
 1180              	.LVL85:
2398:Generated_Source\PSoC5/COM.c ****     if (powerStatus != COM_DEVICE_STATUS_BUS_POWERED)
 1181              		.loc 1 2398 0
 1182 0000 28B1     		cbz	r0, .L89
2399:Generated_Source\PSoC5/COM.c ****     {
2400:Generated_Source\PSoC5/COM.c ****         COM_deviceStatus |= (uint8)  COM_DEVICE_STATUS_SELF_POWERED;
 1183              		.loc 1 2400 0
 1184 0002 064A     		ldr	r2, .L91
 1185 0004 1378     		ldrb	r3, [r2]	@ zero_extendqisi2
 1186 0006 43F00103 		orr	r3, r3, #1
 1187 000a 1370     		strb	r3, [r2]
 1188 000c 7047     		bx	lr
 1189              	.L89:
2401:Generated_Source\PSoC5/COM.c ****     }
2402:Generated_Source\PSoC5/COM.c ****     else
2403:Generated_Source\PSoC5/COM.c ****     {
2404:Generated_Source\PSoC5/COM.c ****         COM_deviceStatus &= (uint8) ~COM_DEVICE_STATUS_SELF_POWERED;
 1190              		.loc 1 2404 0
 1191 000e 034A     		ldr	r2, .L91
 1192 0010 1378     		ldrb	r3, [r2]	@ zero_extendqisi2
 1193 0012 03F0FE03 		and	r3, r3, #254
 1194 0016 1370     		strb	r3, [r2]
 1195 0018 7047     		bx	lr
 1196              	.L92:
 1197 001a 00BF     		.align	2
 1198              	.L91:
 1199 001c 00000000 		.word	COM_deviceStatus
 1200              		.cfi_endproc
 1201              	.LFE17:
 1202              		.size	COM_SetPowerStatus, .-COM_SetPowerStatus
 1203              		.section	.text.COM_RWUEnabled,"ax",%progbits
 1204              		.align	2
 1205              		.global	COM_RWUEnabled
 1206              		.thumb
 1207              		.thumb_func
 1208              		.type	COM_RWUEnabled, %function
 1209              	COM_RWUEnabled:
 1210              	.LFB18:
2405:Generated_Source\PSoC5/COM.c ****     }
2406:Generated_Source\PSoC5/COM.c **** }
2407:Generated_Source\PSoC5/COM.c **** 
2408:Generated_Source\PSoC5/COM.c **** 
2409:Generated_Source\PSoC5/COM.c **** #if (COM_VBUS_MONITORING_ENABLE)
2410:Generated_Source\PSoC5/COM.c ****     /***************************************************************************
2411:Generated_Source\PSoC5/COM.c ****     * Function Name: COM_VBusPresent
2412:Generated_Source\PSoC5/COM.c ****     ************************************************************************//**
2413:Generated_Source\PSoC5/COM.c ****     *
2414:Generated_Source\PSoC5/COM.c ****     *  Determines VBUS presence for self-powered devices. This function is
ARM GAS  C:\Users\LUKASC~1\AppData\Local\Temp\ccb2ZD5o.s 			page 65


2415:Generated_Source\PSoC5/COM.c ****     *  available when the VBUS Monitoring option is enabled in the Advanced tab.
2416:Generated_Source\PSoC5/COM.c ****     *
2417:Generated_Source\PSoC5/COM.c ****     * \return
2418:Generated_Source\PSoC5/COM.c ****     *  The return value can be the following:
2419:Generated_Source\PSoC5/COM.c ****     *  Return Value | Description
2420:Generated_Source\PSoC5/COM.c ****     *  -------------|-----------------
2421:Generated_Source\PSoC5/COM.c ****     *  1            | VBUS is present
2422:Generated_Source\PSoC5/COM.c ****     *  0            | VBUS is absent
2423:Generated_Source\PSoC5/COM.c ****     *
2424:Generated_Source\PSoC5/COM.c ****     *
2425:Generated_Source\PSoC5/COM.c ****     ***************************************************************************/
2426:Generated_Source\PSoC5/COM.c ****     uint8 COM_VBusPresent(void) 
2427:Generated_Source\PSoC5/COM.c ****     {
2428:Generated_Source\PSoC5/COM.c ****         return ((0u != (COM_VBUS_STATUS_REG & COM_VBUS_VALID)) ? (uint8) 1u : (uint8) 0u);
2429:Generated_Source\PSoC5/COM.c ****     }
2430:Generated_Source\PSoC5/COM.c **** #endif /* (COM_VBUS_MONITORING_ENABLE) */
2431:Generated_Source\PSoC5/COM.c **** 
2432:Generated_Source\PSoC5/COM.c **** 
2433:Generated_Source\PSoC5/COM.c **** /*******************************************************************************
2434:Generated_Source\PSoC5/COM.c **** * Function Name: COM_RWUEnabled
2435:Generated_Source\PSoC5/COM.c **** ****************************************************************************//**
2436:Generated_Source\PSoC5/COM.c **** *
2437:Generated_Source\PSoC5/COM.c **** *  This function returns the current remote wakeup status.
2438:Generated_Source\PSoC5/COM.c **** *  If the device supports remote wakeup, the application should use this
2439:Generated_Source\PSoC5/COM.c **** *  function to determine if remote wakeup was enabled by the host. When the
2440:Generated_Source\PSoC5/COM.c **** *  device is suspended and it determines the conditions to initiate a remote
2441:Generated_Source\PSoC5/COM.c **** *  wakeup are met, the application should use the USBFS_Force() function to
2442:Generated_Source\PSoC5/COM.c **** *  force the appropriate J and K states onto the USB bus, signaling a remote
2443:Generated_Source\PSoC5/COM.c **** *  wakeup.
2444:Generated_Source\PSoC5/COM.c **** *
2445:Generated_Source\PSoC5/COM.c **** *
2446:Generated_Source\PSoC5/COM.c **** * \return
2447:Generated_Source\PSoC5/COM.c **** *  Returns non-zero value if remote wakeup is enabled and zero otherwise.
2448:Generated_Source\PSoC5/COM.c **** *
2449:Generated_Source\PSoC5/COM.c **** * \globalvars
2450:Generated_Source\PSoC5/COM.c **** *  COM_deviceStatus - checked to determine remote status
2451:Generated_Source\PSoC5/COM.c **** *
2452:Generated_Source\PSoC5/COM.c **** *******************************************************************************/
2453:Generated_Source\PSoC5/COM.c **** uint8 COM_RWUEnabled(void) 
2454:Generated_Source\PSoC5/COM.c **** {
 1211              		.loc 1 2454 0
 1212              		.cfi_startproc
 1213              		@ args = 0, pretend = 0, frame = 0
 1214              		@ frame_needed = 0, uses_anonymous_args = 0
 1215              		@ link register save eliminated.
 1216              	.LVL86:
2455:Generated_Source\PSoC5/COM.c ****     uint8 result = COM_FALSE;
2456:Generated_Source\PSoC5/COM.c **** 
2457:Generated_Source\PSoC5/COM.c ****     if (0u != (COM_deviceStatus & COM_DEVICE_STATUS_REMOTE_WAKEUP))
 1217              		.loc 1 2457 0
 1218 0000 044B     		ldr	r3, .L96
 1219 0002 1B78     		ldrb	r3, [r3]	@ zero_extendqisi2
 1220 0004 13F0020F 		tst	r3, #2
 1221 0008 01D1     		bne	.L95
2455:Generated_Source\PSoC5/COM.c ****     uint8 result = COM_FALSE;
 1222              		.loc 1 2455 0
 1223 000a 0020     		movs	r0, #0
ARM GAS  C:\Users\LUKASC~1\AppData\Local\Temp\ccb2ZD5o.s 			page 66


 1224 000c 7047     		bx	lr
 1225              	.L95:
2458:Generated_Source\PSoC5/COM.c ****     {
2459:Generated_Source\PSoC5/COM.c ****         result = COM_TRUE;
 1226              		.loc 1 2459 0
 1227 000e 0120     		movs	r0, #1
 1228              	.LVL87:
2460:Generated_Source\PSoC5/COM.c ****     }
2461:Generated_Source\PSoC5/COM.c **** 
2462:Generated_Source\PSoC5/COM.c ****     return (result);
2463:Generated_Source\PSoC5/COM.c **** }
 1229              		.loc 1 2463 0
 1230 0010 7047     		bx	lr
 1231              	.L97:
 1232 0012 00BF     		.align	2
 1233              	.L96:
 1234 0014 00000000 		.word	COM_deviceStatus
 1235              		.cfi_endproc
 1236              	.LFE18:
 1237              		.size	COM_RWUEnabled, .-COM_RWUEnabled
 1238              		.section	.text.COM_GetDeviceAddress,"ax",%progbits
 1239              		.align	2
 1240              		.global	COM_GetDeviceAddress
 1241              		.thumb
 1242              		.thumb_func
 1243              		.type	COM_GetDeviceAddress, %function
 1244              	COM_GetDeviceAddress:
 1245              	.LFB19:
2464:Generated_Source\PSoC5/COM.c **** 
2465:Generated_Source\PSoC5/COM.c **** 
2466:Generated_Source\PSoC5/COM.c **** /*******************************************************************************
2467:Generated_Source\PSoC5/COM.c **** * Function Name: COM_GetDeviceAddress
2468:Generated_Source\PSoC5/COM.c **** ****************************************************************************//**
2469:Generated_Source\PSoC5/COM.c **** *
2470:Generated_Source\PSoC5/COM.c **** *  This function returns the currently assigned address for the USB device.
2471:Generated_Source\PSoC5/COM.c **** *
2472:Generated_Source\PSoC5/COM.c **** * \return
2473:Generated_Source\PSoC5/COM.c **** *  Returns the currently assigned address.
2474:Generated_Source\PSoC5/COM.c **** *  Returns 0 if the device has not yet been assigned an address.
2475:Generated_Source\PSoC5/COM.c **** *
2476:Generated_Source\PSoC5/COM.c **** *******************************************************************************/
2477:Generated_Source\PSoC5/COM.c **** uint8 COM_GetDeviceAddress(void) 
2478:Generated_Source\PSoC5/COM.c **** {
 1246              		.loc 1 2478 0
 1247              		.cfi_startproc
 1248              		@ args = 0, pretend = 0, frame = 0
 1249              		@ frame_needed = 0, uses_anonymous_args = 0
 1250              		@ link register save eliminated.
2479:Generated_Source\PSoC5/COM.c ****     return (uint8)(COM_CR0_REG & COM_CR0_DEVICE_ADDRESS_MASK);
 1251              		.loc 1 2479 0
 1252 0000 024B     		ldr	r3, .L99
 1253 0002 1878     		ldrb	r0, [r3]	@ zero_extendqisi2
2480:Generated_Source\PSoC5/COM.c **** }
 1254              		.loc 1 2480 0
 1255 0004 00F07F00 		and	r0, r0, #127
 1256 0008 7047     		bx	lr
 1257              	.L100:
ARM GAS  C:\Users\LUKASC~1\AppData\Local\Temp\ccb2ZD5o.s 			page 67


 1258 000a 00BF     		.align	2
 1259              	.L99:
 1260 000c 08600040 		.word	1073766408
 1261              		.cfi_endproc
 1262              	.LFE19:
 1263              		.size	COM_GetDeviceAddress, .-COM_GetDeviceAddress
 1264              		.section	.text.COM_EnableSofInt,"ax",%progbits
 1265              		.align	2
 1266              		.global	COM_EnableSofInt
 1267              		.thumb
 1268              		.thumb_func
 1269              		.type	COM_EnableSofInt, %function
 1270              	COM_EnableSofInt:
 1271              	.LFB20:
2481:Generated_Source\PSoC5/COM.c **** 
2482:Generated_Source\PSoC5/COM.c **** 
2483:Generated_Source\PSoC5/COM.c **** /*******************************************************************************
2484:Generated_Source\PSoC5/COM.c **** * Function Name: COM_EnableSofInt
2485:Generated_Source\PSoC5/COM.c **** ****************************************************************************//**
2486:Generated_Source\PSoC5/COM.c **** *
2487:Generated_Source\PSoC5/COM.c **** *  This function enables interrupt generation when a Start-of-Frame (SOF)
2488:Generated_Source\PSoC5/COM.c **** *  packet is received from the host.
2489:Generated_Source\PSoC5/COM.c **** *
2490:Generated_Source\PSoC5/COM.c **** *******************************************************************************/
2491:Generated_Source\PSoC5/COM.c **** void COM_EnableSofInt(void) 
2492:Generated_Source\PSoC5/COM.c **** {
 1272              		.loc 1 2492 0
 1273              		.cfi_startproc
 1274              		@ args = 0, pretend = 0, frame = 0
 1275              		@ frame_needed = 0, uses_anonymous_args = 0
 1276              		@ link register save eliminated.
 1277 0000 7047     		bx	lr
 1278              		.cfi_endproc
 1279              	.LFE20:
 1280              		.size	COM_EnableSofInt, .-COM_EnableSofInt
 1281 0002 00BF     		.section	.text.COM_DisableSofInt,"ax",%progbits
 1282              		.align	2
 1283              		.global	COM_DisableSofInt
 1284              		.thumb
 1285              		.thumb_func
 1286              		.type	COM_DisableSofInt, %function
 1287              	COM_DisableSofInt:
 1288              	.LFB21:
2493:Generated_Source\PSoC5/COM.c **** #if (CY_PSOC4)
2494:Generated_Source\PSoC5/COM.c ****     /* Enable SOF interrupt interrupt source. */
2495:Generated_Source\PSoC5/COM.c ****     COM_INTR_SIE_MASK_REG |= (uint32) COM_INTR_SIE_SOF_INTR;
2496:Generated_Source\PSoC5/COM.c **** #else
2497:Generated_Source\PSoC5/COM.c ****     /* Enable SOF interrupt if it is present. */
2498:Generated_Source\PSoC5/COM.c ****     #if (COM_SOF_ISR_ACTIVE)
2499:Generated_Source\PSoC5/COM.c ****         CyIntEnable(COM_SOF_VECT_NUM);
2500:Generated_Source\PSoC5/COM.c ****     #endif /* (COM_SOF_ISR_ACTIVE) */
2501:Generated_Source\PSoC5/COM.c **** #endif /* (CY_PSOC4) */
2502:Generated_Source\PSoC5/COM.c **** }
2503:Generated_Source\PSoC5/COM.c **** 
2504:Generated_Source\PSoC5/COM.c **** 
2505:Generated_Source\PSoC5/COM.c **** /*******************************************************************************
2506:Generated_Source\PSoC5/COM.c **** * Function Name: COM_DisableSofInt
ARM GAS  C:\Users\LUKASC~1\AppData\Local\Temp\ccb2ZD5o.s 			page 68


2507:Generated_Source\PSoC5/COM.c **** ****************************************************************************//**
2508:Generated_Source\PSoC5/COM.c **** *
2509:Generated_Source\PSoC5/COM.c **** *  This function disables interrupt generation when a Start-of-Frame (SOF)
2510:Generated_Source\PSoC5/COM.c **** *  packet is received from the host.
2511:Generated_Source\PSoC5/COM.c **** *
2512:Generated_Source\PSoC5/COM.c **** *******************************************************************************/
2513:Generated_Source\PSoC5/COM.c **** void COM_DisableSofInt(void) 
2514:Generated_Source\PSoC5/COM.c **** {
 1289              		.loc 1 2514 0
 1290              		.cfi_startproc
 1291              		@ args = 0, pretend = 0, frame = 0
 1292              		@ frame_needed = 0, uses_anonymous_args = 0
 1293              		@ link register save eliminated.
 1294 0000 7047     		bx	lr
 1295              		.cfi_endproc
 1296              	.LFE21:
 1297              		.size	COM_DisableSofInt, .-COM_DisableSofInt
 1298              		.global	COM_initVar
 1299 0002 00BF     		.bss
 1300              		.set	.LANCHOR0,. + 0
 1301              		.type	COM_initVar, %object
 1302              		.size	COM_initVar, 1
 1303              	COM_initVar:
 1304 0000 00       		.space	1
 1305              		.text
 1306              	.Letext0:
 1307              		.file 2 "Generated_Source\\PSoC5\\cytypes.h"
 1308              		.file 3 "Generated_Source\\PSoC5\\COM.h"
 1309              		.file 4 "Generated_Source\\PSoC5\\COM_pvt.h"
 1310              		.file 5 "Generated_Source\\PSoC5\\CyLib.h"
 1311              		.file 6 "Generated_Source\\PSoC5\\COM_Dp.h"
 1312              		.section	.debug_info,"",%progbits
 1313              	.Ldebug_info0:
 1314 0000 1A0A0000 		.4byte	0xa1a
 1315 0004 0400     		.2byte	0x4
 1316 0006 00000000 		.4byte	.Ldebug_abbrev0
 1317 000a 04       		.byte	0x4
 1318 000b 01       		.uleb128 0x1
 1319 000c 13050000 		.4byte	.LASF98
 1320 0010 01       		.byte	0x1
 1321 0011 F6010000 		.4byte	.LASF99
 1322 0015 D7000000 		.4byte	.LASF100
 1323 0019 18000000 		.4byte	.Ldebug_ranges0+0x18
 1324 001d 00000000 		.4byte	0
 1325 0021 00000000 		.4byte	.Ldebug_line0
 1326 0025 02       		.uleb128 0x2
 1327 0026 01       		.byte	0x1
 1328 0027 06       		.byte	0x6
 1329 0028 CB000000 		.4byte	.LASF0
 1330 002c 02       		.uleb128 0x2
 1331 002d 01       		.byte	0x1
 1332 002e 08       		.byte	0x8
 1333 002f 8F030000 		.4byte	.LASF1
 1334 0033 02       		.uleb128 0x2
 1335 0034 02       		.byte	0x2
 1336 0035 05       		.byte	0x5
 1337 0036 9D030000 		.4byte	.LASF2
ARM GAS  C:\Users\LUKASC~1\AppData\Local\Temp\ccb2ZD5o.s 			page 69


 1338 003a 02       		.uleb128 0x2
 1339 003b 02       		.byte	0x2
 1340 003c 07       		.byte	0x7
 1341 003d 3C020000 		.4byte	.LASF3
 1342 0041 02       		.uleb128 0x2
 1343 0042 04       		.byte	0x4
 1344 0043 05       		.byte	0x5
 1345 0044 48010000 		.4byte	.LASF4
 1346 0048 02       		.uleb128 0x2
 1347 0049 04       		.byte	0x4
 1348 004a 07       		.byte	0x7
 1349 004b 13020000 		.4byte	.LASF5
 1350 004f 02       		.uleb128 0x2
 1351 0050 08       		.byte	0x8
 1352 0051 05       		.byte	0x5
 1353 0052 BD000000 		.4byte	.LASF6
 1354 0056 02       		.uleb128 0x2
 1355 0057 08       		.byte	0x8
 1356 0058 07       		.byte	0x7
 1357 0059 7D000000 		.4byte	.LASF7
 1358 005d 03       		.uleb128 0x3
 1359 005e 04       		.byte	0x4
 1360 005f 05       		.byte	0x5
 1361 0060 696E7400 		.ascii	"int\000"
 1362 0064 02       		.uleb128 0x2
 1363 0065 04       		.byte	0x4
 1364 0066 07       		.byte	0x7
 1365 0067 D8010000 		.4byte	.LASF8
 1366 006b 04       		.uleb128 0x4
 1367 006c 63010000 		.4byte	.LASF9
 1368 0070 02       		.byte	0x2
 1369 0071 9201     		.2byte	0x192
 1370 0073 2C000000 		.4byte	0x2c
 1371 0077 04       		.uleb128 0x4
 1372 0078 00000000 		.4byte	.LASF10
 1373 007c 02       		.byte	0x2
 1374 007d 9301     		.2byte	0x193
 1375 007f 3A000000 		.4byte	0x3a
 1376 0083 04       		.uleb128 0x4
 1377 0084 99010000 		.4byte	.LASF11
 1378 0088 02       		.byte	0x2
 1379 0089 9401     		.2byte	0x194
 1380 008b 48000000 		.4byte	0x48
 1381 008f 02       		.uleb128 0x2
 1382 0090 04       		.byte	0x4
 1383 0091 04       		.byte	0x4
 1384 0092 3F030000 		.4byte	.LASF12
 1385 0096 02       		.uleb128 0x2
 1386 0097 08       		.byte	0x8
 1387 0098 04       		.byte	0x4
 1388 0099 81010000 		.4byte	.LASF13
 1389 009d 02       		.uleb128 0x2
 1390 009e 01       		.byte	0x1
 1391 009f 08       		.byte	0x8
 1392 00a0 30040000 		.4byte	.LASF14
 1393 00a4 04       		.uleb128 0x4
 1394 00a5 77030000 		.4byte	.LASF15
ARM GAS  C:\Users\LUKASC~1\AppData\Local\Temp\ccb2ZD5o.s 			page 70


 1395 00a9 02       		.byte	0x2
 1396 00aa 3C02     		.2byte	0x23c
 1397 00ac B0000000 		.4byte	0xb0
 1398 00b0 05       		.uleb128 0x5
 1399 00b1 6B000000 		.4byte	0x6b
 1400 00b5 04       		.uleb128 0x4
 1401 00b6 C8020000 		.4byte	.LASF16
 1402 00ba 02       		.byte	0x2
 1403 00bb 3E02     		.2byte	0x23e
 1404 00bd C1000000 		.4byte	0xc1
 1405 00c1 05       		.uleb128 0x5
 1406 00c2 83000000 		.4byte	0x83
 1407 00c6 04       		.uleb128 0x4
 1408 00c7 3A040000 		.4byte	.LASF17
 1409 00cb 02       		.byte	0x2
 1410 00cc 4E02     		.2byte	0x24e
 1411 00ce D2000000 		.4byte	0xd2
 1412 00d2 06       		.uleb128 0x6
 1413 00d3 04       		.byte	0x4
 1414 00d4 D8000000 		.4byte	0xd8
 1415 00d8 07       		.uleb128 0x7
 1416 00d9 02       		.uleb128 0x2
 1417 00da 04       		.byte	0x4
 1418 00db 07       		.byte	0x7
 1419 00dc D8020000 		.4byte	.LASF18
 1420 00e0 08       		.uleb128 0x8
 1421 00e1 0C       		.byte	0xc
 1422 00e2 03       		.byte	0x3
 1423 00e3 8D       		.byte	0x8d
 1424 00e4 55010000 		.4byte	0x155
 1425 00e8 09       		.uleb128 0x9
 1426 00e9 E7020000 		.4byte	.LASF19
 1427 00ed 03       		.byte	0x3
 1428 00ee 8F       		.byte	0x8f
 1429 00ef 6B000000 		.4byte	0x6b
 1430 00f3 00       		.byte	0
 1431 00f4 09       		.uleb128 0x9
 1432 00f5 4F030000 		.4byte	.LASF20
 1433 00f9 03       		.byte	0x3
 1434 00fa 90       		.byte	0x90
 1435 00fb 6B000000 		.4byte	0x6b
 1436 00ff 01       		.byte	0x1
 1437 0100 09       		.uleb128 0x9
 1438 0101 CE020000 		.4byte	.LASF21
 1439 0105 03       		.byte	0x3
 1440 0106 91       		.byte	0x91
 1441 0107 6B000000 		.4byte	0x6b
 1442 010b 02       		.byte	0x2
 1443 010c 09       		.uleb128 0x9
 1444 010d 69010000 		.4byte	.LASF22
 1445 0111 03       		.byte	0x3
 1446 0112 92       		.byte	0x92
 1447 0113 6B000000 		.4byte	0x6b
 1448 0117 03       		.byte	0x3
 1449 0118 09       		.uleb128 0x9
 1450 0119 A2000000 		.4byte	.LASF23
 1451 011d 03       		.byte	0x3
ARM GAS  C:\Users\LUKASC~1\AppData\Local\Temp\ccb2ZD5o.s 			page 71


 1452 011e 93       		.byte	0x93
 1453 011f 6B000000 		.4byte	0x6b
 1454 0123 04       		.byte	0x4
 1455 0124 09       		.uleb128 0x9
 1456 0125 A6010000 		.4byte	.LASF24
 1457 0129 03       		.byte	0x3
 1458 012a 94       		.byte	0x94
 1459 012b 6B000000 		.4byte	0x6b
 1460 012f 05       		.byte	0x5
 1461 0130 09       		.uleb128 0x9
 1462 0131 64040000 		.4byte	.LASF25
 1463 0135 03       		.byte	0x3
 1464 0136 95       		.byte	0x95
 1465 0137 77000000 		.4byte	0x77
 1466 013b 06       		.byte	0x6
 1467 013c 09       		.uleb128 0x9
 1468 013d 47040000 		.4byte	.LASF26
 1469 0141 03       		.byte	0x3
 1470 0142 96       		.byte	0x96
 1471 0143 77000000 		.4byte	0x77
 1472 0147 08       		.byte	0x8
 1473 0148 09       		.uleb128 0x9
 1474 0149 87020000 		.4byte	.LASF27
 1475 014d 03       		.byte	0x3
 1476 014e 97       		.byte	0x97
 1477 014f 6B000000 		.4byte	0x6b
 1478 0153 0A       		.byte	0xa
 1479 0154 00       		.byte	0
 1480 0155 0A       		.uleb128 0xa
 1481 0156 C5010000 		.4byte	.LASF28
 1482 015a 03       		.byte	0x3
 1483 015b 98       		.byte	0x98
 1484 015c E0000000 		.4byte	0xe0
 1485 0160 08       		.uleb128 0x8
 1486 0161 10       		.byte	0x10
 1487 0162 03       		.byte	0x3
 1488 0163 D4       		.byte	0xd4
 1489 0164 99010000 		.4byte	0x199
 1490 0168 09       		.uleb128 0x9
 1491 0169 01030000 		.4byte	.LASF29
 1492 016d 03       		.byte	0x3
 1493 016e D6       		.byte	0xd6
 1494 016f 6B000000 		.4byte	0x6b
 1495 0173 00       		.byte	0
 1496 0174 09       		.uleb128 0x9
 1497 0175 08030000 		.4byte	.LASF30
 1498 0179 03       		.byte	0x3
 1499 017a D7       		.byte	0xd7
 1500 017b 6B000000 		.4byte	0x6b
 1501 017f 01       		.byte	0x1
 1502 0180 09       		.uleb128 0x9
 1503 0181 21030000 		.4byte	.LASF31
 1504 0185 03       		.byte	0x3
 1505 0186 D8       		.byte	0xd8
 1506 0187 6B000000 		.4byte	0x6b
 1507 018b 02       		.byte	0x2
 1508 018c 0B       		.uleb128 0xb
ARM GAS  C:\Users\LUKASC~1\AppData\Local\Temp\ccb2ZD5o.s 			page 72


 1509 018d 67617000 		.ascii	"gap\000"
 1510 0191 03       		.byte	0x3
 1511 0192 D9       		.byte	0xd9
 1512 0193 99010000 		.4byte	0x199
 1513 0197 03       		.byte	0x3
 1514 0198 00       		.byte	0
 1515 0199 0C       		.uleb128 0xc
 1516 019a 6B000000 		.4byte	0x6b
 1517 019e A9010000 		.4byte	0x1a9
 1518 01a2 0D       		.uleb128 0xd
 1519 01a3 D9000000 		.4byte	0xd9
 1520 01a7 0C       		.byte	0xc
 1521 01a8 00       		.byte	0
 1522 01a9 0A       		.uleb128 0xa
 1523 01aa CF050000 		.4byte	.LASF32
 1524 01ae 03       		.byte	0x3
 1525 01af DA       		.byte	0xda
 1526 01b0 60010000 		.4byte	0x160
 1527 01b4 08       		.uleb128 0x8
 1528 01b5 10       		.byte	0x10
 1529 01b6 03       		.byte	0x3
 1530 01b7 E6       		.byte	0xe6
 1531 01b8 35020000 		.4byte	0x235
 1532 01bc 09       		.uleb128 0x9
 1533 01bd A7000000 		.4byte	.LASF33
 1534 01c1 03       		.byte	0x3
 1535 01c2 E8       		.byte	0xe8
 1536 01c3 6B000000 		.4byte	0x6b
 1537 01c7 00       		.byte	0
 1538 01c8 09       		.uleb128 0x9
 1539 01c9 B0050000 		.4byte	.LASF34
 1540 01cd 03       		.byte	0x3
 1541 01ce E9       		.byte	0xe9
 1542 01cf 6B000000 		.4byte	0x6b
 1543 01d3 01       		.byte	0x1
 1544 01d4 09       		.uleb128 0x9
 1545 01d5 94010000 		.4byte	.LASF35
 1546 01d9 03       		.byte	0x3
 1547 01da EA       		.byte	0xea
 1548 01db 6B000000 		.4byte	0x6b
 1549 01df 02       		.byte	0x2
 1550 01e0 09       		.uleb128 0x9
 1551 01e1 AD010000 		.4byte	.LASF36
 1552 01e5 03       		.byte	0x3
 1553 01e6 EB       		.byte	0xeb
 1554 01e7 6B000000 		.4byte	0x6b
 1555 01eb 03       		.byte	0x3
 1556 01ec 09       		.uleb128 0x9
 1557 01ed 72010000 		.4byte	.LASF37
 1558 01f1 03       		.byte	0x3
 1559 01f2 EC       		.byte	0xec
 1560 01f3 6B000000 		.4byte	0x6b
 1561 01f7 04       		.byte	0x4
 1562 01f8 09       		.uleb128 0x9
 1563 01f9 D1030000 		.4byte	.LASF38
 1564 01fd 03       		.byte	0x3
 1565 01fe ED       		.byte	0xed
ARM GAS  C:\Users\LUKASC~1\AppData\Local\Temp\ccb2ZD5o.s 			page 73


 1566 01ff 6B000000 		.4byte	0x6b
 1567 0203 05       		.byte	0x5
 1568 0204 09       		.uleb128 0x9
 1569 0205 CC030000 		.4byte	.LASF39
 1570 0209 03       		.byte	0x3
 1571 020a EE       		.byte	0xee
 1572 020b 6B000000 		.4byte	0x6b
 1573 020f 06       		.byte	0x6
 1574 0210 09       		.uleb128 0x9
 1575 0211 F9020000 		.4byte	.LASF40
 1576 0215 03       		.byte	0x3
 1577 0216 EF       		.byte	0xef
 1578 0217 6B000000 		.4byte	0x6b
 1579 021b 07       		.byte	0x7
 1580 021c 09       		.uleb128 0x9
 1581 021d A1050000 		.4byte	.LASF41
 1582 0221 03       		.byte	0x3
 1583 0222 F0       		.byte	0xf0
 1584 0223 6B000000 		.4byte	0x6b
 1585 0227 08       		.byte	0x8
 1586 0228 0B       		.uleb128 0xb
 1587 0229 67617000 		.ascii	"gap\000"
 1588 022d 03       		.byte	0x3
 1589 022e F1       		.byte	0xf1
 1590 022f 35020000 		.4byte	0x235
 1591 0233 09       		.byte	0x9
 1592 0234 00       		.byte	0
 1593 0235 0C       		.uleb128 0xc
 1594 0236 6B000000 		.4byte	0x6b
 1595 023a 45020000 		.4byte	0x245
 1596 023e 0D       		.uleb128 0xd
 1597 023f D9000000 		.4byte	0xd9
 1598 0243 06       		.byte	0x6
 1599 0244 00       		.byte	0
 1600 0245 0A       		.uleb128 0xa
 1601 0246 52040000 		.4byte	.LASF42
 1602 024a 03       		.byte	0x3
 1603 024b F2       		.byte	0xf2
 1604 024c B4010000 		.4byte	0x1b4
 1605 0250 0E       		.uleb128 0xe
 1606 0251 90       		.byte	0x90
 1607 0252 03       		.byte	0x3
 1608 0253 0E01     		.2byte	0x10e
 1609 0255 67020000 		.4byte	0x267
 1610 0259 0F       		.uleb128 0xf
 1611 025a E1020000 		.4byte	.LASF43
 1612 025e 03       		.byte	0x3
 1613 025f 1001     		.2byte	0x110
 1614 0261 67020000 		.4byte	0x267
 1615 0265 00       		.byte	0
 1616 0266 00       		.byte	0
 1617 0267 0C       		.uleb128 0xc
 1618 0268 A9010000 		.4byte	0x1a9
 1619 026c 77020000 		.4byte	0x277
 1620 0270 0D       		.uleb128 0xd
 1621 0271 D9000000 		.4byte	0xd9
 1622 0275 08       		.byte	0x8
ARM GAS  C:\Users\LUKASC~1\AppData\Local\Temp\ccb2ZD5o.s 			page 74


 1623 0276 00       		.byte	0
 1624 0277 04       		.uleb128 0x4
 1625 0278 07000000 		.4byte	.LASF44
 1626 027c 03       		.byte	0x3
 1627 027d 1101     		.2byte	0x111
 1628 027f 50020000 		.4byte	0x250
 1629 0283 0E       		.uleb128 0xe
 1630 0284 90       		.byte	0x90
 1631 0285 03       		.byte	0x3
 1632 0286 1401     		.2byte	0x114
 1633 0288 9A020000 		.4byte	0x29a
 1634 028c 0F       		.uleb128 0xf
 1635 028d 81020000 		.4byte	.LASF45
 1636 0291 03       		.byte	0x3
 1637 0292 1601     		.2byte	0x116
 1638 0294 9A020000 		.4byte	0x29a
 1639 0298 00       		.byte	0
 1640 0299 00       		.byte	0
 1641 029a 0C       		.uleb128 0xc
 1642 029b 45020000 		.4byte	0x245
 1643 029f AA020000 		.4byte	0x2aa
 1644 02a3 0D       		.uleb128 0xd
 1645 02a4 D9000000 		.4byte	0xd9
 1646 02a8 08       		.byte	0x8
 1647 02a9 00       		.byte	0
 1648 02aa 04       		.uleb128 0x4
 1649 02ab 30000000 		.4byte	.LASF46
 1650 02af 03       		.byte	0x3
 1651 02b0 1701     		.2byte	0x117
 1652 02b2 83020000 		.4byte	0x283
 1653 02b6 10       		.uleb128 0x10
 1654 02b7 E7040000 		.4byte	.LASF47
 1655 02bb 01       		.byte	0x1
 1656 02bc D3       		.byte	0xd3
 1657 02bd 00000000 		.4byte	.LFB1
 1658 02c1 68010000 		.4byte	.LFE1-.LFB1
 1659 02c5 01       		.uleb128 0x1
 1660 02c6 9C       		.byte	0x9c
 1661 02c7 CC040000 		.4byte	0x4cc
 1662 02cb 11       		.uleb128 0x11
 1663 02cc F0040000 		.4byte	.LASF53
 1664 02d0 01       		.byte	0x1
 1665 02d1 FA       		.byte	0xfa
 1666 02d2 6B000000 		.4byte	0x6b
 1667 02d6 00000000 		.4byte	.LLST0
 1668 02da 12       		.uleb128 0x12
 1669 02db 06000000 		.4byte	.LVL0
 1670 02df A4090000 		.4byte	0x9a4
 1671 02e3 13       		.uleb128 0x13
 1672 02e4 3C000000 		.4byte	.LVL2
 1673 02e8 AF090000 		.4byte	0x9af
 1674 02ec F6020000 		.4byte	0x2f6
 1675 02f0 14       		.uleb128 0x14
 1676 02f1 01       		.uleb128 0x1
 1677 02f2 50       		.byte	0x50
 1678 02f3 01       		.uleb128 0x1
 1679 02f4 30       		.byte	0x30
ARM GAS  C:\Users\LUKASC~1\AppData\Local\Temp\ccb2ZD5o.s 			page 75


 1680 02f5 00       		.byte	0
 1681 02f6 13       		.uleb128 0x13
 1682 02f7 5C000000 		.4byte	.LVL3
 1683 02fb AF090000 		.4byte	0x9af
 1684 02ff 0A030000 		.4byte	0x30a
 1685 0303 14       		.uleb128 0x14
 1686 0304 01       		.uleb128 0x1
 1687 0305 50       		.byte	0x50
 1688 0306 02       		.uleb128 0x2
 1689 0307 76       		.byte	0x76
 1690 0308 00       		.sleb128 0
 1691 0309 00       		.byte	0
 1692 030a 13       		.uleb128 0x13
 1693 030b 62000000 		.4byte	.LVL4
 1694 030f AF090000 		.4byte	0x9af
 1695 0313 1E030000 		.4byte	0x31e
 1696 0317 14       		.uleb128 0x14
 1697 0318 01       		.uleb128 0x1
 1698 0319 50       		.byte	0x50
 1699 031a 02       		.uleb128 0x2
 1700 031b 08       		.byte	0x8
 1701 031c 28       		.byte	0x28
 1702 031d 00       		.byte	0
 1703 031e 13       		.uleb128 0x13
 1704 031f 80000000 		.4byte	.LVL5
 1705 0323 AF090000 		.4byte	0x9af
 1706 0327 32030000 		.4byte	0x332
 1707 032b 14       		.uleb128 0x14
 1708 032c 01       		.uleb128 0x1
 1709 032d 50       		.byte	0x50
 1710 032e 02       		.uleb128 0x2
 1711 032f 75       		.byte	0x75
 1712 0330 00       		.sleb128 0
 1713 0331 00       		.byte	0
 1714 0332 13       		.uleb128 0x13
 1715 0333 98000000 		.4byte	.LVL6
 1716 0337 C0090000 		.4byte	0x9c0
 1717 033b 46030000 		.4byte	0x346
 1718 033f 14       		.uleb128 0x14
 1719 0340 01       		.uleb128 0x1
 1720 0341 50       		.byte	0x50
 1721 0342 02       		.uleb128 0x2
 1722 0343 77       		.byte	0x77
 1723 0344 00       		.sleb128 0
 1724 0345 00       		.byte	0
 1725 0346 13       		.uleb128 0x13
 1726 0347 A0000000 		.4byte	.LVL7
 1727 034b D1090000 		.4byte	0x9d1
 1728 034f 5E030000 		.4byte	0x35e
 1729 0353 14       		.uleb128 0x14
 1730 0354 01       		.uleb128 0x1
 1731 0355 51       		.byte	0x51
 1732 0356 01       		.uleb128 0x1
 1733 0357 37       		.byte	0x37
 1734 0358 14       		.uleb128 0x14
 1735 0359 01       		.uleb128 0x1
 1736 035a 50       		.byte	0x50
ARM GAS  C:\Users\LUKASC~1\AppData\Local\Temp\ccb2ZD5o.s 			page 76


 1737 035b 01       		.uleb128 0x1
 1738 035c 47       		.byte	0x47
 1739 035d 00       		.byte	0
 1740 035e 13       		.uleb128 0x13
 1741 035f A8000000 		.4byte	.LVL8
 1742 0363 E7090000 		.4byte	0x9e7
 1743 0367 71030000 		.4byte	0x371
 1744 036b 14       		.uleb128 0x14
 1745 036c 01       		.uleb128 0x1
 1746 036d 50       		.byte	0x50
 1747 036e 01       		.uleb128 0x1
 1748 036f 47       		.byte	0x47
 1749 0370 00       		.byte	0
 1750 0371 13       		.uleb128 0x13
 1751 0372 B0000000 		.4byte	.LVL9
 1752 0376 D1090000 		.4byte	0x9d1
 1753 037a 89030000 		.4byte	0x389
 1754 037e 14       		.uleb128 0x14
 1755 037f 01       		.uleb128 0x1
 1756 0380 51       		.byte	0x51
 1757 0381 01       		.uleb128 0x1
 1758 0382 37       		.byte	0x37
 1759 0383 14       		.uleb128 0x14
 1760 0384 01       		.uleb128 0x1
 1761 0385 50       		.byte	0x50
 1762 0386 01       		.uleb128 0x1
 1763 0387 48       		.byte	0x48
 1764 0388 00       		.byte	0
 1765 0389 13       		.uleb128 0x13
 1766 038a B8000000 		.4byte	.LVL10
 1767 038e E7090000 		.4byte	0x9e7
 1768 0392 9C030000 		.4byte	0x39c
 1769 0396 14       		.uleb128 0x14
 1770 0397 01       		.uleb128 0x1
 1771 0398 50       		.byte	0x50
 1772 0399 01       		.uleb128 0x1
 1773 039a 48       		.byte	0x48
 1774 039b 00       		.byte	0
 1775 039c 13       		.uleb128 0x13
 1776 039d C0000000 		.4byte	.LVL11
 1777 03a1 D1090000 		.4byte	0x9d1
 1778 03a5 B5030000 		.4byte	0x3b5
 1779 03a9 14       		.uleb128 0x14
 1780 03aa 01       		.uleb128 0x1
 1781 03ab 51       		.byte	0x51
 1782 03ac 01       		.uleb128 0x1
 1783 03ad 37       		.byte	0x37
 1784 03ae 14       		.uleb128 0x14
 1785 03af 01       		.uleb128 0x1
 1786 03b0 50       		.byte	0x50
 1787 03b1 02       		.uleb128 0x2
 1788 03b2 74       		.byte	0x74
 1789 03b3 00       		.sleb128 0
 1790 03b4 00       		.byte	0
 1791 03b5 13       		.uleb128 0x13
 1792 03b6 C8000000 		.4byte	.LVL12
 1793 03ba E7090000 		.4byte	0x9e7
ARM GAS  C:\Users\LUKASC~1\AppData\Local\Temp\ccb2ZD5o.s 			page 77


 1794 03be C9030000 		.4byte	0x3c9
 1795 03c2 14       		.uleb128 0x14
 1796 03c3 01       		.uleb128 0x1
 1797 03c4 50       		.byte	0x50
 1798 03c5 02       		.uleb128 0x2
 1799 03c6 74       		.byte	0x74
 1800 03c7 00       		.sleb128 0
 1801 03c8 00       		.byte	0
 1802 03c9 13       		.uleb128 0x13
 1803 03ca D0000000 		.4byte	.LVL13
 1804 03ce D1090000 		.4byte	0x9d1
 1805 03d2 E2030000 		.4byte	0x3e2
 1806 03d6 14       		.uleb128 0x14
 1807 03d7 01       		.uleb128 0x1
 1808 03d8 51       		.byte	0x51
 1809 03d9 01       		.uleb128 0x1
 1810 03da 37       		.byte	0x37
 1811 03db 14       		.uleb128 0x14
 1812 03dc 01       		.uleb128 0x1
 1813 03dd 50       		.byte	0x50
 1814 03de 02       		.uleb128 0x2
 1815 03df 76       		.byte	0x76
 1816 03e0 00       		.sleb128 0
 1817 03e1 00       		.byte	0
 1818 03e2 13       		.uleb128 0x13
 1819 03e3 D8000000 		.4byte	.LVL14
 1820 03e7 E7090000 		.4byte	0x9e7
 1821 03eb F6030000 		.4byte	0x3f6
 1822 03ef 14       		.uleb128 0x14
 1823 03f0 01       		.uleb128 0x1
 1824 03f1 50       		.byte	0x50
 1825 03f2 02       		.uleb128 0x2
 1826 03f3 76       		.byte	0x76
 1827 03f4 00       		.sleb128 0
 1828 03f5 00       		.byte	0
 1829 03f6 13       		.uleb128 0x13
 1830 03f7 E0000000 		.4byte	.LVL15
 1831 03fb D1090000 		.4byte	0x9d1
 1832 03ff 0F040000 		.4byte	0x40f
 1833 0403 14       		.uleb128 0x14
 1834 0404 01       		.uleb128 0x1
 1835 0405 51       		.byte	0x51
 1836 0406 01       		.uleb128 0x1
 1837 0407 37       		.byte	0x37
 1838 0408 14       		.uleb128 0x14
 1839 0409 01       		.uleb128 0x1
 1840 040a 50       		.byte	0x50
 1841 040b 02       		.uleb128 0x2
 1842 040c 75       		.byte	0x75
 1843 040d 00       		.sleb128 0
 1844 040e 00       		.byte	0
 1845 040f 13       		.uleb128 0x13
 1846 0410 E8000000 		.4byte	.LVL16
 1847 0414 E7090000 		.4byte	0x9e7
 1848 0418 23040000 		.4byte	0x423
 1849 041c 14       		.uleb128 0x14
 1850 041d 01       		.uleb128 0x1
ARM GAS  C:\Users\LUKASC~1\AppData\Local\Temp\ccb2ZD5o.s 			page 78


 1851 041e 50       		.byte	0x50
 1852 041f 02       		.uleb128 0x2
 1853 0420 75       		.byte	0x75
 1854 0421 00       		.sleb128 0
 1855 0422 00       		.byte	0
 1856 0423 13       		.uleb128 0x13
 1857 0424 F0000000 		.4byte	.LVL17
 1858 0428 D1090000 		.4byte	0x9d1
 1859 042c 3B040000 		.4byte	0x43b
 1860 0430 14       		.uleb128 0x14
 1861 0431 01       		.uleb128 0x1
 1862 0432 51       		.byte	0x51
 1863 0433 01       		.uleb128 0x1
 1864 0434 37       		.byte	0x37
 1865 0435 14       		.uleb128 0x14
 1866 0436 01       		.uleb128 0x1
 1867 0437 50       		.byte	0x50
 1868 0438 01       		.uleb128 0x1
 1869 0439 33       		.byte	0x33
 1870 043a 00       		.byte	0
 1871 043b 13       		.uleb128 0x13
 1872 043c F8000000 		.4byte	.LVL18
 1873 0440 E7090000 		.4byte	0x9e7
 1874 0444 4E040000 		.4byte	0x44e
 1875 0448 14       		.uleb128 0x14
 1876 0449 01       		.uleb128 0x1
 1877 044a 50       		.byte	0x50
 1878 044b 01       		.uleb128 0x1
 1879 044c 33       		.byte	0x33
 1880 044d 00       		.byte	0
 1881 044e 13       		.uleb128 0x13
 1882 044f 00010000 		.4byte	.LVL19
 1883 0453 D1090000 		.4byte	0x9d1
 1884 0457 66040000 		.4byte	0x466
 1885 045b 14       		.uleb128 0x14
 1886 045c 01       		.uleb128 0x1
 1887 045d 51       		.byte	0x51
 1888 045e 01       		.uleb128 0x1
 1889 045f 37       		.byte	0x37
 1890 0460 14       		.uleb128 0x14
 1891 0461 01       		.uleb128 0x1
 1892 0462 50       		.byte	0x50
 1893 0463 01       		.uleb128 0x1
 1894 0464 34       		.byte	0x34
 1895 0465 00       		.byte	0
 1896 0466 13       		.uleb128 0x13
 1897 0467 08010000 		.4byte	.LVL20
 1898 046b E7090000 		.4byte	0x9e7
 1899 046f 79040000 		.4byte	0x479
 1900 0473 14       		.uleb128 0x14
 1901 0474 01       		.uleb128 0x1
 1902 0475 50       		.byte	0x50
 1903 0476 01       		.uleb128 0x1
 1904 0477 34       		.byte	0x34
 1905 0478 00       		.byte	0
 1906 0479 13       		.uleb128 0x13
 1907 047a 10010000 		.4byte	.LVL21
ARM GAS  C:\Users\LUKASC~1\AppData\Local\Temp\ccb2ZD5o.s 			page 79


 1908 047e D1090000 		.4byte	0x9d1
 1909 0482 91040000 		.4byte	0x491
 1910 0486 14       		.uleb128 0x14
 1911 0487 01       		.uleb128 0x1
 1912 0488 51       		.byte	0x51
 1913 0489 01       		.uleb128 0x1
 1914 048a 37       		.byte	0x37
 1915 048b 14       		.uleb128 0x14
 1916 048c 01       		.uleb128 0x1
 1917 048d 50       		.byte	0x50
 1918 048e 01       		.uleb128 0x1
 1919 048f 35       		.byte	0x35
 1920 0490 00       		.byte	0
 1921 0491 13       		.uleb128 0x13
 1922 0492 18010000 		.4byte	.LVL22
 1923 0496 E7090000 		.4byte	0x9e7
 1924 049a A4040000 		.4byte	0x4a4
 1925 049e 14       		.uleb128 0x14
 1926 049f 01       		.uleb128 0x1
 1927 04a0 50       		.byte	0x50
 1928 04a1 01       		.uleb128 0x1
 1929 04a2 35       		.byte	0x35
 1930 04a3 00       		.byte	0
 1931 04a4 13       		.uleb128 0x13
 1932 04a5 20010000 		.4byte	.LVL23
 1933 04a9 D1090000 		.4byte	0x9d1
 1934 04ad BC040000 		.4byte	0x4bc
 1935 04b1 14       		.uleb128 0x14
 1936 04b2 01       		.uleb128 0x1
 1937 04b3 51       		.byte	0x51
 1938 04b4 01       		.uleb128 0x1
 1939 04b5 37       		.byte	0x37
 1940 04b6 14       		.uleb128 0x14
 1941 04b7 01       		.uleb128 0x1
 1942 04b8 50       		.byte	0x50
 1943 04b9 01       		.uleb128 0x1
 1944 04ba 3C       		.byte	0x3c
 1945 04bb 00       		.byte	0
 1946 04bc 15       		.uleb128 0x15
 1947 04bd 28010000 		.4byte	.LVL24
 1948 04c1 E7090000 		.4byte	0x9e7
 1949 04c5 14       		.uleb128 0x14
 1950 04c6 01       		.uleb128 0x1
 1951 04c7 50       		.byte	0x50
 1952 04c8 01       		.uleb128 0x1
 1953 04c9 3C       		.byte	0x3c
 1954 04ca 00       		.byte	0
 1955 04cb 00       		.byte	0
 1956 04cc 16       		.uleb128 0x16
 1957 04cd D5040000 		.4byte	.LASF48
 1958 04d1 01       		.byte	0x1
 1959 04d2 CC01     		.2byte	0x1cc
 1960 04d4 00000000 		.4byte	.LFB2
 1961 04d8 C0000000 		.4byte	.LFE2-.LFB2
 1962 04dc 01       		.uleb128 0x1
 1963 04dd 9C       		.byte	0x9c
 1964 04de 12050000 		.4byte	0x512
ARM GAS  C:\Users\LUKASC~1\AppData\Local\Temp\ccb2ZD5o.s 			page 80


 1965 04e2 17       		.uleb128 0x17
 1966 04e3 B6000000 		.4byte	.LASF49
 1967 04e7 01       		.byte	0x1
 1968 04e8 CC01     		.2byte	0x1cc
 1969 04ea 6B000000 		.4byte	0x6b
 1970 04ee 13000000 		.4byte	.LLST1
 1971 04f2 17       		.uleb128 0x17
 1972 04f3 35040000 		.4byte	.LASF50
 1973 04f7 01       		.byte	0x1
 1974 04f8 CC01     		.2byte	0x1cc
 1975 04fa 6B000000 		.4byte	0x6b
 1976 04fe 34000000 		.4byte	.LLST2
 1977 0502 15       		.uleb128 0x15
 1978 0503 86000000 		.4byte	.LVL28
 1979 0507 010A0000 		.4byte	0xa01
 1980 050b 14       		.uleb128 0x14
 1981 050c 01       		.uleb128 0x1
 1982 050d 50       		.byte	0x50
 1983 050e 01       		.uleb128 0x1
 1984 050f 31       		.byte	0x31
 1985 0510 00       		.byte	0
 1986 0511 00       		.byte	0
 1987 0512 10       		.uleb128 0x10
 1988 0513 45030000 		.4byte	.LASF51
 1989 0517 01       		.byte	0x1
 1990 0518 BA       		.byte	0xba
 1991 0519 00000000 		.4byte	.LFB0
 1992 051d 24000000 		.4byte	.LFE0-.LFB0
 1993 0521 01       		.uleb128 0x1
 1994 0522 9C       		.byte	0x9c
 1995 0523 65050000 		.4byte	0x565
 1996 0527 18       		.uleb128 0x18
 1997 0528 B6000000 		.4byte	.LASF49
 1998 052c 01       		.byte	0x1
 1999 052d BA       		.byte	0xba
 2000 052e 6B000000 		.4byte	0x6b
 2001 0532 55000000 		.4byte	.LLST3
 2002 0536 18       		.uleb128 0x18
 2003 0537 35040000 		.4byte	.LASF50
 2004 053b 01       		.byte	0x1
 2005 053c BA       		.byte	0xba
 2006 053d 6B000000 		.4byte	0x6b
 2007 0541 76000000 		.4byte	.LLST4
 2008 0545 12       		.uleb128 0x12
 2009 0546 10000000 		.4byte	.LVL30
 2010 054a B6020000 		.4byte	0x2b6
 2011 054e 15       		.uleb128 0x15
 2012 054f 1E000000 		.4byte	.LVL31
 2013 0553 CC040000 		.4byte	0x4cc
 2014 0557 14       		.uleb128 0x14
 2015 0558 01       		.uleb128 0x1
 2016 0559 51       		.byte	0x51
 2017 055a 02       		.uleb128 0x2
 2018 055b 74       		.byte	0x74
 2019 055c 00       		.sleb128 0
 2020 055d 14       		.uleb128 0x14
 2021 055e 01       		.uleb128 0x1
ARM GAS  C:\Users\LUKASC~1\AppData\Local\Temp\ccb2ZD5o.s 			page 81


 2022 055f 50       		.byte	0x50
 2023 0560 02       		.uleb128 0x2
 2024 0561 75       		.byte	0x75
 2025 0562 00       		.sleb128 0
 2026 0563 00       		.byte	0
 2027 0564 00       		.byte	0
 2028 0565 19       		.uleb128 0x19
 2029 0566 A7030000 		.4byte	.LASF78
 2030 056a 01       		.byte	0x1
 2031 056b 9F02     		.2byte	0x29f
 2032 056d 00000000 		.4byte	.LFB3
 2033 0571 4C000000 		.4byte	.LFE3-.LFB3
 2034 0575 01       		.uleb128 0x1
 2035 0576 9C       		.byte	0x9c
 2036 0577 16       		.uleb128 0x16
 2037 0578 AD020000 		.4byte	.LASF52
 2038 057c 01       		.byte	0x1
 2039 057d D902     		.2byte	0x2d9
 2040 057f 00000000 		.4byte	.LFB4
 2041 0583 C0000000 		.4byte	.LFE4-.LFB4
 2042 0587 01       		.uleb128 0x1
 2043 0588 9C       		.byte	0x9c
 2044 0589 B9050000 		.4byte	0x5b9
 2045 058d 1A       		.uleb128 0x1a
 2046 058e F0040000 		.4byte	.LASF53
 2047 0592 01       		.byte	0x1
 2048 0593 DB02     		.2byte	0x2db
 2049 0595 6B000000 		.4byte	0x6b
 2050 0599 97000000 		.4byte	.LLST5
 2051 059d 12       		.uleb128 0x12
 2052 059e 06000000 		.4byte	.LVL32
 2053 05a2 A4090000 		.4byte	0x9a4
 2054 05a6 12       		.uleb128 0x12
 2055 05a7 48000000 		.4byte	.LVL33
 2056 05ab C0090000 		.4byte	0x9c0
 2057 05af 12       		.uleb128 0x12
 2058 05b0 72000000 		.4byte	.LVL34
 2059 05b4 120A0000 		.4byte	0xa12
 2060 05b8 00       		.byte	0
 2061 05b9 1B       		.uleb128 0x1b
 2062 05ba B6020000 		.4byte	.LASF55
 2063 05be 01       		.byte	0x1
 2064 05bf 5103     		.2byte	0x351
 2065 05c1 6B000000 		.4byte	0x6b
 2066 05c5 00000000 		.4byte	.LFB5
 2067 05c9 20000000 		.4byte	.LFE5-.LFB5
 2068 05cd 01       		.uleb128 0x1
 2069 05ce 9C       		.byte	0x9c
 2070 05cf E4050000 		.4byte	0x5e4
 2071 05d3 1A       		.uleb128 0x1a
 2072 05d4 91020000 		.4byte	.LASF54
 2073 05d8 01       		.byte	0x1
 2074 05d9 5303     		.2byte	0x353
 2075 05db 6B000000 		.4byte	0x6b
 2076 05df AA000000 		.4byte	.LLST6
 2077 05e3 00       		.byte	0
 2078 05e4 1C       		.uleb128 0x1c
ARM GAS  C:\Users\LUKASC~1\AppData\Local\Temp\ccb2ZD5o.s 			page 82


 2079 05e5 7F040000 		.4byte	.LASF76
 2080 05e9 01       		.byte	0x1
 2081 05ea 6803     		.2byte	0x368
 2082 05ec 6B000000 		.4byte	0x6b
 2083 05f0 00000000 		.4byte	.LFB6
 2084 05f4 0C000000 		.4byte	.LFE6-.LFB6
 2085 05f8 01       		.uleb128 0x1
 2086 05f9 9C       		.byte	0x9c
 2087 05fa 1B       		.uleb128 0x1b
 2088 05fb A1040000 		.4byte	.LASF56
 2089 05ff 01       		.byte	0x1
 2090 0600 8203     		.2byte	0x382
 2091 0602 6B000000 		.4byte	0x6b
 2092 0606 00000000 		.4byte	.LFB7
 2093 060a 20000000 		.4byte	.LFE7-.LFB7
 2094 060e 01       		.uleb128 0x1
 2095 060f 9C       		.byte	0x9c
 2096 0610 25060000 		.4byte	0x625
 2097 0614 1D       		.uleb128 0x1d
 2098 0615 72657300 		.ascii	"res\000"
 2099 0619 01       		.byte	0x1
 2100 061a 8403     		.2byte	0x384
 2101 061c 6B000000 		.4byte	0x6b
 2102 0620 BD000000 		.4byte	.LLST7
 2103 0624 00       		.byte	0
 2104 0625 1B       		.uleb128 0x1b
 2105 0626 27030000 		.4byte	.LASF57
 2106 062a 01       		.byte	0x1
 2107 062b 9F03     		.2byte	0x39f
 2108 062d 6B000000 		.4byte	0x6b
 2109 0631 00000000 		.4byte	.LFB8
 2110 0635 0C000000 		.4byte	.LFE8-.LFB8
 2111 0639 01       		.uleb128 0x1
 2112 063a 9C       		.byte	0x9c
 2113 063b 50060000 		.4byte	0x650
 2114 063f 17       		.uleb128 0x17
 2115 0640 6F040000 		.4byte	.LASF58
 2116 0644 01       		.byte	0x1
 2117 0645 9F03     		.2byte	0x39f
 2118 0647 6B000000 		.4byte	0x6b
 2119 064b F3000000 		.4byte	.LLST8
 2120 064f 00       		.byte	0
 2121 0650 1B       		.uleb128 0x1b
 2122 0651 68030000 		.4byte	.LASF59
 2123 0655 01       		.byte	0x1
 2124 0656 BF03     		.2byte	0x3bf
 2125 0658 6B000000 		.4byte	0x6b
 2126 065c 00000000 		.4byte	.LFB9
 2127 0660 14000000 		.4byte	.LFE9-.LFB9
 2128 0664 01       		.uleb128 0x1
 2129 0665 9C       		.byte	0x9c
 2130 0666 7B060000 		.4byte	0x67b
 2131 066a 17       		.uleb128 0x17
 2132 066b AD000000 		.4byte	.LASF60
 2133 066f 01       		.byte	0x1
 2134 0670 BF03     		.2byte	0x3bf
 2135 0672 6B000000 		.4byte	0x6b
ARM GAS  C:\Users\LUKASC~1\AppData\Local\Temp\ccb2ZD5o.s 			page 83


 2136 0676 14010000 		.4byte	.LLST9
 2137 067a 00       		.byte	0
 2138 067b 1B       		.uleb128 0x1b
 2139 067c 08040000 		.4byte	.LASF61
 2140 0680 01       		.byte	0x1
 2141 0681 D603     		.2byte	0x3d6
 2142 0683 77000000 		.4byte	0x77
 2143 0687 00000000 		.4byte	.LFB10
 2144 068b 28000000 		.4byte	.LFE10-.LFB10
 2145 068f 01       		.uleb128 0x1
 2146 0690 9C       		.byte	0x9c
 2147 0691 B6060000 		.4byte	0x6b6
 2148 0695 17       		.uleb128 0x17
 2149 0696 AD000000 		.4byte	.LASF60
 2150 069a 01       		.byte	0x1
 2151 069b D603     		.2byte	0x3d6
 2152 069d 6B000000 		.4byte	0x6b
 2153 06a1 35010000 		.4byte	.LLST10
 2154 06a5 1A       		.uleb128 0x1a
 2155 06a6 43010000 		.4byte	.LASF62
 2156 06aa 01       		.byte	0x1
 2157 06ab D803     		.2byte	0x3d8
 2158 06ad 77000000 		.4byte	0x77
 2159 06b1 6F010000 		.4byte	.LLST11
 2160 06b5 00       		.byte	0
 2161 06b6 16       		.uleb128 0x16
 2162 06b7 94040000 		.4byte	.LASF63
 2163 06bb 01       		.byte	0x1
 2164 06bc 3E05     		.2byte	0x53e
 2165 06be 00000000 		.4byte	.LFB11
 2166 06c2 94000000 		.4byte	.LFE11-.LFB11
 2167 06c6 01       		.uleb128 0x1
 2168 06c7 9C       		.byte	0x9c
 2169 06c8 0F070000 		.4byte	0x70f
 2170 06cc 17       		.uleb128 0x17
 2171 06cd AD000000 		.4byte	.LASF60
 2172 06d1 01       		.byte	0x1
 2173 06d2 3E05     		.2byte	0x53e
 2174 06d4 6B000000 		.4byte	0x6b
 2175 06d8 BD010000 		.4byte	.LLST12
 2176 06dc 1E       		.uleb128 0x1e
 2177 06dd A0010000 		.4byte	.LASF64
 2178 06e1 01       		.byte	0x1
 2179 06e2 3E05     		.2byte	0x53e
 2180 06e4 0F070000 		.4byte	0x70f
 2181 06e8 01       		.uleb128 0x1
 2182 06e9 51       		.byte	0x51
 2183 06ea 17       		.uleb128 0x17
 2184 06eb 29040000 		.4byte	.LASF65
 2185 06ef 01       		.byte	0x1
 2186 06f0 3E05     		.2byte	0x53e
 2187 06f2 77000000 		.4byte	0x77
 2188 06f6 DE010000 		.4byte	.LLST13
 2189 06fa 1F       		.uleb128 0x1f
 2190 06fb 00000000 		.4byte	.Ldebug_ranges0+0
 2191 06ff 1D       		.uleb128 0x1d
 2192 0700 6900     		.ascii	"i\000"
ARM GAS  C:\Users\LUKASC~1\AppData\Local\Temp\ccb2ZD5o.s 			page 84


 2193 0702 01       		.byte	0x1
 2194 0703 5305     		.2byte	0x553
 2195 0705 77000000 		.4byte	0x77
 2196 0709 0A020000 		.4byte	.LLST14
 2197 070d 00       		.byte	0
 2198 070e 00       		.byte	0
 2199 070f 06       		.uleb128 0x6
 2200 0710 04       		.byte	0x4
 2201 0711 15070000 		.4byte	0x715
 2202 0715 20       		.uleb128 0x20
 2203 0716 6B000000 		.4byte	0x6b
 2204 071a 16       		.uleb128 0x16
 2205 071b B8050000 		.4byte	.LASF66
 2206 071f 01       		.byte	0x1
 2207 0720 E408     		.2byte	0x8e4
 2208 0722 00000000 		.4byte	.LFB13
 2209 0726 2C000000 		.4byte	.LFE13-.LFB13
 2210 072a 01       		.uleb128 0x1
 2211 072b 9C       		.byte	0x9c
 2212 072c 41070000 		.4byte	0x741
 2213 0730 17       		.uleb128 0x17
 2214 0731 AD000000 		.4byte	.LASF60
 2215 0735 01       		.byte	0x1
 2216 0736 E408     		.2byte	0x8e4
 2217 0738 6B000000 		.4byte	0x6b
 2218 073c 33020000 		.4byte	.LLST15
 2219 0740 00       		.byte	0
 2220 0741 1B       		.uleb128 0x1b
 2221 0742 94000000 		.4byte	.LASF67
 2222 0746 01       		.byte	0x1
 2223 0747 7506     		.2byte	0x675
 2224 0749 77000000 		.4byte	0x77
 2225 074d 00000000 		.4byte	.LFB12
 2226 0751 50000000 		.4byte	.LFE12-.LFB12
 2227 0755 01       		.uleb128 0x1
 2228 0756 9C       		.byte	0x9c
 2229 0757 E0070000 		.4byte	0x7e0
 2230 075b 17       		.uleb128 0x17
 2231 075c AD000000 		.4byte	.LASF60
 2232 0760 01       		.byte	0x1
 2233 0761 7506     		.2byte	0x675
 2234 0763 6B000000 		.4byte	0x6b
 2235 0767 54020000 		.4byte	.LLST16
 2236 076b 17       		.uleb128 0x17
 2237 076c A0010000 		.4byte	.LASF64
 2238 0770 01       		.byte	0x1
 2239 0771 7506     		.2byte	0x675
 2240 0773 E0070000 		.4byte	0x7e0
 2241 0777 8E020000 		.4byte	.LLST17
 2242 077b 17       		.uleb128 0x17
 2243 077c 29040000 		.4byte	.LASF65
 2244 0780 01       		.byte	0x1
 2245 0781 7506     		.2byte	0x675
 2246 0783 77000000 		.4byte	0x77
 2247 0787 C5020000 		.4byte	.LLST18
 2248 078b 21       		.uleb128 0x21
 2249 078c 20000000 		.4byte	.LBB4
ARM GAS  C:\Users\LUKASC~1\AppData\Local\Temp\ccb2ZD5o.s 			page 85


 2250 0790 14000000 		.4byte	.LBE4-.LBB4
 2251 0794 A7070000 		.4byte	0x7a7
 2252 0798 1D       		.uleb128 0x1d
 2253 0799 6900     		.ascii	"i\000"
 2254 079b 01       		.byte	0x1
 2255 079c 8206     		.2byte	0x682
 2256 079e 77000000 		.4byte	0x77
 2257 07a2 07030000 		.4byte	.LLST19
 2258 07a6 00       		.byte	0
 2259 07a7 13       		.uleb128 0x13
 2260 07a8 14000000 		.4byte	.LVL67
 2261 07ac 7B060000 		.4byte	0x67b
 2262 07b0 BB070000 		.4byte	0x7bb
 2263 07b4 14       		.uleb128 0x14
 2264 07b5 01       		.uleb128 0x1
 2265 07b6 50       		.byte	0x50
 2266 07b7 02       		.uleb128 0x2
 2267 07b8 75       		.byte	0x75
 2268 07b9 00       		.sleb128 0
 2269 07ba 00       		.byte	0
 2270 07bb 13       		.uleb128 0x13
 2271 07bc 1E000000 		.4byte	.LVL68
 2272 07c0 7B060000 		.4byte	0x67b
 2273 07c4 CF070000 		.4byte	0x7cf
 2274 07c8 14       		.uleb128 0x14
 2275 07c9 01       		.uleb128 0x1
 2276 07ca 50       		.byte	0x50
 2277 07cb 02       		.uleb128 0x2
 2278 07cc 75       		.byte	0x75
 2279 07cd 00       		.sleb128 0
 2280 07ce 00       		.byte	0
 2281 07cf 15       		.uleb128 0x15
 2282 07d0 3A000000 		.4byte	.LVL73
 2283 07d4 1A070000 		.4byte	0x71a
 2284 07d8 14       		.uleb128 0x14
 2285 07d9 01       		.uleb128 0x1
 2286 07da 50       		.byte	0x50
 2287 07db 02       		.uleb128 0x2
 2288 07dc 75       		.byte	0x75
 2289 07dd 00       		.sleb128 0
 2290 07de 00       		.byte	0
 2291 07df 00       		.byte	0
 2292 07e0 06       		.uleb128 0x6
 2293 07e1 04       		.byte	0x4
 2294 07e2 6B000000 		.4byte	0x6b
 2295 07e6 16       		.uleb128 0x16
 2296 07e7 43000000 		.4byte	.LASF68
 2297 07eb 01       		.byte	0x1
 2298 07ec FC08     		.2byte	0x8fc
 2299 07ee 00000000 		.4byte	.LFB14
 2300 07f2 18000000 		.4byte	.LFE14-.LFB14
 2301 07f6 01       		.uleb128 0x1
 2302 07f7 9C       		.byte	0x9c
 2303 07f8 0D080000 		.4byte	0x80d
 2304 07fc 17       		.uleb128 0x17
 2305 07fd AD000000 		.4byte	.LASF60
 2306 0801 01       		.byte	0x1
ARM GAS  C:\Users\LUKASC~1\AppData\Local\Temp\ccb2ZD5o.s 			page 86


 2307 0802 FC08     		.2byte	0x8fc
 2308 0804 6B000000 		.4byte	0x6b
 2309 0808 31030000 		.4byte	.LLST20
 2310 080c 00       		.byte	0
 2311 080d 16       		.uleb128 0x16
 2312 080e A6050000 		.4byte	.LASF69
 2313 0812 01       		.byte	0x1
 2314 0813 1A09     		.2byte	0x91a
 2315 0815 00000000 		.4byte	.LFB15
 2316 0819 0C000000 		.4byte	.LFE15-.LFB15
 2317 081d 01       		.uleb128 0x1
 2318 081e 9C       		.byte	0x9c
 2319 081f 32080000 		.4byte	0x832
 2320 0823 1E       		.uleb128 0x1e
 2321 0824 01040000 		.4byte	.LASF70
 2322 0828 01       		.byte	0x1
 2323 0829 1A09     		.2byte	0x91a
 2324 082b 6B000000 		.4byte	0x6b
 2325 082f 01       		.uleb128 0x1
 2326 0830 50       		.byte	0x50
 2327 0831 00       		.byte	0
 2328 0832 1B       		.uleb128 0x1b
 2329 0833 6F020000 		.4byte	.LASF71
 2330 0837 01       		.byte	0x1
 2331 0838 3309     		.2byte	0x933
 2332 083a 6B000000 		.4byte	0x6b
 2333 083e 00000000 		.4byte	.LFB16
 2334 0842 20000000 		.4byte	.LFE16-.LFB16
 2335 0846 01       		.uleb128 0x1
 2336 0847 9C       		.byte	0x9c
 2337 0848 6C080000 		.4byte	0x86c
 2338 084c 17       		.uleb128 0x17
 2339 084d AD000000 		.4byte	.LASF60
 2340 0851 01       		.byte	0x1
 2341 0852 3309     		.2byte	0x933
 2342 0854 6B000000 		.4byte	0x6b
 2343 0858 52030000 		.4byte	.LLST21
 2344 085c 1D       		.uleb128 0x1d
 2345 085d 637200   		.ascii	"cr\000"
 2346 0860 01       		.byte	0x1
 2347 0861 3509     		.2byte	0x935
 2348 0863 6B000000 		.4byte	0x6b
 2349 0867 8C030000 		.4byte	.LLST22
 2350 086b 00       		.byte	0
 2351 086c 16       		.uleb128 0x16
 2352 086d 54000000 		.4byte	.LASF72
 2353 0871 01       		.byte	0x1
 2354 0872 5C09     		.2byte	0x95c
 2355 0874 00000000 		.4byte	.LFB17
 2356 0878 20000000 		.4byte	.LFE17-.LFB17
 2357 087c 01       		.uleb128 0x1
 2358 087d 9C       		.byte	0x9c
 2359 087e 91080000 		.4byte	0x891
 2360 0882 1E       		.uleb128 0x1e
 2361 0883 88010000 		.4byte	.LASF73
 2362 0887 01       		.byte	0x1
 2363 0888 5C09     		.2byte	0x95c
ARM GAS  C:\Users\LUKASC~1\AppData\Local\Temp\ccb2ZD5o.s 			page 87


 2364 088a 6B000000 		.4byte	0x6b
 2365 088e 01       		.uleb128 0x1
 2366 088f 50       		.byte	0x50
 2367 0890 00       		.byte	0
 2368 0891 1B       		.uleb128 0x1b
 2369 0892 B6010000 		.4byte	.LASF74
 2370 0896 01       		.byte	0x1
 2371 0897 9509     		.2byte	0x995
 2372 0899 6B000000 		.4byte	0x6b
 2373 089d 00000000 		.4byte	.LFB18
 2374 08a1 18000000 		.4byte	.LFE18-.LFB18
 2375 08a5 01       		.uleb128 0x1
 2376 08a6 9C       		.byte	0x9c
 2377 08a7 BC080000 		.4byte	0x8bc
 2378 08ab 1A       		.uleb128 0x1a
 2379 08ac C8050000 		.4byte	.LASF75
 2380 08b0 01       		.byte	0x1
 2381 08b1 9709     		.2byte	0x997
 2382 08b3 6B000000 		.4byte	0x6b
 2383 08b7 C2030000 		.4byte	.LLST23
 2384 08bb 00       		.byte	0
 2385 08bc 1C       		.uleb128 0x1c
 2386 08bd D9030000 		.4byte	.LASF77
 2387 08c1 01       		.byte	0x1
 2388 08c2 AD09     		.2byte	0x9ad
 2389 08c4 6B000000 		.4byte	0x6b
 2390 08c8 00000000 		.4byte	.LFB19
 2391 08cc 10000000 		.4byte	.LFE19-.LFB19
 2392 08d0 01       		.uleb128 0x1
 2393 08d1 9C       		.byte	0x9c
 2394 08d2 19       		.uleb128 0x19
 2395 08d3 E5010000 		.4byte	.LASF79
 2396 08d7 01       		.byte	0x1
 2397 08d8 BB09     		.2byte	0x9bb
 2398 08da 00000000 		.4byte	.LFB20
 2399 08de 02000000 		.4byte	.LFE20-.LFB20
 2400 08e2 01       		.uleb128 0x1
 2401 08e3 9C       		.byte	0x9c
 2402 08e4 19       		.uleb128 0x19
 2403 08e5 51010000 		.4byte	.LASF80
 2404 08e9 01       		.byte	0x1
 2405 08ea D109     		.2byte	0x9d1
 2406 08ec 00000000 		.4byte	.LFB21
 2407 08f0 02000000 		.4byte	.LFE21-.LFB21
 2408 08f4 01       		.uleb128 0x1
 2409 08f5 9C       		.byte	0x9c
 2410 08f6 22       		.uleb128 0x22
 2411 08f7 F5030000 		.4byte	.LASF81
 2412 08fb 01       		.byte	0x1
 2413 08fc 28       		.byte	0x28
 2414 08fd 6B000000 		.4byte	0x6b
 2415 0901 05       		.uleb128 0x5
 2416 0902 03       		.byte	0x3
 2417 0903 00000000 		.4byte	COM_initVar
 2418 0907 23       		.uleb128 0x23
 2419 0908 EE020000 		.4byte	.LASF82
 2420 090c 03       		.byte	0x3
ARM GAS  C:\Users\LUKASC~1\AppData\Local\Temp\ccb2ZD5o.s 			page 88


 2421 090d D202     		.2byte	0x2d2
 2422 090f B0000000 		.4byte	0xb0
 2423 0913 23       		.uleb128 0x23
 2424 0914 0F030000 		.4byte	.LASF83
 2425 0918 03       		.byte	0x3
 2426 0919 D302     		.2byte	0x2d3
 2427 091b B0000000 		.4byte	0xb0
 2428 091f 23       		.uleb128 0x23
 2429 0920 01050000 		.4byte	.LASF84
 2430 0924 03       		.byte	0x3
 2431 0925 D402     		.2byte	0x2d4
 2432 0927 B0000000 		.4byte	0xb0
 2433 092b 23       		.uleb128 0x23
 2434 092c BC040000 		.4byte	.LASF85
 2435 0930 03       		.byte	0x3
 2436 0931 D502     		.2byte	0x2d5
 2437 0933 B0000000 		.4byte	0xb0
 2438 0937 23       		.uleb128 0x23
 2439 0938 BB030000 		.4byte	.LASF86
 2440 093c 03       		.byte	0x3
 2441 093d D602     		.2byte	0x2d6
 2442 093f B0000000 		.4byte	0xb0
 2443 0943 24       		.uleb128 0x24
 2444 0944 2F010000 		.4byte	.LASF87
 2445 0948 04       		.byte	0x4
 2446 0949 72       		.byte	0x72
 2447 094a B0000000 		.4byte	0xb0
 2448 094e 0C       		.uleb128 0xc
 2449 094f 6B000000 		.4byte	0x6b
 2450 0953 5E090000 		.4byte	0x95e
 2451 0957 0D       		.uleb128 0xd
 2452 0958 D9000000 		.4byte	0xd9
 2453 095c 03       		.byte	0x3
 2454 095d 00       		.byte	0
 2455 095e 24       		.uleb128 0x24
 2456 095f 98020000 		.4byte	.LASF88
 2457 0963 04       		.byte	0x4
 2458 0964 73       		.byte	0x73
 2459 0965 69090000 		.4byte	0x969
 2460 0969 05       		.uleb128 0x5
 2461 096a 4E090000 		.4byte	0x94e
 2462 096e 24       		.uleb128 0x24
 2463 096f 17040000 		.4byte	.LASF89
 2464 0973 04       		.byte	0x4
 2465 0974 75       		.byte	0x75
 2466 0975 B0000000 		.4byte	0xb0
 2467 0979 0C       		.uleb128 0xc
 2468 097a 55010000 		.4byte	0x155
 2469 097e 89090000 		.4byte	0x989
 2470 0982 0D       		.uleb128 0xd
 2471 0983 D9000000 		.4byte	0xd9
 2472 0987 08       		.byte	0x8
 2473 0988 00       		.byte	0
 2474 0989 24       		.uleb128 0x24
 2475 098a EE030000 		.4byte	.LASF90
 2476 098e 04       		.byte	0x4
 2477 098f 79       		.byte	0x79
ARM GAS  C:\Users\LUKASC~1\AppData\Local\Temp\ccb2ZD5o.s 			page 89


 2478 0990 94090000 		.4byte	0x994
 2479 0994 05       		.uleb128 0x5
 2480 0995 79090000 		.4byte	0x979
 2481 0999 24       		.uleb128 0x24
 2482 099a 7C030000 		.4byte	.LASF91
 2483 099e 04       		.byte	0x4
 2484 099f 9B       		.byte	0x9b
 2485 09a0 B0000000 		.4byte	0xb0
 2486 09a4 25       		.uleb128 0x25
 2487 09a5 25020000 		.4byte	.LASF96
 2488 09a9 05       		.byte	0x5
 2489 09aa 7D       		.byte	0x7d
 2490 09ab 6B000000 		.4byte	0x6b
 2491 09af 26       		.uleb128 0x26
 2492 09b0 77010000 		.4byte	.LASF92
 2493 09b4 05       		.byte	0x5
 2494 09b5 77       		.byte	0x77
 2495 09b6 C0090000 		.4byte	0x9c0
 2496 09ba 27       		.uleb128 0x27
 2497 09bb 77000000 		.4byte	0x77
 2498 09bf 00       		.byte	0
 2499 09c0 26       		.uleb128 0x26
 2500 09c1 1A000000 		.4byte	.LASF93
 2501 09c5 05       		.byte	0x5
 2502 09c6 7E       		.byte	0x7e
 2503 09c7 D1090000 		.4byte	0x9d1
 2504 09cb 27       		.uleb128 0x27
 2505 09cc 6B000000 		.4byte	0x6b
 2506 09d0 00       		.byte	0
 2507 09d1 26       		.uleb128 0x26
 2508 09d2 5E020000 		.4byte	.LASF94
 2509 09d6 05       		.byte	0x5
 2510 09d7 8B       		.byte	0x8b
 2511 09d8 E7090000 		.4byte	0x9e7
 2512 09dc 27       		.uleb128 0x27
 2513 09dd 6B000000 		.4byte	0x6b
 2514 09e1 27       		.uleb128 0x27
 2515 09e2 6B000000 		.4byte	0x6b
 2516 09e6 00       		.byte	0
 2517 09e7 28       		.uleb128 0x28
 2518 09e8 4F020000 		.4byte	.LASF101
 2519 09ec 05       		.byte	0x5
 2520 09ed 88       		.byte	0x88
 2521 09ee C6000000 		.4byte	0xc6
 2522 09f2 010A0000 		.4byte	0xa01
 2523 09f6 27       		.uleb128 0x27
 2524 09f7 6B000000 		.4byte	0x6b
 2525 09fb 27       		.uleb128 0x27
 2526 09fc C6000000 		.4byte	0xc6
 2527 0a00 00       		.byte	0
 2528 0a01 26       		.uleb128 0x26
 2529 0a02 5A030000 		.4byte	.LASF95
 2530 0a06 05       		.byte	0x5
 2531 0a07 79       		.byte	0x79
 2532 0a08 120A0000 		.4byte	0xa12
 2533 0a0c 27       		.uleb128 0x27
 2534 0a0d 83000000 		.4byte	0x83
ARM GAS  C:\Users\LUKASC~1\AppData\Local\Temp\ccb2ZD5o.s 			page 90


 2535 0a11 00       		.byte	0
 2536 0a12 25       		.uleb128 0x25
 2537 0a13 67000000 		.4byte	.LASF97
 2538 0a17 06       		.byte	0x6
 2539 0a18 2B       		.byte	0x2b
 2540 0a19 6B000000 		.4byte	0x6b
 2541 0a1d 00       		.byte	0
 2542              		.section	.debug_abbrev,"",%progbits
 2543              	.Ldebug_abbrev0:
 2544 0000 01       		.uleb128 0x1
 2545 0001 11       		.uleb128 0x11
 2546 0002 01       		.byte	0x1
 2547 0003 25       		.uleb128 0x25
 2548 0004 0E       		.uleb128 0xe
 2549 0005 13       		.uleb128 0x13
 2550 0006 0B       		.uleb128 0xb
 2551 0007 03       		.uleb128 0x3
 2552 0008 0E       		.uleb128 0xe
 2553 0009 1B       		.uleb128 0x1b
 2554 000a 0E       		.uleb128 0xe
 2555 000b 55       		.uleb128 0x55
 2556 000c 17       		.uleb128 0x17
 2557 000d 11       		.uleb128 0x11
 2558 000e 01       		.uleb128 0x1
 2559 000f 10       		.uleb128 0x10
 2560 0010 17       		.uleb128 0x17
 2561 0011 00       		.byte	0
 2562 0012 00       		.byte	0
 2563 0013 02       		.uleb128 0x2
 2564 0014 24       		.uleb128 0x24
 2565 0015 00       		.byte	0
 2566 0016 0B       		.uleb128 0xb
 2567 0017 0B       		.uleb128 0xb
 2568 0018 3E       		.uleb128 0x3e
 2569 0019 0B       		.uleb128 0xb
 2570 001a 03       		.uleb128 0x3
 2571 001b 0E       		.uleb128 0xe
 2572 001c 00       		.byte	0
 2573 001d 00       		.byte	0
 2574 001e 03       		.uleb128 0x3
 2575 001f 24       		.uleb128 0x24
 2576 0020 00       		.byte	0
 2577 0021 0B       		.uleb128 0xb
 2578 0022 0B       		.uleb128 0xb
 2579 0023 3E       		.uleb128 0x3e
 2580 0024 0B       		.uleb128 0xb
 2581 0025 03       		.uleb128 0x3
 2582 0026 08       		.uleb128 0x8
 2583 0027 00       		.byte	0
 2584 0028 00       		.byte	0
 2585 0029 04       		.uleb128 0x4
 2586 002a 16       		.uleb128 0x16
 2587 002b 00       		.byte	0
 2588 002c 03       		.uleb128 0x3
 2589 002d 0E       		.uleb128 0xe
 2590 002e 3A       		.uleb128 0x3a
 2591 002f 0B       		.uleb128 0xb
ARM GAS  C:\Users\LUKASC~1\AppData\Local\Temp\ccb2ZD5o.s 			page 91


 2592 0030 3B       		.uleb128 0x3b
 2593 0031 05       		.uleb128 0x5
 2594 0032 49       		.uleb128 0x49
 2595 0033 13       		.uleb128 0x13
 2596 0034 00       		.byte	0
 2597 0035 00       		.byte	0
 2598 0036 05       		.uleb128 0x5
 2599 0037 35       		.uleb128 0x35
 2600 0038 00       		.byte	0
 2601 0039 49       		.uleb128 0x49
 2602 003a 13       		.uleb128 0x13
 2603 003b 00       		.byte	0
 2604 003c 00       		.byte	0
 2605 003d 06       		.uleb128 0x6
 2606 003e 0F       		.uleb128 0xf
 2607 003f 00       		.byte	0
 2608 0040 0B       		.uleb128 0xb
 2609 0041 0B       		.uleb128 0xb
 2610 0042 49       		.uleb128 0x49
 2611 0043 13       		.uleb128 0x13
 2612 0044 00       		.byte	0
 2613 0045 00       		.byte	0
 2614 0046 07       		.uleb128 0x7
 2615 0047 15       		.uleb128 0x15
 2616 0048 00       		.byte	0
 2617 0049 27       		.uleb128 0x27
 2618 004a 19       		.uleb128 0x19
 2619 004b 00       		.byte	0
 2620 004c 00       		.byte	0
 2621 004d 08       		.uleb128 0x8
 2622 004e 13       		.uleb128 0x13
 2623 004f 01       		.byte	0x1
 2624 0050 0B       		.uleb128 0xb
 2625 0051 0B       		.uleb128 0xb
 2626 0052 3A       		.uleb128 0x3a
 2627 0053 0B       		.uleb128 0xb
 2628 0054 3B       		.uleb128 0x3b
 2629 0055 0B       		.uleb128 0xb
 2630 0056 01       		.uleb128 0x1
 2631 0057 13       		.uleb128 0x13
 2632 0058 00       		.byte	0
 2633 0059 00       		.byte	0
 2634 005a 09       		.uleb128 0x9
 2635 005b 0D       		.uleb128 0xd
 2636 005c 00       		.byte	0
 2637 005d 03       		.uleb128 0x3
 2638 005e 0E       		.uleb128 0xe
 2639 005f 3A       		.uleb128 0x3a
 2640 0060 0B       		.uleb128 0xb
 2641 0061 3B       		.uleb128 0x3b
 2642 0062 0B       		.uleb128 0xb
 2643 0063 49       		.uleb128 0x49
 2644 0064 13       		.uleb128 0x13
 2645 0065 38       		.uleb128 0x38
 2646 0066 0B       		.uleb128 0xb
 2647 0067 00       		.byte	0
 2648 0068 00       		.byte	0
ARM GAS  C:\Users\LUKASC~1\AppData\Local\Temp\ccb2ZD5o.s 			page 92


 2649 0069 0A       		.uleb128 0xa
 2650 006a 16       		.uleb128 0x16
 2651 006b 00       		.byte	0
 2652 006c 03       		.uleb128 0x3
 2653 006d 0E       		.uleb128 0xe
 2654 006e 3A       		.uleb128 0x3a
 2655 006f 0B       		.uleb128 0xb
 2656 0070 3B       		.uleb128 0x3b
 2657 0071 0B       		.uleb128 0xb
 2658 0072 49       		.uleb128 0x49
 2659 0073 13       		.uleb128 0x13
 2660 0074 00       		.byte	0
 2661 0075 00       		.byte	0
 2662 0076 0B       		.uleb128 0xb
 2663 0077 0D       		.uleb128 0xd
 2664 0078 00       		.byte	0
 2665 0079 03       		.uleb128 0x3
 2666 007a 08       		.uleb128 0x8
 2667 007b 3A       		.uleb128 0x3a
 2668 007c 0B       		.uleb128 0xb
 2669 007d 3B       		.uleb128 0x3b
 2670 007e 0B       		.uleb128 0xb
 2671 007f 49       		.uleb128 0x49
 2672 0080 13       		.uleb128 0x13
 2673 0081 38       		.uleb128 0x38
 2674 0082 0B       		.uleb128 0xb
 2675 0083 00       		.byte	0
 2676 0084 00       		.byte	0
 2677 0085 0C       		.uleb128 0xc
 2678 0086 01       		.uleb128 0x1
 2679 0087 01       		.byte	0x1
 2680 0088 49       		.uleb128 0x49
 2681 0089 13       		.uleb128 0x13
 2682 008a 01       		.uleb128 0x1
 2683 008b 13       		.uleb128 0x13
 2684 008c 00       		.byte	0
 2685 008d 00       		.byte	0
 2686 008e 0D       		.uleb128 0xd
 2687 008f 21       		.uleb128 0x21
 2688 0090 00       		.byte	0
 2689 0091 49       		.uleb128 0x49
 2690 0092 13       		.uleb128 0x13
 2691 0093 2F       		.uleb128 0x2f
 2692 0094 0B       		.uleb128 0xb
 2693 0095 00       		.byte	0
 2694 0096 00       		.byte	0
 2695 0097 0E       		.uleb128 0xe
 2696 0098 13       		.uleb128 0x13
 2697 0099 01       		.byte	0x1
 2698 009a 0B       		.uleb128 0xb
 2699 009b 0B       		.uleb128 0xb
 2700 009c 3A       		.uleb128 0x3a
 2701 009d 0B       		.uleb128 0xb
 2702 009e 3B       		.uleb128 0x3b
 2703 009f 05       		.uleb128 0x5
 2704 00a0 01       		.uleb128 0x1
 2705 00a1 13       		.uleb128 0x13
ARM GAS  C:\Users\LUKASC~1\AppData\Local\Temp\ccb2ZD5o.s 			page 93


 2706 00a2 00       		.byte	0
 2707 00a3 00       		.byte	0
 2708 00a4 0F       		.uleb128 0xf
 2709 00a5 0D       		.uleb128 0xd
 2710 00a6 00       		.byte	0
 2711 00a7 03       		.uleb128 0x3
 2712 00a8 0E       		.uleb128 0xe
 2713 00a9 3A       		.uleb128 0x3a
 2714 00aa 0B       		.uleb128 0xb
 2715 00ab 3B       		.uleb128 0x3b
 2716 00ac 05       		.uleb128 0x5
 2717 00ad 49       		.uleb128 0x49
 2718 00ae 13       		.uleb128 0x13
 2719 00af 38       		.uleb128 0x38
 2720 00b0 0B       		.uleb128 0xb
 2721 00b1 00       		.byte	0
 2722 00b2 00       		.byte	0
 2723 00b3 10       		.uleb128 0x10
 2724 00b4 2E       		.uleb128 0x2e
 2725 00b5 01       		.byte	0x1
 2726 00b6 3F       		.uleb128 0x3f
 2727 00b7 19       		.uleb128 0x19
 2728 00b8 03       		.uleb128 0x3
 2729 00b9 0E       		.uleb128 0xe
 2730 00ba 3A       		.uleb128 0x3a
 2731 00bb 0B       		.uleb128 0xb
 2732 00bc 3B       		.uleb128 0x3b
 2733 00bd 0B       		.uleb128 0xb
 2734 00be 27       		.uleb128 0x27
 2735 00bf 19       		.uleb128 0x19
 2736 00c0 11       		.uleb128 0x11
 2737 00c1 01       		.uleb128 0x1
 2738 00c2 12       		.uleb128 0x12
 2739 00c3 06       		.uleb128 0x6
 2740 00c4 40       		.uleb128 0x40
 2741 00c5 18       		.uleb128 0x18
 2742 00c6 9742     		.uleb128 0x2117
 2743 00c8 19       		.uleb128 0x19
 2744 00c9 01       		.uleb128 0x1
 2745 00ca 13       		.uleb128 0x13
 2746 00cb 00       		.byte	0
 2747 00cc 00       		.byte	0
 2748 00cd 11       		.uleb128 0x11
 2749 00ce 34       		.uleb128 0x34
 2750 00cf 00       		.byte	0
 2751 00d0 03       		.uleb128 0x3
 2752 00d1 0E       		.uleb128 0xe
 2753 00d2 3A       		.uleb128 0x3a
 2754 00d3 0B       		.uleb128 0xb
 2755 00d4 3B       		.uleb128 0x3b
 2756 00d5 0B       		.uleb128 0xb
 2757 00d6 49       		.uleb128 0x49
 2758 00d7 13       		.uleb128 0x13
 2759 00d8 02       		.uleb128 0x2
 2760 00d9 17       		.uleb128 0x17
 2761 00da 00       		.byte	0
 2762 00db 00       		.byte	0
ARM GAS  C:\Users\LUKASC~1\AppData\Local\Temp\ccb2ZD5o.s 			page 94


 2763 00dc 12       		.uleb128 0x12
 2764 00dd 898201   		.uleb128 0x4109
 2765 00e0 00       		.byte	0
 2766 00e1 11       		.uleb128 0x11
 2767 00e2 01       		.uleb128 0x1
 2768 00e3 31       		.uleb128 0x31
 2769 00e4 13       		.uleb128 0x13
 2770 00e5 00       		.byte	0
 2771 00e6 00       		.byte	0
 2772 00e7 13       		.uleb128 0x13
 2773 00e8 898201   		.uleb128 0x4109
 2774 00eb 01       		.byte	0x1
 2775 00ec 11       		.uleb128 0x11
 2776 00ed 01       		.uleb128 0x1
 2777 00ee 31       		.uleb128 0x31
 2778 00ef 13       		.uleb128 0x13
 2779 00f0 01       		.uleb128 0x1
 2780 00f1 13       		.uleb128 0x13
 2781 00f2 00       		.byte	0
 2782 00f3 00       		.byte	0
 2783 00f4 14       		.uleb128 0x14
 2784 00f5 8A8201   		.uleb128 0x410a
 2785 00f8 00       		.byte	0
 2786 00f9 02       		.uleb128 0x2
 2787 00fa 18       		.uleb128 0x18
 2788 00fb 9142     		.uleb128 0x2111
 2789 00fd 18       		.uleb128 0x18
 2790 00fe 00       		.byte	0
 2791 00ff 00       		.byte	0
 2792 0100 15       		.uleb128 0x15
 2793 0101 898201   		.uleb128 0x4109
 2794 0104 01       		.byte	0x1
 2795 0105 11       		.uleb128 0x11
 2796 0106 01       		.uleb128 0x1
 2797 0107 31       		.uleb128 0x31
 2798 0108 13       		.uleb128 0x13
 2799 0109 00       		.byte	0
 2800 010a 00       		.byte	0
 2801 010b 16       		.uleb128 0x16
 2802 010c 2E       		.uleb128 0x2e
 2803 010d 01       		.byte	0x1
 2804 010e 3F       		.uleb128 0x3f
 2805 010f 19       		.uleb128 0x19
 2806 0110 03       		.uleb128 0x3
 2807 0111 0E       		.uleb128 0xe
 2808 0112 3A       		.uleb128 0x3a
 2809 0113 0B       		.uleb128 0xb
 2810 0114 3B       		.uleb128 0x3b
 2811 0115 05       		.uleb128 0x5
 2812 0116 27       		.uleb128 0x27
 2813 0117 19       		.uleb128 0x19
 2814 0118 11       		.uleb128 0x11
 2815 0119 01       		.uleb128 0x1
 2816 011a 12       		.uleb128 0x12
 2817 011b 06       		.uleb128 0x6
 2818 011c 40       		.uleb128 0x40
 2819 011d 18       		.uleb128 0x18
ARM GAS  C:\Users\LUKASC~1\AppData\Local\Temp\ccb2ZD5o.s 			page 95


 2820 011e 9742     		.uleb128 0x2117
 2821 0120 19       		.uleb128 0x19
 2822 0121 01       		.uleb128 0x1
 2823 0122 13       		.uleb128 0x13
 2824 0123 00       		.byte	0
 2825 0124 00       		.byte	0
 2826 0125 17       		.uleb128 0x17
 2827 0126 05       		.uleb128 0x5
 2828 0127 00       		.byte	0
 2829 0128 03       		.uleb128 0x3
 2830 0129 0E       		.uleb128 0xe
 2831 012a 3A       		.uleb128 0x3a
 2832 012b 0B       		.uleb128 0xb
 2833 012c 3B       		.uleb128 0x3b
 2834 012d 05       		.uleb128 0x5
 2835 012e 49       		.uleb128 0x49
 2836 012f 13       		.uleb128 0x13
 2837 0130 02       		.uleb128 0x2
 2838 0131 17       		.uleb128 0x17
 2839 0132 00       		.byte	0
 2840 0133 00       		.byte	0
 2841 0134 18       		.uleb128 0x18
 2842 0135 05       		.uleb128 0x5
 2843 0136 00       		.byte	0
 2844 0137 03       		.uleb128 0x3
 2845 0138 0E       		.uleb128 0xe
 2846 0139 3A       		.uleb128 0x3a
 2847 013a 0B       		.uleb128 0xb
 2848 013b 3B       		.uleb128 0x3b
 2849 013c 0B       		.uleb128 0xb
 2850 013d 49       		.uleb128 0x49
 2851 013e 13       		.uleb128 0x13
 2852 013f 02       		.uleb128 0x2
 2853 0140 17       		.uleb128 0x17
 2854 0141 00       		.byte	0
 2855 0142 00       		.byte	0
 2856 0143 19       		.uleb128 0x19
 2857 0144 2E       		.uleb128 0x2e
 2858 0145 00       		.byte	0
 2859 0146 3F       		.uleb128 0x3f
 2860 0147 19       		.uleb128 0x19
 2861 0148 03       		.uleb128 0x3
 2862 0149 0E       		.uleb128 0xe
 2863 014a 3A       		.uleb128 0x3a
 2864 014b 0B       		.uleb128 0xb
 2865 014c 3B       		.uleb128 0x3b
 2866 014d 05       		.uleb128 0x5
 2867 014e 27       		.uleb128 0x27
 2868 014f 19       		.uleb128 0x19
 2869 0150 11       		.uleb128 0x11
 2870 0151 01       		.uleb128 0x1
 2871 0152 12       		.uleb128 0x12
 2872 0153 06       		.uleb128 0x6
 2873 0154 40       		.uleb128 0x40
 2874 0155 18       		.uleb128 0x18
 2875 0156 9742     		.uleb128 0x2117
 2876 0158 19       		.uleb128 0x19
ARM GAS  C:\Users\LUKASC~1\AppData\Local\Temp\ccb2ZD5o.s 			page 96


 2877 0159 00       		.byte	0
 2878 015a 00       		.byte	0
 2879 015b 1A       		.uleb128 0x1a
 2880 015c 34       		.uleb128 0x34
 2881 015d 00       		.byte	0
 2882 015e 03       		.uleb128 0x3
 2883 015f 0E       		.uleb128 0xe
 2884 0160 3A       		.uleb128 0x3a
 2885 0161 0B       		.uleb128 0xb
 2886 0162 3B       		.uleb128 0x3b
 2887 0163 05       		.uleb128 0x5
 2888 0164 49       		.uleb128 0x49
 2889 0165 13       		.uleb128 0x13
 2890 0166 02       		.uleb128 0x2
 2891 0167 17       		.uleb128 0x17
 2892 0168 00       		.byte	0
 2893 0169 00       		.byte	0
 2894 016a 1B       		.uleb128 0x1b
 2895 016b 2E       		.uleb128 0x2e
 2896 016c 01       		.byte	0x1
 2897 016d 3F       		.uleb128 0x3f
 2898 016e 19       		.uleb128 0x19
 2899 016f 03       		.uleb128 0x3
 2900 0170 0E       		.uleb128 0xe
 2901 0171 3A       		.uleb128 0x3a
 2902 0172 0B       		.uleb128 0xb
 2903 0173 3B       		.uleb128 0x3b
 2904 0174 05       		.uleb128 0x5
 2905 0175 27       		.uleb128 0x27
 2906 0176 19       		.uleb128 0x19
 2907 0177 49       		.uleb128 0x49
 2908 0178 13       		.uleb128 0x13
 2909 0179 11       		.uleb128 0x11
 2910 017a 01       		.uleb128 0x1
 2911 017b 12       		.uleb128 0x12
 2912 017c 06       		.uleb128 0x6
 2913 017d 40       		.uleb128 0x40
 2914 017e 18       		.uleb128 0x18
 2915 017f 9742     		.uleb128 0x2117
 2916 0181 19       		.uleb128 0x19
 2917 0182 01       		.uleb128 0x1
 2918 0183 13       		.uleb128 0x13
 2919 0184 00       		.byte	0
 2920 0185 00       		.byte	0
 2921 0186 1C       		.uleb128 0x1c
 2922 0187 2E       		.uleb128 0x2e
 2923 0188 00       		.byte	0
 2924 0189 3F       		.uleb128 0x3f
 2925 018a 19       		.uleb128 0x19
 2926 018b 03       		.uleb128 0x3
 2927 018c 0E       		.uleb128 0xe
 2928 018d 3A       		.uleb128 0x3a
 2929 018e 0B       		.uleb128 0xb
 2930 018f 3B       		.uleb128 0x3b
 2931 0190 05       		.uleb128 0x5
 2932 0191 27       		.uleb128 0x27
 2933 0192 19       		.uleb128 0x19
ARM GAS  C:\Users\LUKASC~1\AppData\Local\Temp\ccb2ZD5o.s 			page 97


 2934 0193 49       		.uleb128 0x49
 2935 0194 13       		.uleb128 0x13
 2936 0195 11       		.uleb128 0x11
 2937 0196 01       		.uleb128 0x1
 2938 0197 12       		.uleb128 0x12
 2939 0198 06       		.uleb128 0x6
 2940 0199 40       		.uleb128 0x40
 2941 019a 18       		.uleb128 0x18
 2942 019b 9742     		.uleb128 0x2117
 2943 019d 19       		.uleb128 0x19
 2944 019e 00       		.byte	0
 2945 019f 00       		.byte	0
 2946 01a0 1D       		.uleb128 0x1d
 2947 01a1 34       		.uleb128 0x34
 2948 01a2 00       		.byte	0
 2949 01a3 03       		.uleb128 0x3
 2950 01a4 08       		.uleb128 0x8
 2951 01a5 3A       		.uleb128 0x3a
 2952 01a6 0B       		.uleb128 0xb
 2953 01a7 3B       		.uleb128 0x3b
 2954 01a8 05       		.uleb128 0x5
 2955 01a9 49       		.uleb128 0x49
 2956 01aa 13       		.uleb128 0x13
 2957 01ab 02       		.uleb128 0x2
 2958 01ac 17       		.uleb128 0x17
 2959 01ad 00       		.byte	0
 2960 01ae 00       		.byte	0
 2961 01af 1E       		.uleb128 0x1e
 2962 01b0 05       		.uleb128 0x5
 2963 01b1 00       		.byte	0
 2964 01b2 03       		.uleb128 0x3
 2965 01b3 0E       		.uleb128 0xe
 2966 01b4 3A       		.uleb128 0x3a
 2967 01b5 0B       		.uleb128 0xb
 2968 01b6 3B       		.uleb128 0x3b
 2969 01b7 05       		.uleb128 0x5
 2970 01b8 49       		.uleb128 0x49
 2971 01b9 13       		.uleb128 0x13
 2972 01ba 02       		.uleb128 0x2
 2973 01bb 18       		.uleb128 0x18
 2974 01bc 00       		.byte	0
 2975 01bd 00       		.byte	0
 2976 01be 1F       		.uleb128 0x1f
 2977 01bf 0B       		.uleb128 0xb
 2978 01c0 01       		.byte	0x1
 2979 01c1 55       		.uleb128 0x55
 2980 01c2 17       		.uleb128 0x17
 2981 01c3 00       		.byte	0
 2982 01c4 00       		.byte	0
 2983 01c5 20       		.uleb128 0x20
 2984 01c6 26       		.uleb128 0x26
 2985 01c7 00       		.byte	0
 2986 01c8 49       		.uleb128 0x49
 2987 01c9 13       		.uleb128 0x13
 2988 01ca 00       		.byte	0
 2989 01cb 00       		.byte	0
 2990 01cc 21       		.uleb128 0x21
ARM GAS  C:\Users\LUKASC~1\AppData\Local\Temp\ccb2ZD5o.s 			page 98


 2991 01cd 0B       		.uleb128 0xb
 2992 01ce 01       		.byte	0x1
 2993 01cf 11       		.uleb128 0x11
 2994 01d0 01       		.uleb128 0x1
 2995 01d1 12       		.uleb128 0x12
 2996 01d2 06       		.uleb128 0x6
 2997 01d3 01       		.uleb128 0x1
 2998 01d4 13       		.uleb128 0x13
 2999 01d5 00       		.byte	0
 3000 01d6 00       		.byte	0
 3001 01d7 22       		.uleb128 0x22
 3002 01d8 34       		.uleb128 0x34
 3003 01d9 00       		.byte	0
 3004 01da 03       		.uleb128 0x3
 3005 01db 0E       		.uleb128 0xe
 3006 01dc 3A       		.uleb128 0x3a
 3007 01dd 0B       		.uleb128 0xb
 3008 01de 3B       		.uleb128 0x3b
 3009 01df 0B       		.uleb128 0xb
 3010 01e0 49       		.uleb128 0x49
 3011 01e1 13       		.uleb128 0x13
 3012 01e2 3F       		.uleb128 0x3f
 3013 01e3 19       		.uleb128 0x19
 3014 01e4 02       		.uleb128 0x2
 3015 01e5 18       		.uleb128 0x18
 3016 01e6 00       		.byte	0
 3017 01e7 00       		.byte	0
 3018 01e8 23       		.uleb128 0x23
 3019 01e9 34       		.uleb128 0x34
 3020 01ea 00       		.byte	0
 3021 01eb 03       		.uleb128 0x3
 3022 01ec 0E       		.uleb128 0xe
 3023 01ed 3A       		.uleb128 0x3a
 3024 01ee 0B       		.uleb128 0xb
 3025 01ef 3B       		.uleb128 0x3b
 3026 01f0 05       		.uleb128 0x5
 3027 01f1 49       		.uleb128 0x49
 3028 01f2 13       		.uleb128 0x13
 3029 01f3 3F       		.uleb128 0x3f
 3030 01f4 19       		.uleb128 0x19
 3031 01f5 3C       		.uleb128 0x3c
 3032 01f6 19       		.uleb128 0x19
 3033 01f7 00       		.byte	0
 3034 01f8 00       		.byte	0
 3035 01f9 24       		.uleb128 0x24
 3036 01fa 34       		.uleb128 0x34
 3037 01fb 00       		.byte	0
 3038 01fc 03       		.uleb128 0x3
 3039 01fd 0E       		.uleb128 0xe
 3040 01fe 3A       		.uleb128 0x3a
 3041 01ff 0B       		.uleb128 0xb
 3042 0200 3B       		.uleb128 0x3b
 3043 0201 0B       		.uleb128 0xb
 3044 0202 49       		.uleb128 0x49
 3045 0203 13       		.uleb128 0x13
 3046 0204 3F       		.uleb128 0x3f
 3047 0205 19       		.uleb128 0x19
ARM GAS  C:\Users\LUKASC~1\AppData\Local\Temp\ccb2ZD5o.s 			page 99


 3048 0206 3C       		.uleb128 0x3c
 3049 0207 19       		.uleb128 0x19
 3050 0208 00       		.byte	0
 3051 0209 00       		.byte	0
 3052 020a 25       		.uleb128 0x25
 3053 020b 2E       		.uleb128 0x2e
 3054 020c 00       		.byte	0
 3055 020d 3F       		.uleb128 0x3f
 3056 020e 19       		.uleb128 0x19
 3057 020f 03       		.uleb128 0x3
 3058 0210 0E       		.uleb128 0xe
 3059 0211 3A       		.uleb128 0x3a
 3060 0212 0B       		.uleb128 0xb
 3061 0213 3B       		.uleb128 0x3b
 3062 0214 0B       		.uleb128 0xb
 3063 0215 27       		.uleb128 0x27
 3064 0216 19       		.uleb128 0x19
 3065 0217 49       		.uleb128 0x49
 3066 0218 13       		.uleb128 0x13
 3067 0219 3C       		.uleb128 0x3c
 3068 021a 19       		.uleb128 0x19
 3069 021b 00       		.byte	0
 3070 021c 00       		.byte	0
 3071 021d 26       		.uleb128 0x26
 3072 021e 2E       		.uleb128 0x2e
 3073 021f 01       		.byte	0x1
 3074 0220 3F       		.uleb128 0x3f
 3075 0221 19       		.uleb128 0x19
 3076 0222 03       		.uleb128 0x3
 3077 0223 0E       		.uleb128 0xe
 3078 0224 3A       		.uleb128 0x3a
 3079 0225 0B       		.uleb128 0xb
 3080 0226 3B       		.uleb128 0x3b
 3081 0227 0B       		.uleb128 0xb
 3082 0228 27       		.uleb128 0x27
 3083 0229 19       		.uleb128 0x19
 3084 022a 3C       		.uleb128 0x3c
 3085 022b 19       		.uleb128 0x19
 3086 022c 01       		.uleb128 0x1
 3087 022d 13       		.uleb128 0x13
 3088 022e 00       		.byte	0
 3089 022f 00       		.byte	0
 3090 0230 27       		.uleb128 0x27
 3091 0231 05       		.uleb128 0x5
 3092 0232 00       		.byte	0
 3093 0233 49       		.uleb128 0x49
 3094 0234 13       		.uleb128 0x13
 3095 0235 00       		.byte	0
 3096 0236 00       		.byte	0
 3097 0237 28       		.uleb128 0x28
 3098 0238 2E       		.uleb128 0x2e
 3099 0239 01       		.byte	0x1
 3100 023a 3F       		.uleb128 0x3f
 3101 023b 19       		.uleb128 0x19
 3102 023c 03       		.uleb128 0x3
 3103 023d 0E       		.uleb128 0xe
 3104 023e 3A       		.uleb128 0x3a
ARM GAS  C:\Users\LUKASC~1\AppData\Local\Temp\ccb2ZD5o.s 			page 100


 3105 023f 0B       		.uleb128 0xb
 3106 0240 3B       		.uleb128 0x3b
 3107 0241 0B       		.uleb128 0xb
 3108 0242 27       		.uleb128 0x27
 3109 0243 19       		.uleb128 0x19
 3110 0244 49       		.uleb128 0x49
 3111 0245 13       		.uleb128 0x13
 3112 0246 3C       		.uleb128 0x3c
 3113 0247 19       		.uleb128 0x19
 3114 0248 01       		.uleb128 0x1
 3115 0249 13       		.uleb128 0x13
 3116 024a 00       		.byte	0
 3117 024b 00       		.byte	0
 3118 024c 00       		.byte	0
 3119              		.section	.debug_loc,"",%progbits
 3120              	.Ldebug_loc0:
 3121              	.LLST0:
 3122 0000 08000000 		.4byte	.LVL1
 3123 0004 2A010000 		.4byte	.LVL25
 3124 0008 0100     		.2byte	0x1
 3125 000a 57       		.byte	0x57
 3126 000b 00000000 		.4byte	0
 3127 000f 00000000 		.4byte	0
 3128              	.LLST1:
 3129 0013 00000000 		.4byte	.LVL26
 3130 0017 82000000 		.4byte	.LVL27
 3131 001b 0100     		.2byte	0x1
 3132 001d 50       		.byte	0x50
 3133 001e 82000000 		.4byte	.LVL27
 3134 0022 C0000000 		.4byte	.LFE2
 3135 0026 0400     		.2byte	0x4
 3136 0028 F3       		.byte	0xf3
 3137 0029 01       		.uleb128 0x1
 3138 002a 50       		.byte	0x50
 3139 002b 9F       		.byte	0x9f
 3140 002c 00000000 		.4byte	0
 3141 0030 00000000 		.4byte	0
 3142              	.LLST2:
 3143 0034 00000000 		.4byte	.LVL26
 3144 0038 85000000 		.4byte	.LVL28-1
 3145 003c 0100     		.2byte	0x1
 3146 003e 51       		.byte	0x51
 3147 003f 85000000 		.4byte	.LVL28-1
 3148 0043 C0000000 		.4byte	.LFE2
 3149 0047 0400     		.2byte	0x4
 3150 0049 F3       		.byte	0xf3
 3151 004a 01       		.uleb128 0x1
 3152 004b 51       		.byte	0x51
 3153 004c 9F       		.byte	0x9f
 3154 004d 00000000 		.4byte	0
 3155 0051 00000000 		.4byte	0
 3156              	.LLST3:
 3157 0055 00000000 		.4byte	.LVL29
 3158 0059 0F000000 		.4byte	.LVL30-1
 3159 005d 0100     		.2byte	0x1
 3160 005f 50       		.byte	0x50
 3161 0060 0F000000 		.4byte	.LVL30-1
ARM GAS  C:\Users\LUKASC~1\AppData\Local\Temp\ccb2ZD5o.s 			page 101


 3162 0064 24000000 		.4byte	.LFE0
 3163 0068 0400     		.2byte	0x4
 3164 006a F3       		.byte	0xf3
 3165 006b 01       		.uleb128 0x1
 3166 006c 50       		.byte	0x50
 3167 006d 9F       		.byte	0x9f
 3168 006e 00000000 		.4byte	0
 3169 0072 00000000 		.4byte	0
 3170              	.LLST4:
 3171 0076 00000000 		.4byte	.LVL29
 3172 007a 0F000000 		.4byte	.LVL30-1
 3173 007e 0100     		.2byte	0x1
 3174 0080 51       		.byte	0x51
 3175 0081 0F000000 		.4byte	.LVL30-1
 3176 0085 24000000 		.4byte	.LFE0
 3177 0089 0400     		.2byte	0x4
 3178 008b F3       		.byte	0xf3
 3179 008c 01       		.uleb128 0x1
 3180 008d 51       		.byte	0x51
 3181 008e 9F       		.byte	0x9f
 3182 008f 00000000 		.4byte	0
 3183 0093 00000000 		.4byte	0
 3184              	.LLST5:
 3185 0097 06000000 		.4byte	.LVL32
 3186 009b 47000000 		.4byte	.LVL33-1
 3187 009f 0100     		.2byte	0x1
 3188 00a1 50       		.byte	0x50
 3189 00a2 00000000 		.4byte	0
 3190 00a6 00000000 		.4byte	0
 3191              	.LLST6:
 3192 00aa 06000000 		.4byte	.LVL35
 3193 00ae 10000000 		.4byte	.LVL36
 3194 00b2 0100     		.2byte	0x1
 3195 00b4 53       		.byte	0x53
 3196 00b5 00000000 		.4byte	0
 3197 00b9 00000000 		.4byte	0
 3198              	.LLST7:
 3199 00bd 00000000 		.4byte	.LVL37
 3200 00c1 10000000 		.4byte	.LVL38
 3201 00c5 0200     		.2byte	0x2
 3202 00c7 30       		.byte	0x30
 3203 00c8 9F       		.byte	0x9f
 3204 00c9 10000000 		.4byte	.LVL38
 3205 00cd 16000000 		.4byte	.LVL39
 3206 00d1 0100     		.2byte	0x1
 3207 00d3 50       		.byte	0x50
 3208 00d4 16000000 		.4byte	.LVL39
 3209 00d8 18000000 		.4byte	.LVL40
 3210 00dc 0200     		.2byte	0x2
 3211 00de 30       		.byte	0x30
 3212 00df 9F       		.byte	0x9f
 3213 00e0 18000000 		.4byte	.LVL40
 3214 00e4 20000000 		.4byte	.LFE7
 3215 00e8 0100     		.2byte	0x1
 3216 00ea 50       		.byte	0x50
 3217 00eb 00000000 		.4byte	0
 3218 00ef 00000000 		.4byte	0
ARM GAS  C:\Users\LUKASC~1\AppData\Local\Temp\ccb2ZD5o.s 			page 102


 3219              	.LLST8:
 3220 00f3 00000000 		.4byte	.LVL41
 3221 00f7 04000000 		.4byte	.LVL42
 3222 00fb 0100     		.2byte	0x1
 3223 00fd 50       		.byte	0x50
 3224 00fe 04000000 		.4byte	.LVL42
 3225 0102 0C000000 		.4byte	.LFE8
 3226 0106 0400     		.2byte	0x4
 3227 0108 F3       		.byte	0xf3
 3228 0109 01       		.uleb128 0x1
 3229 010a 50       		.byte	0x50
 3230 010b 9F       		.byte	0x9f
 3231 010c 00000000 		.4byte	0
 3232 0110 00000000 		.4byte	0
 3233              	.LLST9:
 3234 0114 00000000 		.4byte	.LVL43
 3235 0118 04000000 		.4byte	.LVL44
 3236 011c 0100     		.2byte	0x1
 3237 011e 50       		.byte	0x50
 3238 011f 04000000 		.4byte	.LVL44
 3239 0123 14000000 		.4byte	.LFE9
 3240 0127 0400     		.2byte	0x4
 3241 0129 F3       		.byte	0xf3
 3242 012a 01       		.uleb128 0x1
 3243 012b 50       		.byte	0x50
 3244 012c 9F       		.byte	0x9f
 3245 012d 00000000 		.4byte	0
 3246 0131 00000000 		.4byte	0
 3247              	.LLST10:
 3248 0135 00000000 		.4byte	.LVL45
 3249 0139 0C000000 		.4byte	.LVL46
 3250 013d 0100     		.2byte	0x1
 3251 013f 50       		.byte	0x50
 3252 0140 0C000000 		.4byte	.LVL46
 3253 0144 20000000 		.4byte	.LVL51
 3254 0148 0400     		.2byte	0x4
 3255 014a F3       		.byte	0xf3
 3256 014b 01       		.uleb128 0x1
 3257 014c 50       		.byte	0x50
 3258 014d 9F       		.byte	0x9f
 3259 014e 20000000 		.4byte	.LVL51
 3260 0152 22000000 		.4byte	.LVL52
 3261 0156 0100     		.2byte	0x1
 3262 0158 50       		.byte	0x50
 3263 0159 22000000 		.4byte	.LVL52
 3264 015d 28000000 		.4byte	.LFE10
 3265 0161 0400     		.2byte	0x4
 3266 0163 F3       		.byte	0xf3
 3267 0164 01       		.uleb128 0x1
 3268 0165 50       		.byte	0x50
 3269 0166 9F       		.byte	0x9f
 3270 0167 00000000 		.4byte	0
 3271 016b 00000000 		.4byte	0
 3272              	.LLST11:
 3273 016f 00000000 		.4byte	.LVL45
 3274 0173 14000000 		.4byte	.LVL47
 3275 0177 0200     		.2byte	0x2
ARM GAS  C:\Users\LUKASC~1\AppData\Local\Temp\ccb2ZD5o.s 			page 103


 3276 0179 30       		.byte	0x30
 3277 017a 9F       		.byte	0x9f
 3278 017b 14000000 		.4byte	.LVL47
 3279 017f 1C000000 		.4byte	.LVL49
 3280 0183 0100     		.2byte	0x1
 3281 0185 50       		.byte	0x50
 3282 0186 1C000000 		.4byte	.LVL49
 3283 018a 1E000000 		.4byte	.LVL50
 3284 018e 0300     		.2byte	0x3
 3285 0190 70       		.byte	0x70
 3286 0191 02       		.sleb128 2
 3287 0192 9F       		.byte	0x9f
 3288 0193 1E000000 		.4byte	.LVL50
 3289 0197 20000000 		.4byte	.LVL51
 3290 019b 0100     		.2byte	0x1
 3291 019d 50       		.byte	0x50
 3292 019e 20000000 		.4byte	.LVL51
 3293 01a2 22000000 		.4byte	.LVL52
 3294 01a6 0200     		.2byte	0x2
 3295 01a8 30       		.byte	0x30
 3296 01a9 9F       		.byte	0x9f
 3297 01aa 22000000 		.4byte	.LVL52
 3298 01ae 28000000 		.4byte	.LFE10
 3299 01b2 0100     		.2byte	0x1
 3300 01b4 50       		.byte	0x50
 3301 01b5 00000000 		.4byte	0
 3302 01b9 00000000 		.4byte	0
 3303              	.LLST12:
 3304 01bd 00000000 		.4byte	.LVL53
 3305 01c1 7A000000 		.4byte	.LVL63
 3306 01c5 0100     		.2byte	0x1
 3307 01c7 50       		.byte	0x50
 3308 01c8 7A000000 		.4byte	.LVL63
 3309 01cc 94000000 		.4byte	.LFE11
 3310 01d0 0400     		.2byte	0x4
 3311 01d2 F3       		.byte	0xf3
 3312 01d3 01       		.uleb128 0x1
 3313 01d4 50       		.byte	0x50
 3314 01d5 9F       		.byte	0x9f
 3315 01d6 00000000 		.4byte	0
 3316 01da 00000000 		.4byte	0
 3317              	.LLST13:
 3318 01de 00000000 		.4byte	.LVL53
 3319 01e2 2C000000 		.4byte	.LVL54
 3320 01e6 0100     		.2byte	0x1
 3321 01e8 52       		.byte	0x52
 3322 01e9 2C000000 		.4byte	.LVL54
 3323 01ed 32000000 		.4byte	.LVL55
 3324 01f1 0400     		.2byte	0x4
 3325 01f3 F3       		.byte	0xf3
 3326 01f4 01       		.uleb128 0x1
 3327 01f5 52       		.byte	0x52
 3328 01f6 9F       		.byte	0x9f
 3329 01f7 32000000 		.4byte	.LVL55
 3330 01fb 6E000000 		.4byte	.LVL62
 3331 01ff 0100     		.2byte	0x1
 3332 0201 52       		.byte	0x52
ARM GAS  C:\Users\LUKASC~1\AppData\Local\Temp\ccb2ZD5o.s 			page 104


 3333 0202 00000000 		.4byte	0
 3334 0206 00000000 		.4byte	0
 3335              	.LLST14:
 3336 020a 52000000 		.4byte	.LVL56
 3337 020e 5C000000 		.4byte	.LVL57
 3338 0212 0100     		.2byte	0x1
 3339 0214 53       		.byte	0x53
 3340 0215 5E000000 		.4byte	.LVL58
 3341 0219 60000000 		.4byte	.LVL59
 3342 021d 0100     		.2byte	0x1
 3343 021f 53       		.byte	0x53
 3344 0220 62000000 		.4byte	.LVL60
 3345 0224 66000000 		.4byte	.LVL61
 3346 0228 0100     		.2byte	0x1
 3347 022a 53       		.byte	0x53
 3348 022b 00000000 		.4byte	0
 3349 022f 00000000 		.4byte	0
 3350              	.LLST15:
 3351 0233 00000000 		.4byte	.LVL64
 3352 0237 1C000000 		.4byte	.LVL65
 3353 023b 0100     		.2byte	0x1
 3354 023d 50       		.byte	0x50
 3355 023e 1C000000 		.4byte	.LVL65
 3356 0242 2C000000 		.4byte	.LFE13
 3357 0246 0400     		.2byte	0x4
 3358 0248 F3       		.byte	0xf3
 3359 0249 01       		.uleb128 0x1
 3360 024a 50       		.byte	0x50
 3361 024b 9F       		.byte	0x9f
 3362 024c 00000000 		.4byte	0
 3363 0250 00000000 		.4byte	0
 3364              	.LLST16:
 3365 0254 00000000 		.4byte	.LVL66
 3366 0258 13000000 		.4byte	.LVL67-1
 3367 025c 0100     		.2byte	0x1
 3368 025e 50       		.byte	0x50
 3369 025f 13000000 		.4byte	.LVL67-1
 3370 0263 3C000000 		.4byte	.LVL74
 3371 0267 0400     		.2byte	0x4
 3372 0269 F3       		.byte	0xf3
 3373 026a 01       		.uleb128 0x1
 3374 026b 50       		.byte	0x50
 3375 026c 9F       		.byte	0x9f
 3376 026d 3C000000 		.4byte	.LVL74
 3377 0271 46000000 		.4byte	.LVL75
 3378 0275 0100     		.2byte	0x1
 3379 0277 50       		.byte	0x50
 3380 0278 46000000 		.4byte	.LVL75
 3381 027c 50000000 		.4byte	.LFE12
 3382 0280 0400     		.2byte	0x4
 3383 0282 F3       		.byte	0xf3
 3384 0283 01       		.uleb128 0x1
 3385 0284 50       		.byte	0x50
 3386 0285 9F       		.byte	0x9f
 3387 0286 00000000 		.4byte	0
 3388 028a 00000000 		.4byte	0
 3389              	.LLST17:
ARM GAS  C:\Users\LUKASC~1\AppData\Local\Temp\ccb2ZD5o.s 			page 105


 3390 028e 00000000 		.4byte	.LVL66
 3391 0292 13000000 		.4byte	.LVL67-1
 3392 0296 0100     		.2byte	0x1
 3393 0298 51       		.byte	0x51
 3394 0299 13000000 		.4byte	.LVL67-1
 3395 029d 3C000000 		.4byte	.LVL74
 3396 02a1 0100     		.2byte	0x1
 3397 02a3 56       		.byte	0x56
 3398 02a4 3C000000 		.4byte	.LVL74
 3399 02a8 46000000 		.4byte	.LVL75
 3400 02ac 0100     		.2byte	0x1
 3401 02ae 51       		.byte	0x51
 3402 02af 46000000 		.4byte	.LVL75
 3403 02b3 50000000 		.4byte	.LFE12
 3404 02b7 0400     		.2byte	0x4
 3405 02b9 F3       		.byte	0xf3
 3406 02ba 01       		.uleb128 0x1
 3407 02bb 51       		.byte	0x51
 3408 02bc 9F       		.byte	0x9f
 3409 02bd 00000000 		.4byte	0
 3410 02c1 00000000 		.4byte	0
 3411              	.LLST18:
 3412 02c5 00000000 		.4byte	.LVL66
 3413 02c9 13000000 		.4byte	.LVL67-1
 3414 02cd 0100     		.2byte	0x1
 3415 02cf 52       		.byte	0x52
 3416 02d0 13000000 		.4byte	.LVL67-1
 3417 02d4 20000000 		.4byte	.LVL69
 3418 02d8 0400     		.2byte	0x4
 3419 02da F3       		.byte	0xf3
 3420 02db 01       		.uleb128 0x1
 3421 02dc 52       		.byte	0x52
 3422 02dd 9F       		.byte	0x9f
 3423 02de 20000000 		.4byte	.LVL69
 3424 02e2 3C000000 		.4byte	.LVL74
 3425 02e6 0100     		.2byte	0x1
 3426 02e8 54       		.byte	0x54
 3427 02e9 3C000000 		.4byte	.LVL74
 3428 02ed 46000000 		.4byte	.LVL75
 3429 02f1 0100     		.2byte	0x1
 3430 02f3 52       		.byte	0x52
 3431 02f4 46000000 		.4byte	.LVL75
 3432 02f8 4A000000 		.4byte	.LVL76
 3433 02fc 0100     		.2byte	0x1
 3434 02fe 54       		.byte	0x54
 3435 02ff 00000000 		.4byte	0
 3436 0303 00000000 		.4byte	0
 3437              	.LLST19:
 3438 0307 20000000 		.4byte	.LVL69
 3439 030b 24000000 		.4byte	.LVL70
 3440 030f 0200     		.2byte	0x2
 3441 0311 30       		.byte	0x30
 3442 0312 9F       		.byte	0x9f
 3443 0313 24000000 		.4byte	.LVL70
 3444 0317 2E000000 		.4byte	.LVL71
 3445 031b 0100     		.2byte	0x1
 3446 031d 53       		.byte	0x53
ARM GAS  C:\Users\LUKASC~1\AppData\Local\Temp\ccb2ZD5o.s 			page 106


 3447 031e 30000000 		.4byte	.LVL72
 3448 0322 39000000 		.4byte	.LVL73-1
 3449 0326 0100     		.2byte	0x1
 3450 0328 53       		.byte	0x53
 3451 0329 00000000 		.4byte	0
 3452 032d 00000000 		.4byte	0
 3453              	.LLST20:
 3454 0331 00000000 		.4byte	.LVL77
 3455 0335 0A000000 		.4byte	.LVL78
 3456 0339 0100     		.2byte	0x1
 3457 033b 50       		.byte	0x50
 3458 033c 0A000000 		.4byte	.LVL78
 3459 0340 18000000 		.4byte	.LFE14
 3460 0344 0400     		.2byte	0x4
 3461 0346 F3       		.byte	0xf3
 3462 0347 01       		.uleb128 0x1
 3463 0348 50       		.byte	0x50
 3464 0349 9F       		.byte	0x9f
 3465 034a 00000000 		.4byte	0
 3466 034e 00000000 		.4byte	0
 3467              	.LLST21:
 3468 0352 00000000 		.4byte	.LVL80
 3469 0356 0A000000 		.4byte	.LVL81
 3470 035a 0100     		.2byte	0x1
 3471 035c 50       		.byte	0x50
 3472 035d 0A000000 		.4byte	.LVL81
 3473 0361 16000000 		.4byte	.LVL83
 3474 0365 0400     		.2byte	0x4
 3475 0367 F3       		.byte	0xf3
 3476 0368 01       		.uleb128 0x1
 3477 0369 50       		.byte	0x50
 3478 036a 9F       		.byte	0x9f
 3479 036b 16000000 		.4byte	.LVL83
 3480 036f 18000000 		.4byte	.LVL84
 3481 0373 0100     		.2byte	0x1
 3482 0375 50       		.byte	0x50
 3483 0376 18000000 		.4byte	.LVL84
 3484 037a 20000000 		.4byte	.LFE16
 3485 037e 0400     		.2byte	0x4
 3486 0380 F3       		.byte	0xf3
 3487 0381 01       		.uleb128 0x1
 3488 0382 50       		.byte	0x50
 3489 0383 9F       		.byte	0x9f
 3490 0384 00000000 		.4byte	0
 3491 0388 00000000 		.4byte	0
 3492              	.LLST22:
 3493 038c 00000000 		.4byte	.LVL80
 3494 0390 14000000 		.4byte	.LVL82
 3495 0394 0200     		.2byte	0x2
 3496 0396 30       		.byte	0x30
 3497 0397 9F       		.byte	0x9f
 3498 0398 14000000 		.4byte	.LVL82
 3499 039c 16000000 		.4byte	.LVL83
 3500 03a0 0100     		.2byte	0x1
 3501 03a2 50       		.byte	0x50
 3502 03a3 16000000 		.4byte	.LVL83
 3503 03a7 18000000 		.4byte	.LVL84
ARM GAS  C:\Users\LUKASC~1\AppData\Local\Temp\ccb2ZD5o.s 			page 107


 3504 03ab 0200     		.2byte	0x2
 3505 03ad 30       		.byte	0x30
 3506 03ae 9F       		.byte	0x9f
 3507 03af 18000000 		.4byte	.LVL84
 3508 03b3 20000000 		.4byte	.LFE16
 3509 03b7 0100     		.2byte	0x1
 3510 03b9 50       		.byte	0x50
 3511 03ba 00000000 		.4byte	0
 3512 03be 00000000 		.4byte	0
 3513              	.LLST23:
 3514 03c2 00000000 		.4byte	.LVL86
 3515 03c6 10000000 		.4byte	.LVL87
 3516 03ca 0200     		.2byte	0x2
 3517 03cc 30       		.byte	0x30
 3518 03cd 9F       		.byte	0x9f
 3519 03ce 10000000 		.4byte	.LVL87
 3520 03d2 18000000 		.4byte	.LFE18
 3521 03d6 0100     		.2byte	0x1
 3522 03d8 50       		.byte	0x50
 3523 03d9 00000000 		.4byte	0
 3524 03dd 00000000 		.4byte	0
 3525              		.section	.debug_aranges,"",%progbits
 3526 0000 C4000000 		.4byte	0xc4
 3527 0004 0200     		.2byte	0x2
 3528 0006 00000000 		.4byte	.Ldebug_info0
 3529 000a 04       		.byte	0x4
 3530 000b 00       		.byte	0
 3531 000c 0000     		.2byte	0
 3532 000e 0000     		.2byte	0
 3533 0010 00000000 		.4byte	.LFB1
 3534 0014 68010000 		.4byte	.LFE1-.LFB1
 3535 0018 00000000 		.4byte	.LFB2
 3536 001c C0000000 		.4byte	.LFE2-.LFB2
 3537 0020 00000000 		.4byte	.LFB0
 3538 0024 24000000 		.4byte	.LFE0-.LFB0
 3539 0028 00000000 		.4byte	.LFB3
 3540 002c 4C000000 		.4byte	.LFE3-.LFB3
 3541 0030 00000000 		.4byte	.LFB4
 3542 0034 C0000000 		.4byte	.LFE4-.LFB4
 3543 0038 00000000 		.4byte	.LFB5
 3544 003c 20000000 		.4byte	.LFE5-.LFB5
 3545 0040 00000000 		.4byte	.LFB6
 3546 0044 0C000000 		.4byte	.LFE6-.LFB6
 3547 0048 00000000 		.4byte	.LFB7
 3548 004c 20000000 		.4byte	.LFE7-.LFB7
 3549 0050 00000000 		.4byte	.LFB8
 3550 0054 0C000000 		.4byte	.LFE8-.LFB8
 3551 0058 00000000 		.4byte	.LFB9
 3552 005c 14000000 		.4byte	.LFE9-.LFB9
 3553 0060 00000000 		.4byte	.LFB10
 3554 0064 28000000 		.4byte	.LFE10-.LFB10
 3555 0068 00000000 		.4byte	.LFB11
 3556 006c 94000000 		.4byte	.LFE11-.LFB11
 3557 0070 00000000 		.4byte	.LFB13
 3558 0074 2C000000 		.4byte	.LFE13-.LFB13
 3559 0078 00000000 		.4byte	.LFB12
 3560 007c 50000000 		.4byte	.LFE12-.LFB12
ARM GAS  C:\Users\LUKASC~1\AppData\Local\Temp\ccb2ZD5o.s 			page 108


 3561 0080 00000000 		.4byte	.LFB14
 3562 0084 18000000 		.4byte	.LFE14-.LFB14
 3563 0088 00000000 		.4byte	.LFB15
 3564 008c 0C000000 		.4byte	.LFE15-.LFB15
 3565 0090 00000000 		.4byte	.LFB16
 3566 0094 20000000 		.4byte	.LFE16-.LFB16
 3567 0098 00000000 		.4byte	.LFB17
 3568 009c 20000000 		.4byte	.LFE17-.LFB17
 3569 00a0 00000000 		.4byte	.LFB18
 3570 00a4 18000000 		.4byte	.LFE18-.LFB18
 3571 00a8 00000000 		.4byte	.LFB19
 3572 00ac 10000000 		.4byte	.LFE19-.LFB19
 3573 00b0 00000000 		.4byte	.LFB20
 3574 00b4 02000000 		.4byte	.LFE20-.LFB20
 3575 00b8 00000000 		.4byte	.LFB21
 3576 00bc 02000000 		.4byte	.LFE21-.LFB21
 3577 00c0 00000000 		.4byte	0
 3578 00c4 00000000 		.4byte	0
 3579              		.section	.debug_ranges,"",%progbits
 3580              	.Ldebug_ranges0:
 3581 0000 50000000 		.4byte	.LBB2
 3582 0004 60000000 		.4byte	.LBE2
 3583 0008 62000000 		.4byte	.LBB3
 3584 000c 66000000 		.4byte	.LBE3
 3585 0010 00000000 		.4byte	0
 3586 0014 00000000 		.4byte	0
 3587 0018 00000000 		.4byte	.LFB1
 3588 001c 68010000 		.4byte	.LFE1
 3589 0020 00000000 		.4byte	.LFB2
 3590 0024 C0000000 		.4byte	.LFE2
 3591 0028 00000000 		.4byte	.LFB0
 3592 002c 24000000 		.4byte	.LFE0
 3593 0030 00000000 		.4byte	.LFB3
 3594 0034 4C000000 		.4byte	.LFE3
 3595 0038 00000000 		.4byte	.LFB4
 3596 003c C0000000 		.4byte	.LFE4
 3597 0040 00000000 		.4byte	.LFB5
 3598 0044 20000000 		.4byte	.LFE5
 3599 0048 00000000 		.4byte	.LFB6
 3600 004c 0C000000 		.4byte	.LFE6
 3601 0050 00000000 		.4byte	.LFB7
 3602 0054 20000000 		.4byte	.LFE7
 3603 0058 00000000 		.4byte	.LFB8
 3604 005c 0C000000 		.4byte	.LFE8
 3605 0060 00000000 		.4byte	.LFB9
 3606 0064 14000000 		.4byte	.LFE9
 3607 0068 00000000 		.4byte	.LFB10
 3608 006c 28000000 		.4byte	.LFE10
 3609 0070 00000000 		.4byte	.LFB11
 3610 0074 94000000 		.4byte	.LFE11
 3611 0078 00000000 		.4byte	.LFB13
 3612 007c 2C000000 		.4byte	.LFE13
 3613 0080 00000000 		.4byte	.LFB12
 3614 0084 50000000 		.4byte	.LFE12
 3615 0088 00000000 		.4byte	.LFB14
 3616 008c 18000000 		.4byte	.LFE14
 3617 0090 00000000 		.4byte	.LFB15
ARM GAS  C:\Users\LUKASC~1\AppData\Local\Temp\ccb2ZD5o.s 			page 109


 3618 0094 0C000000 		.4byte	.LFE15
 3619 0098 00000000 		.4byte	.LFB16
 3620 009c 20000000 		.4byte	.LFE16
 3621 00a0 00000000 		.4byte	.LFB17
 3622 00a4 20000000 		.4byte	.LFE17
 3623 00a8 00000000 		.4byte	.LFB18
 3624 00ac 18000000 		.4byte	.LFE18
 3625 00b0 00000000 		.4byte	.LFB19
 3626 00b4 10000000 		.4byte	.LFE19
 3627 00b8 00000000 		.4byte	.LFB20
 3628 00bc 02000000 		.4byte	.LFE20
 3629 00c0 00000000 		.4byte	.LFB21
 3630 00c4 02000000 		.4byte	.LFE21
 3631 00c8 00000000 		.4byte	0
 3632 00cc 00000000 		.4byte	0
 3633              		.section	.debug_line,"",%progbits
 3634              	.Ldebug_line0:
 3635 0000 CF020000 		.section	.debug_str,"MS",%progbits,1
 3635      02006D00 
 3635      00000201 
 3635      FB0E0D00 
 3635      01010101 
 3636              	.LASF10:
 3637 0000 75696E74 		.ascii	"uint16\000"
 3637      313600
 3638              	.LASF44:
 3639 0007 434F4D5F 		.ascii	"COM_sie_eps_struct\000"
 3639      7369655F 
 3639      6570735F 
 3639      73747275 
 3639      637400
 3640              	.LASF93:
 3641 001a 43794578 		.ascii	"CyExitCriticalSection\000"
 3641      69744372 
 3641      69746963 
 3641      616C5365 
 3641      6374696F 
 3642              	.LASF46:
 3643 0030 434F4D5F 		.ascii	"COM_arb_eps_struct\000"
 3643      6172625F 
 3643      6570735F 
 3643      73747275 
 3643      637400
 3644              	.LASF68:
 3645 0043 434F4D5F 		.ascii	"COM_DisableOutEP\000"
 3645      44697361 
 3645      626C654F 
 3645      75744550 
 3645      00
 3646              	.LASF72:
 3647 0054 434F4D5F 		.ascii	"COM_SetPowerStatus\000"
 3647      53657450 
 3647      6F776572 
 3647      53746174 
 3647      757300
 3648              	.LASF97:
 3649 0067 434F4D5F 		.ascii	"COM_Dp_ClearInterrupt\000"
ARM GAS  C:\Users\LUKASC~1\AppData\Local\Temp\ccb2ZD5o.s 			page 110


 3649      44705F43 
 3649      6C656172 
 3649      496E7465 
 3649      72727570 
 3650              	.LASF7:
 3651 007d 6C6F6E67 		.ascii	"long long unsigned int\000"
 3651      206C6F6E 
 3651      6720756E 
 3651      7369676E 
 3651      65642069 
 3652              	.LASF67:
 3653 0094 434F4D5F 		.ascii	"COM_ReadOutEP\000"
 3653      52656164 
 3653      4F757445 
 3653      5000
 3654              	.LASF23:
 3655 00a2 61646472 		.ascii	"addr\000"
 3655      00
 3656              	.LASF33:
 3657 00a7 65704366 		.ascii	"epCfg\000"
 3657      6700
 3658              	.LASF60:
 3659 00ad 65704E75 		.ascii	"epNumber\000"
 3659      6D626572 
 3659      00
 3660              	.LASF49:
 3661 00b6 64657669 		.ascii	"device\000"
 3661      636500
 3662              	.LASF6:
 3663 00bd 6C6F6E67 		.ascii	"long long int\000"
 3663      206C6F6E 
 3663      6720696E 
 3663      7400
 3664              	.LASF0:
 3665 00cb 7369676E 		.ascii	"signed char\000"
 3665      65642063 
 3665      68617200 
 3666              	.LASF100:
 3667 00d7 433A5C55 		.ascii	"C:\\Users\\Lukas Creutzburg\\Documents\\GitHub\\fre"
 3667      73657273 
 3667      5C4C756B 
 3667      61732043 
 3667      72657574 
 3668 0105 65445350 		.ascii	"eDSP_6CHamp\\PSoC Workspace\\Controls.cydsn\000"
 3668      5F364348 
 3668      616D705C 
 3668      50536F43 
 3668      20576F72 
 3669              	.LASF87:
 3670 012f 434F4D5F 		.ascii	"COM_interfaceNumber\000"
 3670      696E7465 
 3670      72666163 
 3670      654E756D 
 3670      62657200 
 3671              	.LASF62:
 3672 0143 636E7472 		.ascii	"cntr\000"
 3672      00
ARM GAS  C:\Users\LUKASC~1\AppData\Local\Temp\ccb2ZD5o.s 			page 111


 3673              	.LASF4:
 3674 0148 6C6F6E67 		.ascii	"long int\000"
 3674      20696E74 
 3674      00
 3675              	.LASF80:
 3676 0151 434F4D5F 		.ascii	"COM_DisableSofInt\000"
 3676      44697361 
 3676      626C6553 
 3676      6F66496E 
 3676      7400
 3677              	.LASF9:
 3678 0163 75696E74 		.ascii	"uint8\000"
 3678      3800
 3679              	.LASF22:
 3680 0169 6570546F 		.ascii	"epToggle\000"
 3680      67676C65 
 3680      00
 3681              	.LASF37:
 3682 0172 72775761 		.ascii	"rwWa\000"
 3682      00
 3683              	.LASF92:
 3684 0177 43794465 		.ascii	"CyDelayUs\000"
 3684      6C617955 
 3684      7300
 3685              	.LASF13:
 3686 0181 646F7562 		.ascii	"double\000"
 3686      6C6500
 3687              	.LASF73:
 3688 0188 706F7765 		.ascii	"powerStatus\000"
 3688      72537461 
 3688      74757300 
 3689              	.LASF35:
 3690 0194 65705372 		.ascii	"epSr\000"
 3690      00
 3691              	.LASF11:
 3692 0199 75696E74 		.ascii	"uint32\000"
 3692      333200
 3693              	.LASF64:
 3694 01a0 70446174 		.ascii	"pData\000"
 3694      6100
 3695              	.LASF24:
 3696 01a6 65704D6F 		.ascii	"epMode\000"
 3696      646500
 3697              	.LASF36:
 3698 01ad 72657365 		.ascii	"reserved\000"
 3698      72766564 
 3698      00
 3699              	.LASF74:
 3700 01b6 434F4D5F 		.ascii	"COM_RWUEnabled\000"
 3700      52575545 
 3700      6E61626C 
 3700      656400
 3701              	.LASF28:
 3702 01c5 545F434F 		.ascii	"T_COM_EP_CTL_BLOCK\000"
 3702      4D5F4550 
 3702      5F43544C 
 3702      5F424C4F 
ARM GAS  C:\Users\LUKASC~1\AppData\Local\Temp\ccb2ZD5o.s 			page 112


 3702      434B00
 3703              	.LASF8:
 3704 01d8 756E7369 		.ascii	"unsigned int\000"
 3704      676E6564 
 3704      20696E74 
 3704      00
 3705              	.LASF79:
 3706 01e5 434F4D5F 		.ascii	"COM_EnableSofInt\000"
 3706      456E6162 
 3706      6C65536F 
 3706      66496E74 
 3706      00
 3707              	.LASF99:
 3708 01f6 47656E65 		.ascii	"Generated_Source\\PSoC5\\COM.c\000"
 3708      72617465 
 3708      645F536F 
 3708      75726365 
 3708      5C50536F 
 3709              	.LASF5:
 3710 0213 6C6F6E67 		.ascii	"long unsigned int\000"
 3710      20756E73 
 3710      69676E65 
 3710      6420696E 
 3710      7400
 3711              	.LASF96:
 3712 0225 4379456E 		.ascii	"CyEnterCriticalSection\000"
 3712      74657243 
 3712      72697469 
 3712      63616C53 
 3712      65637469 
 3713              	.LASF3:
 3714 023c 73686F72 		.ascii	"short unsigned int\000"
 3714      7420756E 
 3714      7369676E 
 3714      65642069 
 3714      6E7400
 3715              	.LASF101:
 3716 024f 4379496E 		.ascii	"CyIntSetVector\000"
 3716      74536574 
 3716      56656374 
 3716      6F7200
 3717              	.LASF94:
 3718 025e 4379496E 		.ascii	"CyIntSetPriority\000"
 3718      74536574 
 3718      5072696F 
 3718      72697479 
 3718      00
 3719              	.LASF71:
 3720 026f 434F4D5F 		.ascii	"COM_GetEPAckState\000"
 3720      47657445 
 3720      5041636B 
 3720      53746174 
 3720      6500
 3721              	.LASF45:
 3722 0281 61726245 		.ascii	"arbEp\000"
 3722      7000
 3723              	.LASF27:
ARM GAS  C:\Users\LUKASC~1\AppData\Local\Temp\ccb2ZD5o.s 			page 113


 3724 0287 696E7465 		.ascii	"interface\000"
 3724      72666163 
 3724      6500
 3725              	.LASF54:
 3726 0291 63723152 		.ascii	"cr1Reg\000"
 3726      656700
 3727              	.LASF88:
 3728 0298 434F4D5F 		.ascii	"COM_interfaceSetting\000"
 3728      696E7465 
 3728      72666163 
 3728      65536574 
 3728      74696E67 
 3729              	.LASF52:
 3730 02ad 434F4D5F 		.ascii	"COM_Stop\000"
 3730      53746F70 
 3730      00
 3731              	.LASF55:
 3732 02b6 434F4D5F 		.ascii	"COM_CheckActivity\000"
 3732      43686563 
 3732      6B416374 
 3732      69766974 
 3732      7900
 3733              	.LASF16:
 3734 02c8 72656733 		.ascii	"reg32\000"
 3734      3200
 3735              	.LASF21:
 3736 02ce 68774570 		.ascii	"hwEpState\000"
 3736      53746174 
 3736      6500
 3737              	.LASF18:
 3738 02d8 73697A65 		.ascii	"sizetype\000"
 3738      74797065 
 3738      00
 3739              	.LASF43:
 3740 02e1 73696545 		.ascii	"sieEp\000"
 3740      7000
 3741              	.LASF19:
 3742 02e7 61747472 		.ascii	"attrib\000"
 3742      696200
 3743              	.LASF82:
 3744 02ee 434F4D5F 		.ascii	"COM_device\000"
 3744      64657669 
 3744      636500
 3745              	.LASF40:
 3746 02f9 72775261 		.ascii	"rwRaMsb\000"
 3746      4D736200 
 3747              	.LASF29:
 3748 0301 6570436E 		.ascii	"epCnt0\000"
 3748      743000
 3749              	.LASF30:
 3750 0308 6570436E 		.ascii	"epCnt1\000"
 3750      743100
 3751              	.LASF83:
 3752 030f 434F4D5F 		.ascii	"COM_transferState\000"
 3752      7472616E 
 3752      73666572 
 3752      53746174 
ARM GAS  C:\Users\LUKASC~1\AppData\Local\Temp\ccb2ZD5o.s 			page 114


 3752      6500
 3753              	.LASF31:
 3754 0321 65704372 		.ascii	"epCr0\000"
 3754      3000
 3755              	.LASF57:
 3756 0327 434F4D5F 		.ascii	"COM_GetInterfaceSetting\000"
 3756      47657449 
 3756      6E746572 
 3756      66616365 
 3756      53657474 
 3757              	.LASF12:
 3758 033f 666C6F61 		.ascii	"float\000"
 3758      7400
 3759              	.LASF51:
 3760 0345 434F4D5F 		.ascii	"COM_Start\000"
 3760      53746172 
 3760      7400
 3761              	.LASF20:
 3762 034f 61706945 		.ascii	"apiEpState\000"
 3762      70537461 
 3762      746500
 3763              	.LASF95:
 3764 035a 43794465 		.ascii	"CyDelayCycles\000"
 3764      6C617943 
 3764      79636C65 
 3764      7300
 3765              	.LASF59:
 3766 0368 434F4D5F 		.ascii	"COM_GetEPState\000"
 3766      47657445 
 3766      50537461 
 3766      746500
 3767              	.LASF15:
 3768 0377 72656738 		.ascii	"reg8\000"
 3768      00
 3769              	.LASF91:
 3770 037c 434F4D5F 		.ascii	"COM_lastPacketSize\000"
 3770      6C617374 
 3770      5061636B 
 3770      65745369 
 3770      7A6500
 3771              	.LASF1:
 3772 038f 756E7369 		.ascii	"unsigned char\000"
 3772      676E6564 
 3772      20636861 
 3772      7200
 3773              	.LASF2:
 3774 039d 73686F72 		.ascii	"short int\000"
 3774      7420696E 
 3774      7400
 3775              	.LASF78:
 3776 03a7 434F4D5F 		.ascii	"COM_ReInitComponent\000"
 3776      5265496E 
 3776      6974436F 
 3776      6D706F6E 
 3776      656E7400 
 3777              	.LASF86:
 3778 03bb 434F4D5F 		.ascii	"COM_deviceStatus\000"
ARM GAS  C:\Users\LUKASC~1\AppData\Local\Temp\ccb2ZD5o.s 			page 115


 3778      64657669 
 3778      63655374 
 3778      61747573 
 3778      00
 3779              	.LASF39:
 3780 03cc 72775261 		.ascii	"rwRa\000"
 3780      00
 3781              	.LASF38:
 3782 03d1 72775761 		.ascii	"rwWaMsb\000"
 3782      4D736200 
 3783              	.LASF77:
 3784 03d9 434F4D5F 		.ascii	"COM_GetDeviceAddress\000"
 3784      47657444 
 3784      65766963 
 3784      65416464 
 3784      72657373 
 3785              	.LASF90:
 3786 03ee 434F4D5F 		.ascii	"COM_EP\000"
 3786      455000
 3787              	.LASF81:
 3788 03f5 434F4D5F 		.ascii	"COM_initVar\000"
 3788      696E6974 
 3788      56617200 
 3789              	.LASF70:
 3790 0401 62537461 		.ascii	"bState\000"
 3790      746500
 3791              	.LASF61:
 3792 0408 434F4D5F 		.ascii	"COM_GetEPCount\000"
 3792      47657445 
 3792      50436F75 
 3792      6E7400
 3793              	.LASF89:
 3794 0417 434F4D5F 		.ascii	"COM_deviceAddress\000"
 3794      64657669 
 3794      63654164 
 3794      64726573 
 3794      7300
 3795              	.LASF65:
 3796 0429 6C656E67 		.ascii	"length\000"
 3796      746800
 3797              	.LASF14:
 3798 0430 63686172 		.ascii	"char\000"
 3798      00
 3799              	.LASF50:
 3800 0435 6D6F6465 		.ascii	"mode\000"
 3800      00
 3801              	.LASF17:
 3802 043a 63796973 		.ascii	"cyisraddress\000"
 3802      72616464 
 3802      72657373 
 3802      00
 3803              	.LASF26:
 3804 0447 62756666 		.ascii	"bufferSize\000"
 3804      65725369 
 3804      7A6500
 3805              	.LASF42:
 3806 0452 434F4D5F 		.ascii	"COM_arb_ep_struct\000"
ARM GAS  C:\Users\LUKASC~1\AppData\Local\Temp\ccb2ZD5o.s 			page 116


 3806      6172625F 
 3806      65705F73 
 3806      74727563 
 3806      7400
 3807              	.LASF25:
 3808 0464 62756666 		.ascii	"buffOffset\000"
 3808      4F666673 
 3808      657400
 3809              	.LASF58:
 3810 046f 696E7465 		.ascii	"interfaceNumber\000"
 3810      72666163 
 3810      654E756D 
 3810      62657200 
 3811              	.LASF76:
 3812 047f 434F4D5F 		.ascii	"COM_GetConfiguration\000"
 3812      47657443 
 3812      6F6E6669 
 3812      67757261 
 3812      74696F6E 
 3813              	.LASF63:
 3814 0494 434F4D5F 		.ascii	"COM_LoadInEP\000"
 3814      4C6F6164 
 3814      496E4550 
 3814      00
 3815              	.LASF56:
 3816 04a1 434F4D5F 		.ascii	"COM_IsConfigurationChanged\000"
 3816      4973436F 
 3816      6E666967 
 3816      75726174 
 3816      696F6E43 
 3817              	.LASF85:
 3818 04bc 434F4D5F 		.ascii	"COM_configurationChanged\000"
 3818      636F6E66 
 3818      69677572 
 3818      6174696F 
 3818      6E436861 
 3819              	.LASF48:
 3820 04d5 434F4D5F 		.ascii	"COM_InitComponent\000"
 3820      496E6974 
 3820      436F6D70 
 3820      6F6E656E 
 3820      7400
 3821              	.LASF47:
 3822 04e7 434F4D5F 		.ascii	"COM_Init\000"
 3822      496E6974 
 3822      00
 3823              	.LASF53:
 3824 04f0 656E6162 		.ascii	"enableInterrupts\000"
 3824      6C65496E 
 3824      74657272 
 3824      75707473 
 3824      00
 3825              	.LASF84:
 3826 0501 434F4D5F 		.ascii	"COM_configuration\000"
 3826      636F6E66 
 3826      69677572 
 3826      6174696F 
ARM GAS  C:\Users\LUKASC~1\AppData\Local\Temp\ccb2ZD5o.s 			page 117


 3826      6E00
 3827              	.LASF98:
 3828 0513 474E5520 		.ascii	"GNU C 4.9.3 20150303 (release) [ARM/embedded-4_9-br"
 3828      4320342E 
 3828      392E3320 
 3828      32303135 
 3828      30333033 
 3829 0546 616E6368 		.ascii	"anch revision 221220] -mcpu=cortex-m3 -mthumb -g -O"
 3829      20726576 
 3829      6973696F 
 3829      6E203232 
 3829      31323230 
 3830 0579 67202D66 		.ascii	"g -ffunction-sections -ffat-lto-objects\000"
 3830      66756E63 
 3830      74696F6E 
 3830      2D736563 
 3830      74696F6E 
 3831              	.LASF41:
 3832 05a1 72774472 		.ascii	"rwDr\000"
 3832      00
 3833              	.LASF69:
 3834 05a6 434F4D5F 		.ascii	"COM_Force\000"
 3834      466F7263 
 3834      6500
 3835              	.LASF34:
 3836 05b0 6570496E 		.ascii	"epIntEn\000"
 3836      74456E00 
 3837              	.LASF66:
 3838 05b8 434F4D5F 		.ascii	"COM_EnableOutEP\000"
 3838      456E6162 
 3838      6C654F75 
 3838      74455000 
 3839              	.LASF75:
 3840 05c8 72657375 		.ascii	"result\000"
 3840      6C7400
 3841              	.LASF32:
 3842 05cf 434F4D5F 		.ascii	"COM_sie_ep_struct\000"
 3842      7369655F 
 3842      65705F73 
 3842      74727563 
 3842      7400
 3843              		.ident	"GCC: (GNU Tools for ARM Embedded Processors) 4.9.3 20150303 (release) [ARM/embedded-4_9-br
