ARM GAS  C:\Users\LUKASC~1\AppData\Local\Temp\ccb2ZD5o.s 			page 1


   1              		.syntax unified
   2              		.cpu cortex-m3
   3              		.fpu softvfp
   4              		.eabi_attribute 20, 1
   5              		.eabi_attribute 21, 1
   6              		.eabi_attribute 23, 3
   7              		.eabi_attribute 24, 1
   8              		.eabi_attribute 25, 1
   9              		.eabi_attribute 26, 1
  10              		.eabi_attribute 30, 1
  11              		.eabi_attribute 34, 1
  12              		.eabi_attribute 18, 4
  13              		.thumb
  14              		.file	"COM.c"
  15              		.text
  16              	.Ltext0:
  17              		.cfi_sections	.debug_frame
  18              		.section	.text.COM_Init,"ax",%progbits
  19              		.align	2
  20              		.global	COM_Init
  21              		.thumb
  22              		.thumb_func
  23              		.type	COM_Init, %function
  24              	COM_Init:
  25              	.LFB1:
  26              		.file 1 "Generated_Source\\PSoC5\\COM.c"
   1:Generated_Source\PSoC5/COM.c **** /***************************************************************************//**
   2:Generated_Source\PSoC5/COM.c **** * \file COM.c
   3:Generated_Source\PSoC5/COM.c **** * \version 3.10
   4:Generated_Source\PSoC5/COM.c **** *
   5:Generated_Source\PSoC5/COM.c **** * \brief
   6:Generated_Source\PSoC5/COM.c **** *  This file contains the global USBFS API functions.
   7:Generated_Source\PSoC5/COM.c **** *
   8:Generated_Source\PSoC5/COM.c **** * Note:
   9:Generated_Source\PSoC5/COM.c **** *  Many of the functions use an endpoint number. SRAM arrays are sized with 9
  10:Generated_Source\PSoC5/COM.c **** *  elements, so they are indexed directly by epNumber.  The SIE and ARB
  11:Generated_Source\PSoC5/COM.c **** *  registers are indexed by variations of epNumber - 1.
  12:Generated_Source\PSoC5/COM.c **** *
  13:Generated_Source\PSoC5/COM.c **** ********************************************************************************
  14:Generated_Source\PSoC5/COM.c **** * \copyright
  15:Generated_Source\PSoC5/COM.c **** * Copyright 2008-2016, Cypress Semiconductor Corporation.  All rights reserved.
  16:Generated_Source\PSoC5/COM.c **** * You may use this file only in accordance with the license, terms, conditions,
  17:Generated_Source\PSoC5/COM.c **** * disclaimers, and limitations in the end user license agreement accompanying
  18:Generated_Source\PSoC5/COM.c **** * the software package with which this file was provided.
  19:Generated_Source\PSoC5/COM.c **** *******************************************************************************/
  20:Generated_Source\PSoC5/COM.c **** 
  21:Generated_Source\PSoC5/COM.c **** #include "COM_pvt.h"
  22:Generated_Source\PSoC5/COM.c **** #include "COM_cydmac.h"
  23:Generated_Source\PSoC5/COM.c **** #include "COM_hid.h"
  24:Generated_Source\PSoC5/COM.c **** #include "COM_Dp.h"
  25:Generated_Source\PSoC5/COM.c **** 
  26:Generated_Source\PSoC5/COM.c **** 
  27:Generated_Source\PSoC5/COM.c **** /***************************************
  28:Generated_Source\PSoC5/COM.c **** * Global data allocation
  29:Generated_Source\PSoC5/COM.c **** ***************************************/
  30:Generated_Source\PSoC5/COM.c **** 
  31:Generated_Source\PSoC5/COM.c **** /** Indicates whether the USBFS has been initialized. The variable is
ARM GAS  C:\Users\LUKASC~1\AppData\Local\Temp\ccb2ZD5o.s 			page 2


  32:Generated_Source\PSoC5/COM.c **** * initialized to 0 after device reset and set to 1 the first time USBFS_Start()
  33:Generated_Source\PSoC5/COM.c **** * is called. This allows the Component to restart without reinitialization after
  34:Generated_Source\PSoC5/COM.c **** * the first call to the USBFS_Start() routine.
  35:Generated_Source\PSoC5/COM.c **** * If re-initialization of the Component is required, the variable should be set
  36:Generated_Source\PSoC5/COM.c **** * to 0 before the USBFS_Start() routine is called. Alternatively, the USBFS can
  37:Generated_Source\PSoC5/COM.c **** * be reinitialized by calling both USBFS_Init() and USBFS_InitComponent()
  38:Generated_Source\PSoC5/COM.c **** * functions.
  39:Generated_Source\PSoC5/COM.c **** */
  40:Generated_Source\PSoC5/COM.c **** uint8 COM_initVar = 0u;
  41:Generated_Source\PSoC5/COM.c **** 
  42:Generated_Source\PSoC5/COM.c **** #if (COM_EP_MANAGEMENT_DMA)
  43:Generated_Source\PSoC5/COM.c ****     #if (CY_PSOC4)
  44:Generated_Source\PSoC5/COM.c ****         static void COM_InitEpDma(void);
  45:Generated_Source\PSoC5/COM.c **** 
  46:Generated_Source\PSoC5/COM.c ****         /* DMA chanels assigend for endpoints. */
  47:Generated_Source\PSoC5/COM.c ****         const uint8 COM_DmaChan[COM_MAX_EP] =
  48:Generated_Source\PSoC5/COM.c ****         {
  49:Generated_Source\PSoC5/COM.c ****             0u,
  50:Generated_Source\PSoC5/COM.c ****             0u,
  51:Generated_Source\PSoC5/COM.c ****             0u,
  52:Generated_Source\PSoC5/COM.c ****             0u,
  53:Generated_Source\PSoC5/COM.c ****             0u,
  54:Generated_Source\PSoC5/COM.c ****             0u,
  55:Generated_Source\PSoC5/COM.c ****             0u,
  56:Generated_Source\PSoC5/COM.c ****             0u,
  57:Generated_Source\PSoC5/COM.c ****             0u,
  58:Generated_Source\PSoC5/COM.c ****         };        
  59:Generated_Source\PSoC5/COM.c ****     #else
  60:Generated_Source\PSoC5/COM.c ****         /* DMA chanels assigend for endpoints. */
  61:Generated_Source\PSoC5/COM.c ****         uint8 COM_DmaChan[COM_MAX_EP];
  62:Generated_Source\PSoC5/COM.c ****         
  63:Generated_Source\PSoC5/COM.c ****         /* DMA TDs require for PSoC 3/5LP operation. */
  64:Generated_Source\PSoC5/COM.c ****         uint8 COM_DmaTd[COM_MAX_EP];
  65:Generated_Source\PSoC5/COM.c ****     #endif /* (CY_PSOC4) */
  66:Generated_Source\PSoC5/COM.c **** #endif /* (COM_EP_MANAGEMENT_DMA) */
  67:Generated_Source\PSoC5/COM.c **** 
  68:Generated_Source\PSoC5/COM.c **** #if (COM_EP_MANAGEMENT_DMA_AUTO)
  69:Generated_Source\PSoC5/COM.c **** #if (CY_PSOC4)
  70:Generated_Source\PSoC5/COM.c ****     /* Number of DMA bursts. */
  71:Generated_Source\PSoC5/COM.c ****     uint8  COM_DmaEpBurstCnt   [COM_MAX_EP];
  72:Generated_Source\PSoC5/COM.c ****     
  73:Generated_Source\PSoC5/COM.c ****     /* Number of bytes to transfer in last DMA burst. */
  74:Generated_Source\PSoC5/COM.c ****     uint8  COM_DmaEpLastBurstEl[COM_MAX_EP];
  75:Generated_Source\PSoC5/COM.c **** 
  76:Generated_Source\PSoC5/COM.c ****     /* Storage for arrays above. */
  77:Generated_Source\PSoC5/COM.c ****     uint8  COM_DmaEpBurstCntBackup  [COM_MAX_EP];
  78:Generated_Source\PSoC5/COM.c ****     uint32 COM_DmaEpBufferAddrBackup[COM_MAX_EP];
  79:Generated_Source\PSoC5/COM.c ****      
  80:Generated_Source\PSoC5/COM.c ****     /* DMA trigger mux output for usb.dma_req[0-7]. */
  81:Generated_Source\PSoC5/COM.c ****     const uint8 COM_DmaReqOut[COM_MAX_EP] =
  82:Generated_Source\PSoC5/COM.c ****     {
  83:Generated_Source\PSoC5/COM.c ****         0u,
  84:Generated_Source\PSoC5/COM.c ****         COM_ep1_dma__TR_OUTPUT,
  85:Generated_Source\PSoC5/COM.c ****         COM_ep2_dma__TR_OUTPUT,
  86:Generated_Source\PSoC5/COM.c ****         COM_ep3_dma__TR_OUTPUT,
  87:Generated_Source\PSoC5/COM.c ****         COM_ep4_dma__TR_OUTPUT,
  88:Generated_Source\PSoC5/COM.c ****         COM_ep5_dma__TR_OUTPUT,
ARM GAS  C:\Users\LUKASC~1\AppData\Local\Temp\ccb2ZD5o.s 			page 3


  89:Generated_Source\PSoC5/COM.c ****         COM_ep6_dma__TR_OUTPUT,
  90:Generated_Source\PSoC5/COM.c ****         0u,
  91:Generated_Source\PSoC5/COM.c ****         0u,
  92:Generated_Source\PSoC5/COM.c ****     };
  93:Generated_Source\PSoC5/COM.c **** 
  94:Generated_Source\PSoC5/COM.c ****     /* DMA trigger mux output for usb.dma_burstend[0-7]. */
  95:Generated_Source\PSoC5/COM.c ****     const uint8 COM_DmaBurstEndOut[COM_MAX_EP] =
  96:Generated_Source\PSoC5/COM.c ****     {
  97:Generated_Source\PSoC5/COM.c ****         0u,
  98:Generated_Source\PSoC5/COM.c ****         COM_BURSTEND_0_TR_OUTPUT,
  99:Generated_Source\PSoC5/COM.c ****         COM_BURSTEND_1_TR_OUTPUT,
 100:Generated_Source\PSoC5/COM.c ****         COM_BURSTEND_2_TR_OUTPUT,
 101:Generated_Source\PSoC5/COM.c ****         COM_BURSTEND_3_TR_OUTPUT,
 102:Generated_Source\PSoC5/COM.c ****         COM_BURSTEND_4_TR_OUTPUT,
 103:Generated_Source\PSoC5/COM.c ****         COM_BURSTEND_5_TR_OUTPUT,
 104:Generated_Source\PSoC5/COM.c ****         COM_BURSTEND_6_TR_OUTPUT,
 105:Generated_Source\PSoC5/COM.c ****         COM_BURSTEND_7_TR_OUTPUT
 106:Generated_Source\PSoC5/COM.c ****     };
 107:Generated_Source\PSoC5/COM.c ****     
 108:Generated_Source\PSoC5/COM.c **** #else
 109:Generated_Source\PSoC5/COM.c ****     #if (COM_EP_DMA_AUTO_OPT == 0u)
 110:Generated_Source\PSoC5/COM.c ****         static uint8 clearInDataRdyStatus = COM_ARB_EPX_CFG_DEFAULT;
 111:Generated_Source\PSoC5/COM.c ****         uint8 COM_DmaNextTd[COM_MAX_EP];
 112:Generated_Source\PSoC5/COM.c ****         const uint8 COM_epX_TD_TERMOUT_EN[COM_MAX_EP] =
 113:Generated_Source\PSoC5/COM.c ****         {
 114:Generated_Source\PSoC5/COM.c ****             0u,
 115:Generated_Source\PSoC5/COM.c ****             0u,
 116:Generated_Source\PSoC5/COM.c ****             0u,
 117:Generated_Source\PSoC5/COM.c ****             0u,
 118:Generated_Source\PSoC5/COM.c ****             0u,
 119:Generated_Source\PSoC5/COM.c ****             0u,
 120:Generated_Source\PSoC5/COM.c ****             0u,
 121:Generated_Source\PSoC5/COM.c ****             0u,
 122:Generated_Source\PSoC5/COM.c ****             0u,
 123:Generated_Source\PSoC5/COM.c ****         };
 124:Generated_Source\PSoC5/COM.c **** 
 125:Generated_Source\PSoC5/COM.c ****         volatile uint16 COM_inLength[COM_MAX_EP];
 126:Generated_Source\PSoC5/COM.c ****         const uint8 *COM_inDataPointer[COM_MAX_EP];
 127:Generated_Source\PSoC5/COM.c ****         volatile uint8 COM_inBufFull[COM_MAX_EP];
 128:Generated_Source\PSoC5/COM.c ****     #endif /* (COM_EP_DMA_AUTO_OPT == 0u) */
 129:Generated_Source\PSoC5/COM.c **** #endif /* (CY_PSOC4) */
 130:Generated_Source\PSoC5/COM.c **** #endif /* (COM_EP_MANAGEMENT_DMA_AUTO) */
 131:Generated_Source\PSoC5/COM.c **** 
 132:Generated_Source\PSoC5/COM.c **** 
 133:Generated_Source\PSoC5/COM.c **** /*******************************************************************************
 134:Generated_Source\PSoC5/COM.c **** * Function Name: COM_Start
 135:Generated_Source\PSoC5/COM.c **** ****************************************************************************//**
 136:Generated_Source\PSoC5/COM.c **** *
 137:Generated_Source\PSoC5/COM.c **** *   This function performs all required initialization for the USBFS component.
 138:Generated_Source\PSoC5/COM.c **** *   After this function call, the USB device initiates communication with the
 139:Generated_Source\PSoC5/COM.c **** *   host by pull-up D+ line. This is the preferred method to begin component
 140:Generated_Source\PSoC5/COM.c **** *   operation.
 141:Generated_Source\PSoC5/COM.c **** *
 142:Generated_Source\PSoC5/COM.c **** *   Note that global interrupts have to be enabled because interrupts are
 143:Generated_Source\PSoC5/COM.c **** *   required for USBFS component operation.
 144:Generated_Source\PSoC5/COM.c **** *
 145:Generated_Source\PSoC5/COM.c **** *   PSoC 4200L devices: when USBFS component configured to DMA with Automatic
ARM GAS  C:\Users\LUKASC~1\AppData\Local\Temp\ccb2ZD5o.s 			page 4


 146:Generated_Source\PSoC5/COM.c **** *   Buffer Management, the DMA interrupt priority is changed to the highest
 147:Generated_Source\PSoC5/COM.c **** *   (priority 0) inside this function.
 148:Generated_Source\PSoC5/COM.c **** *
 149:Generated_Source\PSoC5/COM.c **** *   PSoC 3/PSoC 5LP devices: when USBFS component configured to DMA with
 150:Generated_Source\PSoC5/COM.c **** *   Automatic Buffer Management, the Arbiter interrupt priority is changed to
 151:Generated_Source\PSoC5/COM.c **** *   the highest (priority 0) inside this function.
 152:Generated_Source\PSoC5/COM.c **** *
 153:Generated_Source\PSoC5/COM.c **** *  \param device
 154:Generated_Source\PSoC5/COM.c **** *          Contains the device number of the desired device descriptor.
 155:Generated_Source\PSoC5/COM.c **** *          The device number can be found in the Device Descriptor Tab of
 156:Generated_Source\PSoC5/COM.c **** *          "Configure" dialog, under the settings of desired Device Descriptor,
 157:Generated_Source\PSoC5/COM.c **** *          in the "Device Number" field.
 158:Generated_Source\PSoC5/COM.c **** *  \param mode:
 159:Generated_Source\PSoC5/COM.c **** *   The operating voltage. This determines whether the voltage regulator
 160:Generated_Source\PSoC5/COM.c **** *   is enabled for 5V operation or if pass through mode is used for 3.3V
 161:Generated_Source\PSoC5/COM.c **** *   operation. Symbolic names and their associated values are given in the
 162:Generated_Source\PSoC5/COM.c **** *   following list.
 163:Generated_Source\PSoC5/COM.c **** *
 164:Generated_Source\PSoC5/COM.c **** *       *COM_3V_OPERATION* - Disable voltage regulator and pass-
 165:Generated_Source\PSoC5/COM.c **** *                                      through Vcc for pull-up
 166:Generated_Source\PSoC5/COM.c **** *
 167:Generated_Source\PSoC5/COM.c **** *       *COM_5V_OPERATION* - Enable voltage regulator and use
 168:Generated_Source\PSoC5/COM.c **** *                                      regulator for pull-up
 169:Generated_Source\PSoC5/COM.c **** *
 170:Generated_Source\PSoC5/COM.c **** *       *COM_DWR_POWER_OPERATION* - Enable or disable the voltage
 171:Generated_Source\PSoC5/COM.c **** *                                      regulator depending on the power supply
 172:Generated_Source\PSoC5/COM.c **** *                                      voltage configuration in the DWR tab.
 173:Generated_Source\PSoC5/COM.c **** *                                      For PSoC 3/5LP devices, the VDDD supply
 174:Generated_Source\PSoC5/COM.c **** *                                      voltage is considered and for PSoC 4A-L,
 175:Generated_Source\PSoC5/COM.c **** *                                      the VBUS supply voltage is considered.*
 176:Generated_Source\PSoC5/COM.c **** * \globalvars
 177:Generated_Source\PSoC5/COM.c **** *  \ref COM_initVar
 178:Generated_Source\PSoC5/COM.c **** *
 179:Generated_Source\PSoC5/COM.c **** * \sideeffect
 180:Generated_Source\PSoC5/COM.c **** *   This function will reset all communication states to default.
 181:Generated_Source\PSoC5/COM.c **** *
 182:Generated_Source\PSoC5/COM.c **** * \reentrant
 183:Generated_Source\PSoC5/COM.c **** *  No.
 184:Generated_Source\PSoC5/COM.c **** *
 185:Generated_Source\PSoC5/COM.c **** *******************************************************************************/
 186:Generated_Source\PSoC5/COM.c **** void COM_Start(uint8 device, uint8 mode) 
 187:Generated_Source\PSoC5/COM.c **** {
 188:Generated_Source\PSoC5/COM.c ****     if (0u == COM_initVar)
 189:Generated_Source\PSoC5/COM.c ****     {
 190:Generated_Source\PSoC5/COM.c ****         COM_Init();
 191:Generated_Source\PSoC5/COM.c ****         COM_initVar = 1u;
 192:Generated_Source\PSoC5/COM.c ****     }
 193:Generated_Source\PSoC5/COM.c **** 
 194:Generated_Source\PSoC5/COM.c ****     COM_InitComponent(device, mode);
 195:Generated_Source\PSoC5/COM.c **** }
 196:Generated_Source\PSoC5/COM.c **** 
 197:Generated_Source\PSoC5/COM.c **** 
 198:Generated_Source\PSoC5/COM.c **** /*******************************************************************************
 199:Generated_Source\PSoC5/COM.c **** * Function Name: COM_Init
 200:Generated_Source\PSoC5/COM.c **** ****************************************************************************//**
 201:Generated_Source\PSoC5/COM.c **** *
 202:Generated_Source\PSoC5/COM.c **** * This function initializes or restores the component according to the
ARM GAS  C:\Users\LUKASC~1\AppData\Local\Temp\ccb2ZD5o.s 			page 5


 203:Generated_Source\PSoC5/COM.c **** * customizer Configure dialog settings. It is not necessary to call
 204:Generated_Source\PSoC5/COM.c **** * COM_Init() because the COM_Start() routine calls
 205:Generated_Source\PSoC5/COM.c **** * this function and is the preferred method to begin component operation.
 206:Generated_Source\PSoC5/COM.c **** *
 207:Generated_Source\PSoC5/COM.c **** * \reentrant
 208:Generated_Source\PSoC5/COM.c **** *  No.
 209:Generated_Source\PSoC5/COM.c **** *
 210:Generated_Source\PSoC5/COM.c **** *******************************************************************************/
 211:Generated_Source\PSoC5/COM.c **** void COM_Init(void) 
 212:Generated_Source\PSoC5/COM.c **** {
  27              		.loc 1 212 0
  28              		.cfi_startproc
  29              		@ args = 0, pretend = 0, frame = 0
  30              		@ frame_needed = 0, uses_anonymous_args = 0
  31 0000 F8B5     		push	{r3, r4, r5, r6, r7, lr}
  32              		.cfi_def_cfa_offset 24
  33              		.cfi_offset 3, -24
  34              		.cfi_offset 4, -20
  35              		.cfi_offset 5, -16
  36              		.cfi_offset 6, -12
  37              		.cfi_offset 7, -8
  38              		.cfi_offset 14, -4
 213:Generated_Source\PSoC5/COM.c **** #if (CY_PSOC4)
 214:Generated_Source\PSoC5/COM.c ****     /* Enable clock to USB IP. */
 215:Generated_Source\PSoC5/COM.c ****     COM_USB_CLK_EN_REG = COM_USB_CLK_CSR_CLK_EN;
 216:Generated_Source\PSoC5/COM.c **** 
 217:Generated_Source\PSoC5/COM.c ****     /* The internal regulator (CR1.REG_ENABLE) is enabled in
 218:Generated_Source\PSoC5/COM.c ****     * COM_InitComponent() if it is required.
 219:Generated_Source\PSoC5/COM.c ****     */
 220:Generated_Source\PSoC5/COM.c **** 
 221:Generated_Source\PSoC5/COM.c ****     /* Enable USBIO control on drive mode of D+ and D- pins. */
 222:Generated_Source\PSoC5/COM.c ****     COM_USBIO_CR1_REG &= ~ (uint32) COM_USBIO_CR1_IOMODE;
 223:Generated_Source\PSoC5/COM.c **** 
 224:Generated_Source\PSoC5/COM.c ****     /* Set number of LF CLK to detect UBS bus reset. */
 225:Generated_Source\PSoC5/COM.c ****     COM_BUS_RST_CNT_REG = COM_DEFUALT_BUS_RST_CNT;
 226:Generated_Source\PSoC5/COM.c **** 
 227:Generated_Source\PSoC5/COM.c ****     /* Select VBUS detection source and clear PHY isolate. The application level
 228:Generated_Source\PSoC5/COM.c ****     * must ensure that VBUS is valid. There is no need to wait 2us before VBUS is valid.
 229:Generated_Source\PSoC5/COM.c ****     */
 230:Generated_Source\PSoC5/COM.c ****     COM_POWER_CTRL_REG = COM_DEFAULT_POWER_CTRL_VBUS;
 231:Generated_Source\PSoC5/COM.c **** 
 232:Generated_Source\PSoC5/COM.c ****     /* Enable PHY detector and single-ended and differential receivers. */
 233:Generated_Source\PSoC5/COM.c ****     COM_POWER_CTRL_REG |= COM_DEFAULT_POWER_CTRL_PHY;
 234:Generated_Source\PSoC5/COM.c **** 
 235:Generated_Source\PSoC5/COM.c ****     /* Suspend clear sequence. */
 236:Generated_Source\PSoC5/COM.c ****     COM_POWER_CTRL_REG &= (uint32) ~COM_POWER_CTRL_SUSPEND;
 237:Generated_Source\PSoC5/COM.c ****     CyDelayUs(COM_WAIT_SUSPEND_DEL_DISABLE);
 238:Generated_Source\PSoC5/COM.c ****     COM_POWER_CTRL_REG &= (uint32) ~COM_POWER_CTRL_SUSPEND_DEL;
 239:Generated_Source\PSoC5/COM.c **** 
 240:Generated_Source\PSoC5/COM.c ****     /* Sets IMO lock options and clear all other bits. */
 241:Generated_Source\PSoC5/COM.c ****     COM_CR1_REG = COM_DEFUALT_CR1;
 242:Generated_Source\PSoC5/COM.c **** 
 243:Generated_Source\PSoC5/COM.c ****     /* Configure level (hi, lo, med) for each interrupt source. */
 244:Generated_Source\PSoC5/COM.c ****     COM_INTR_LVL_SEL_REG = COM_DEFAULT_INTR_LVL_SEL;
 245:Generated_Source\PSoC5/COM.c **** 
 246:Generated_Source\PSoC5/COM.c ****     /* Configure interrupt sources from: SOF, Bus Reset and EP0. */
 247:Generated_Source\PSoC5/COM.c ****     COM_INTR_SIE_MASK_REG = COM_DEFAULT_INTR_SIE_MASK;
ARM GAS  C:\Users\LUKASC~1\AppData\Local\Temp\ccb2ZD5o.s 			page 6


 248:Generated_Source\PSoC5/COM.c **** 
 249:Generated_Source\PSoC5/COM.c **** #else
 250:Generated_Source\PSoC5/COM.c ****     uint8 enableInterrupts = CyEnterCriticalSection();
  39              		.loc 1 250 0
  40 0002 FFF7FEFF 		bl	CyEnterCriticalSection
  41              	.LVL0:
  42 0006 0746     		mov	r7, r0
  43              	.LVL1:
 251:Generated_Source\PSoC5/COM.c **** 
 252:Generated_Source\PSoC5/COM.c **** #if (COM_EP_MANAGEMENT_DMA)
 253:Generated_Source\PSoC5/COM.c ****     uint16 i;
 254:Generated_Source\PSoC5/COM.c **** #endif /* (COM_EP_MANAGEMENT_DMA) */
 255:Generated_Source\PSoC5/COM.c **** 
 256:Generated_Source\PSoC5/COM.c ****     /* Enable USB block. */
 257:Generated_Source\PSoC5/COM.c ****     COM_PM_ACT_CFG_REG |= COM_PM_ACT_EN_FSUSB;
  44              		.loc 1 257 0
  45 0008 484A     		ldr	r2, .L3
  46 000a 1378     		ldrb	r3, [r2]	@ zero_extendqisi2
  47 000c 43F00103 		orr	r3, r3, #1
  48 0010 1370     		strb	r3, [r2]
 258:Generated_Source\PSoC5/COM.c ****     /* Enable USB block for Standby Power Mode. */
 259:Generated_Source\PSoC5/COM.c ****     COM_PM_STBY_CFG_REG |= COM_PM_STBY_EN_FSUSB;
  49              		.loc 1 259 0
  50 0012 1032     		adds	r2, r2, #16
  51 0014 1378     		ldrb	r3, [r2]	@ zero_extendqisi2
  52 0016 43F00103 		orr	r3, r3, #1
  53 001a 1370     		strb	r3, [r2]
 260:Generated_Source\PSoC5/COM.c **** 
 261:Generated_Source\PSoC5/COM.c ****     /* Enable core clock. */
 262:Generated_Source\PSoC5/COM.c ****     COM_USB_CLK_EN_REG = COM_USB_CLK_ENABLE;
  54              		.loc 1 262 0
  55 001c 0126     		movs	r6, #1
  56 001e 444B     		ldr	r3, .L3+4
  57 0020 1E70     		strb	r6, [r3]
 263:Generated_Source\PSoC5/COM.c **** 
 264:Generated_Source\PSoC5/COM.c ****     COM_CR1_REG = COM_CR1_ENABLE_LOCK;
  58              		.loc 1 264 0
  59 0022 0225     		movs	r5, #2
  60 0024 943B     		subs	r3, r3, #148
  61 0026 1D70     		strb	r5, [r3]
 265:Generated_Source\PSoC5/COM.c **** 
 266:Generated_Source\PSoC5/COM.c ****     /* ENABLING USBIO PADS IN USB MODE FROM I/O MODE. */
 267:Generated_Source\PSoC5/COM.c ****     /* Ensure USB transmit enable is low (USB_USBIO_CR0.ten). - Manual Transmission - Disabled. */
 268:Generated_Source\PSoC5/COM.c ****     COM_USBIO_CR0_REG &= (uint8) ~COM_USBIO_CR0_TEN;
  62              		.loc 1 268 0
  63 0028 02F5E252 		add	r2, r2, #7232
  64 002c 1B32     		adds	r2, r2, #27
  65 002e 1378     		ldrb	r3, [r2]	@ zero_extendqisi2
  66 0030 03F07F03 		and	r3, r3, #127
  67 0034 1370     		strb	r3, [r2]
 269:Generated_Source\PSoC5/COM.c ****     CyDelayUs(COM_WAIT_REG_STABILITY_50NS);  /* ~50ns delay. */
  68              		.loc 1 269 0
  69 0036 0020     		movs	r0, #0
  70 0038 FFF7FEFF 		bl	CyDelayUs
  71              	.LVL2:
 270:Generated_Source\PSoC5/COM.c ****     /* Disable USBIO by asserting PM.USB_CR0.fsusbio_pd_n(Inverted.
 271:Generated_Source\PSoC5/COM.c ****     *  high. These bits will be set low by the power manager out-of-reset.
ARM GAS  C:\Users\LUKASC~1\AppData\Local\Temp\ccb2ZD5o.s 			page 7


 272:Generated_Source\PSoC5/COM.c ****     *  Also confirm USBIO pull-up is disabled.
 273:Generated_Source\PSoC5/COM.c ****     */
 274:Generated_Source\PSoC5/COM.c ****     COM_PM_USB_CR0_REG &= (uint8) ~(COM_PM_USB_CR0_PD_N |
  72              		.loc 1 274 0
  73 003c 3D4C     		ldr	r4, .L3+8
  74 003e 2378     		ldrb	r3, [r4]	@ zero_extendqisi2
  75 0040 03F0F903 		and	r3, r3, #249
  76 0044 2370     		strb	r3, [r4]
 275:Generated_Source\PSoC5/COM.c ****                                                  COM_PM_USB_CR0_PD_PULLUP_N);
 276:Generated_Source\PSoC5/COM.c **** 
 277:Generated_Source\PSoC5/COM.c ****     /* Select IOMODE to USB mode. */
 278:Generated_Source\PSoC5/COM.c ****     COM_USBIO_CR1_REG &= (uint8) ~COM_USBIO_CR1_IOMODE;
  77              		.loc 1 278 0
  78 0046 3C4A     		ldr	r2, .L3+12
  79 0048 1378     		ldrb	r3, [r2]	@ zero_extendqisi2
  80 004a 03F0DF03 		and	r3, r3, #223
  81 004e 1370     		strb	r3, [r2]
 279:Generated_Source\PSoC5/COM.c **** 
 280:Generated_Source\PSoC5/COM.c ****     /* Enable USBIO reference by setting PM.USB_CR0.fsusbio_ref_en. */
 281:Generated_Source\PSoC5/COM.c ****     COM_PM_USB_CR0_REG |= COM_PM_USB_CR0_REF_EN;
  82              		.loc 1 281 0
  83 0050 2378     		ldrb	r3, [r4]	@ zero_extendqisi2
  84 0052 3343     		orrs	r3, r3, r6
  85 0054 2370     		strb	r3, [r4]
 282:Generated_Source\PSoC5/COM.c ****     /* Reference is available for 1us after regulator is enabled. */
 283:Generated_Source\PSoC5/COM.c ****     CyDelayUs(COM_WAIT_REG_STABILITY_1US);
  86              		.loc 1 283 0
  87 0056 3046     		mov	r0, r6
  88 0058 FFF7FEFF 		bl	CyDelayUs
  89              	.LVL3:
 284:Generated_Source\PSoC5/COM.c ****     /* OR 40us after power is restored. */
 285:Generated_Source\PSoC5/COM.c ****     CyDelayUs(COM_WAIT_VREF_RESTORE);
  90              		.loc 1 285 0
  91 005c 2820     		movs	r0, #40
  92 005e FFF7FEFF 		bl	CyDelayUs
  93              	.LVL4:
 286:Generated_Source\PSoC5/COM.c ****     /* Ensure single-ended disable bits are low (PRT15.INP_DIS[7:6])(input receiver enabled). */
 287:Generated_Source\PSoC5/COM.c ****     COM_DM_INP_DIS_REG &= (uint8) ~COM_DM_MASK;
  94              		.loc 1 287 0
  95 0062 364B     		ldr	r3, .L3+16
  96 0064 1A78     		ldrb	r2, [r3]	@ zero_extendqisi2
  97 0066 02F07F02 		and	r2, r2, #127
  98 006a 1A70     		strb	r2, [r3]
 288:Generated_Source\PSoC5/COM.c ****     COM_DP_INP_DIS_REG &= (uint8) ~COM_DP_MASK;
  99              		.loc 1 288 0
 100 006c 1A78     		ldrb	r2, [r3]	@ zero_extendqisi2
 101 006e 02F0BF02 		and	r2, r2, #191
 102 0072 1A70     		strb	r2, [r3]
 289:Generated_Source\PSoC5/COM.c **** 
 290:Generated_Source\PSoC5/COM.c ****     /* Enable USBIO. */
 291:Generated_Source\PSoC5/COM.c ****     COM_PM_USB_CR0_REG |= COM_PM_USB_CR0_PD_N;
 103              		.loc 1 291 0
 104 0074 2378     		ldrb	r3, [r4]	@ zero_extendqisi2
 105 0076 2B43     		orrs	r3, r3, r5
 106 0078 2370     		strb	r3, [r4]
 292:Generated_Source\PSoC5/COM.c ****     CyDelayUs(COM_WAIT_PD_PULLUP_N_ENABLE);
 107              		.loc 1 292 0
ARM GAS  C:\Users\LUKASC~1\AppData\Local\Temp\ccb2ZD5o.s 			page 8


 108 007a 2846     		mov	r0, r5
 109 007c FFF7FEFF 		bl	CyDelayUs
 110              	.LVL5:
 293:Generated_Source\PSoC5/COM.c ****     /* Set USBIO pull-up enable. */
 294:Generated_Source\PSoC5/COM.c ****     COM_PM_USB_CR0_REG |= COM_PM_USB_CR0_PD_PULLUP_N;
 111              		.loc 1 294 0
 112 0080 2378     		ldrb	r3, [r4]	@ zero_extendqisi2
 113 0082 43F00403 		orr	r3, r3, #4
 114 0086 2370     		strb	r3, [r4]
 295:Generated_Source\PSoC5/COM.c **** 
 296:Generated_Source\PSoC5/COM.c ****     /* Reset Arbiter Write Address register for endpoint 1. */
 297:Generated_Source\PSoC5/COM.c ****     CY_SET_REG8(COM_ARB_RW1_WA_PTR,     0u);
 115              		.loc 1 297 0
 116 0088 0024     		movs	r4, #0
 117 008a 2D4B     		ldr	r3, .L3+20
 118 008c 1C70     		strb	r4, [r3]
 298:Generated_Source\PSoC5/COM.c ****     CY_SET_REG8(COM_ARB_RW1_WA_MSB_PTR, 0u);
 119              		.loc 1 298 0
 120 008e 0133     		adds	r3, r3, #1
 121 0090 1C70     		strb	r4, [r3]
 299:Generated_Source\PSoC5/COM.c **** 
 300:Generated_Source\PSoC5/COM.c **** #if (COM_EP_MANAGEMENT_DMA)
 301:Generated_Source\PSoC5/COM.c ****     /* Initialize transfer descriptor. This will be used to detect DMA state - initialized or not. 
 302:Generated_Source\PSoC5/COM.c ****     for (i = 0u; i < COM_MAX_EP; ++i)
 303:Generated_Source\PSoC5/COM.c ****     {
 304:Generated_Source\PSoC5/COM.c ****         COM_DmaTd[i] = DMA_INVALID_TD;
 305:Generated_Source\PSoC5/COM.c **** 
 306:Generated_Source\PSoC5/COM.c ****     #if (COM_EP_MANAGEMENT_DMA_AUTO && (COM_EP_DMA_AUTO_OPT == 0u))
 307:Generated_Source\PSoC5/COM.c ****         COM_DmaNextTd[i] = DMA_INVALID_TD;
 308:Generated_Source\PSoC5/COM.c ****     #endif /* (COM_EP_MANAGEMENT_DMA_AUTO && (COM_EP_DMA_AUTO_OPT == 0u)) */
 309:Generated_Source\PSoC5/COM.c ****     }
 310:Generated_Source\PSoC5/COM.c **** #endif /* (COM_EP_MANAGEMENT_DMA) */
 311:Generated_Source\PSoC5/COM.c **** 
 312:Generated_Source\PSoC5/COM.c ****     CyExitCriticalSection(enableInterrupts);
 122              		.loc 1 312 0
 123 0092 3846     		mov	r0, r7
 124 0094 FFF7FEFF 		bl	CyExitCriticalSection
 125              	.LVL6:
 313:Generated_Source\PSoC5/COM.c **** #endif /* (CY_PSOC4) */
 314:Generated_Source\PSoC5/COM.c **** 
 315:Generated_Source\PSoC5/COM.c ****     /* Configure interrupts from USB block. */
 316:Generated_Source\PSoC5/COM.c **** #if (CY_PSOC4)
 317:Generated_Source\PSoC5/COM.c ****     /* Configure hi_int: set handler and priority. */
 318:Generated_Source\PSoC5/COM.c ****     CyIntSetPriority     (COM_INTR_HI_VECT_NUM,  COM_INTR_HI_PRIORITY);
 319:Generated_Source\PSoC5/COM.c ****     (void) CyIntSetVector(COM_INTR_HI_VECT_NUM, &COM_INTR_HI_ISR);
 320:Generated_Source\PSoC5/COM.c **** 
 321:Generated_Source\PSoC5/COM.c ****     /* Configure lo_int: set handler and priority. */
 322:Generated_Source\PSoC5/COM.c ****     CyIntSetPriority     (COM_INTR_LO_VECT_NUM,  COM_INTR_LO_PRIORITY);
 323:Generated_Source\PSoC5/COM.c ****     (void) CyIntSetVector(COM_INTR_LO_VECT_NUM, &COM_INTR_LO_ISR);
 324:Generated_Source\PSoC5/COM.c **** 
 325:Generated_Source\PSoC5/COM.c ****     /* Configure med_int: set handler and priority (routed through DSI). */
 326:Generated_Source\PSoC5/COM.c ****     CyIntSetPriority     (COM_INTR_MED_VECT_NUM,  COM_INTR_MED_PRIORITY);
 327:Generated_Source\PSoC5/COM.c ****     (void) CyIntSetVector(COM_INTR_MED_VECT_NUM, &COM_INTR_MED_ISR);
 328:Generated_Source\PSoC5/COM.c **** 
 329:Generated_Source\PSoC5/COM.c **** #else
 330:Generated_Source\PSoC5/COM.c ****     /* Set bus reset interrupt. */
 331:Generated_Source\PSoC5/COM.c ****     CyIntSetPriority(COM_BUS_RESET_VECT_NUM, COM_BUS_RESET_PRIOR);
ARM GAS  C:\Users\LUKASC~1\AppData\Local\Temp\ccb2ZD5o.s 			page 9


 126              		.loc 1 331 0
 127 0098 1720     		movs	r0, #23
 128 009a 0721     		movs	r1, #7
 129 009c FFF7FEFF 		bl	CyIntSetPriority
 130              	.LVL7:
 332:Generated_Source\PSoC5/COM.c ****     (void) CyIntSetVector(COM_BUS_RESET_VECT_NUM,   &COM_BUS_RESET_ISR);
 131              		.loc 1 332 0
 132 00a0 1720     		movs	r0, #23
 133 00a2 2849     		ldr	r1, .L3+24
 134 00a4 FFF7FEFF 		bl	CyIntSetVector
 135              	.LVL8:
 333:Generated_Source\PSoC5/COM.c **** 
 334:Generated_Source\PSoC5/COM.c ****     /* Set Control Endpoint Interrupt. */
 335:Generated_Source\PSoC5/COM.c ****     CyIntSetPriority(COM_EP_0_VECT_NUM, COM_EP_0_PRIOR);
 136              		.loc 1 335 0
 137 00a8 1820     		movs	r0, #24
 138 00aa 0721     		movs	r1, #7
 139 00ac FFF7FEFF 		bl	CyIntSetPriority
 140              	.LVL9:
 336:Generated_Source\PSoC5/COM.c ****     (void) CyIntSetVector(COM_EP_0_VECT_NUM,   &COM_EP_0_ISR);
 141              		.loc 1 336 0
 142 00b0 1820     		movs	r0, #24
 143 00b2 2549     		ldr	r1, .L3+28
 144 00b4 FFF7FEFF 		bl	CyIntSetVector
 145              	.LVL10:
 337:Generated_Source\PSoC5/COM.c **** 
 338:Generated_Source\PSoC5/COM.c ****     /* Set SOF interrupt. */
 339:Generated_Source\PSoC5/COM.c ****     #if (COM_SOF_ISR_ACTIVE)
 340:Generated_Source\PSoC5/COM.c ****         CyIntSetPriority     (COM_SOF_VECT_NUM,  COM_SOF_PRIOR);
 341:Generated_Source\PSoC5/COM.c ****         (void) CyIntSetVector(COM_SOF_VECT_NUM, &COM_SOF_ISR);
 342:Generated_Source\PSoC5/COM.c ****     #endif /* (COM_SOF_ISR_ACTIVE) */
 343:Generated_Source\PSoC5/COM.c **** 
 344:Generated_Source\PSoC5/COM.c ****     /* Set Data Endpoint 1 Interrupt. */
 345:Generated_Source\PSoC5/COM.c ****     #if (COM_EP1_ISR_ACTIVE)
 346:Generated_Source\PSoC5/COM.c ****         CyIntSetPriority     (COM_EP_1_VECT_NUM,  COM_EP_1_PRIOR);
 146              		.loc 1 346 0
 147 00b8 2046     		mov	r0, r4
 148 00ba 0721     		movs	r1, #7
 149 00bc FFF7FEFF 		bl	CyIntSetPriority
 150              	.LVL11:
 347:Generated_Source\PSoC5/COM.c ****         (void) CyIntSetVector(COM_EP_1_VECT_NUM,  &COM_EP_1_ISR);
 151              		.loc 1 347 0
 152 00c0 2046     		mov	r0, r4
 153 00c2 2249     		ldr	r1, .L3+32
 154 00c4 FFF7FEFF 		bl	CyIntSetVector
 155              	.LVL12:
 348:Generated_Source\PSoC5/COM.c ****     #endif /* (COM_EP1_ISR_ACTIVE) */
 349:Generated_Source\PSoC5/COM.c **** 
 350:Generated_Source\PSoC5/COM.c ****     /* Set Data Endpoint 2 Interrupt. */
 351:Generated_Source\PSoC5/COM.c ****     #if (COM_EP2_ISR_ACTIVE)
 352:Generated_Source\PSoC5/COM.c ****         CyIntSetPriority     (COM_EP_2_VECT_NUM,  COM_EP_2_PRIOR);
 156              		.loc 1 352 0
 157 00c8 3046     		mov	r0, r6
 158 00ca 0721     		movs	r1, #7
 159 00cc FFF7FEFF 		bl	CyIntSetPriority
 160              	.LVL13:
 353:Generated_Source\PSoC5/COM.c ****         (void) CyIntSetVector(COM_EP_2_VECT_NUM, &COM_EP_2_ISR);
ARM GAS  C:\Users\LUKASC~1\AppData\Local\Temp\ccb2ZD5o.s 			page 10


 161              		.loc 1 353 0
 162 00d0 3046     		mov	r0, r6
 163 00d2 1F49     		ldr	r1, .L3+36
 164 00d4 FFF7FEFF 		bl	CyIntSetVector
 165              	.LVL14:
 354:Generated_Source\PSoC5/COM.c ****     #endif /* (COM_EP2_ISR_ACTIVE) */
 355:Generated_Source\PSoC5/COM.c **** 
 356:Generated_Source\PSoC5/COM.c ****     /* Set Data Endpoint 3 Interrupt. */
 357:Generated_Source\PSoC5/COM.c ****     #if (COM_EP3_ISR_ACTIVE)
 358:Generated_Source\PSoC5/COM.c ****         CyIntSetPriority     (COM_EP_3_VECT_NUM,  COM_EP_3_PRIOR);
 166              		.loc 1 358 0
 167 00d8 2846     		mov	r0, r5
 168 00da 0721     		movs	r1, #7
 169 00dc FFF7FEFF 		bl	CyIntSetPriority
 170              	.LVL15:
 359:Generated_Source\PSoC5/COM.c ****         (void) CyIntSetVector(COM_EP_3_VECT_NUM, &COM_EP_3_ISR);
 171              		.loc 1 359 0
 172 00e0 2846     		mov	r0, r5
 173 00e2 1C49     		ldr	r1, .L3+40
 174 00e4 FFF7FEFF 		bl	CyIntSetVector
 175              	.LVL16:
 360:Generated_Source\PSoC5/COM.c ****     #endif /* (COM_EP3_ISR_ACTIVE) */
 361:Generated_Source\PSoC5/COM.c **** 
 362:Generated_Source\PSoC5/COM.c ****     /* Set Data Endpoint 4 Interrupt. */
 363:Generated_Source\PSoC5/COM.c ****     #if (COM_EP4_ISR_ACTIVE)
 364:Generated_Source\PSoC5/COM.c ****         CyIntSetPriority     (COM_EP_4_VECT_NUM,  COM_EP_4_PRIOR);
 176              		.loc 1 364 0
 177 00e8 0320     		movs	r0, #3
 178 00ea 0721     		movs	r1, #7
 179 00ec FFF7FEFF 		bl	CyIntSetPriority
 180              	.LVL17:
 365:Generated_Source\PSoC5/COM.c ****         (void) CyIntSetVector(COM_EP_4_VECT_NUM, &COM_EP_4_ISR);
 181              		.loc 1 365 0
 182 00f0 0320     		movs	r0, #3
 183 00f2 1949     		ldr	r1, .L3+44
 184 00f4 FFF7FEFF 		bl	CyIntSetVector
 185              	.LVL18:
 366:Generated_Source\PSoC5/COM.c ****     #endif /* (COM_EP4_ISR_ACTIVE) */
 367:Generated_Source\PSoC5/COM.c **** 
 368:Generated_Source\PSoC5/COM.c ****     /* Set Data Endpoint 5 Interrupt. */
 369:Generated_Source\PSoC5/COM.c ****     #if (COM_EP5_ISR_ACTIVE)
 370:Generated_Source\PSoC5/COM.c ****         CyIntSetPriority     (COM_EP_5_VECT_NUM,  COM_EP_5_PRIOR);
 186              		.loc 1 370 0
 187 00f8 0420     		movs	r0, #4
 188 00fa 0721     		movs	r1, #7
 189 00fc FFF7FEFF 		bl	CyIntSetPriority
 190              	.LVL19:
 371:Generated_Source\PSoC5/COM.c ****         (void) CyIntSetVector(COM_EP_5_VECT_NUM, &COM_EP_5_ISR);
 191              		.loc 1 371 0
 192 0100 0420     		movs	r0, #4
 193 0102 1649     		ldr	r1, .L3+48
 194 0104 FFF7FEFF 		bl	CyIntSetVector
 195              	.LVL20:
 372:Generated_Source\PSoC5/COM.c ****     #endif /* (COM_EP5_ISR_ACTIVE) */
 373:Generated_Source\PSoC5/COM.c **** 
 374:Generated_Source\PSoC5/COM.c ****     /* Set Data Endpoint 6 Interrupt. */
 375:Generated_Source\PSoC5/COM.c ****     #if (COM_EP6_ISR_ACTIVE)
ARM GAS  C:\Users\LUKASC~1\AppData\Local\Temp\ccb2ZD5o.s 			page 11


 376:Generated_Source\PSoC5/COM.c ****         CyIntSetPriority     (COM_EP_6_VECT_NUM,  COM_EP_6_PRIOR);
 196              		.loc 1 376 0
 197 0108 0520     		movs	r0, #5
 198 010a 0721     		movs	r1, #7
 199 010c FFF7FEFF 		bl	CyIntSetPriority
 200              	.LVL21:
 377:Generated_Source\PSoC5/COM.c ****         (void) CyIntSetVector(COM_EP_6_VECT_NUM, &COM_EP_6_ISR);
 201              		.loc 1 377 0
 202 0110 0520     		movs	r0, #5
 203 0112 1349     		ldr	r1, .L3+52
 204 0114 FFF7FEFF 		bl	CyIntSetVector
 205              	.LVL22:
 378:Generated_Source\PSoC5/COM.c ****     #endif /* (COM_EP6_ISR_ACTIVE) */
 379:Generated_Source\PSoC5/COM.c **** 
 380:Generated_Source\PSoC5/COM.c ****      /* Set Data Endpoint 7 Interrupt. */
 381:Generated_Source\PSoC5/COM.c ****     #if (COM_EP7_ISR_ACTIVE)
 382:Generated_Source\PSoC5/COM.c ****         CyIntSetPriority     (COM_EP_7_VECT_NUM,  COM_EP_7_PRIOR);
 383:Generated_Source\PSoC5/COM.c ****         (void) CyIntSetVector(COM_EP_7_VECT_NUM, &COM_EP_7_ISR);
 384:Generated_Source\PSoC5/COM.c ****     #endif /* (COM_EP7_ISR_ACTIVE) */
 385:Generated_Source\PSoC5/COM.c **** 
 386:Generated_Source\PSoC5/COM.c ****     /* Set Data Endpoint 8 Interrupt. */
 387:Generated_Source\PSoC5/COM.c ****     #if (COM_EP8_ISR_ACTIVE)
 388:Generated_Source\PSoC5/COM.c ****         CyIntSetPriority     (COM_EP_8_VECT_NUM,  COM_EP_8_PRIOR);
 389:Generated_Source\PSoC5/COM.c ****         (void) CyIntSetVector(COM_EP_8_VECT_NUM, &COM_EP_8_ISR);
 390:Generated_Source\PSoC5/COM.c ****     #endif /* (COM_EP8_ISR_ACTIVE) */
 391:Generated_Source\PSoC5/COM.c **** 
 392:Generated_Source\PSoC5/COM.c ****     /* Set ARB Interrupt. */
 393:Generated_Source\PSoC5/COM.c ****     #if (COM_EP_MANAGEMENT_DMA && COM_ARB_ISR_ACTIVE)
 394:Generated_Source\PSoC5/COM.c ****         CyIntSetPriority     (COM_ARB_VECT_NUM,  COM_ARB_PRIOR);
 395:Generated_Source\PSoC5/COM.c ****         (void) CyIntSetVector(COM_ARB_VECT_NUM, &COM_ARB_ISR);
 396:Generated_Source\PSoC5/COM.c ****     #endif /* (COM_EP_MANAGEMENT_DMA && COM_ARB_ISR_ACTIVE) */
 397:Generated_Source\PSoC5/COM.c **** #endif /* (CY_PSOC4) */
 398:Generated_Source\PSoC5/COM.c **** 
 399:Generated_Source\PSoC5/COM.c ****     /* Common: Configure GPIO interrupt for wakeup. */
 400:Generated_Source\PSoC5/COM.c **** #if (COM_DP_ISR_ACTIVE)
 401:Generated_Source\PSoC5/COM.c ****     CyIntSetPriority     (COM_DP_INTC_VECT_NUM,  COM_DP_INTC_PRIORITY);
 206              		.loc 1 401 0
 207 0118 0C20     		movs	r0, #12
 208 011a 0721     		movs	r1, #7
 209 011c FFF7FEFF 		bl	CyIntSetPriority
 210              	.LVL23:
 402:Generated_Source\PSoC5/COM.c ****     (void) CyIntSetVector(COM_DP_INTC_VECT_NUM, &COM_DP_ISR);
 211              		.loc 1 402 0
 212 0120 0C20     		movs	r0, #12
 213 0122 1049     		ldr	r1, .L3+56
 214 0124 FFF7FEFF 		bl	CyIntSetVector
 215              	.LVL24:
 216 0128 F8BD     		pop	{r3, r4, r5, r6, r7, pc}
 217              	.LVL25:
 218              	.L4:
 219 012a 00BF     		.align	2
 220              	.L3:
 221 012c A5430040 		.word	1073759141
 222 0130 9D600040 		.word	1073766557
 223 0134 94430040 		.word	1073759124
 224 0138 12600040 		.word	1073766418
 225 013c F8510040 		.word	1073762808
ARM GAS  C:\Users\LUKASC~1\AppData\Local\Temp\ccb2ZD5o.s 			page 12


 226 0140 84600040 		.word	1073766532
 227 0144 00000000 		.word	COM_BUS_RESET_ISR
 228 0148 00000000 		.word	COM_EP_0_ISR
 229 014c 00000000 		.word	COM_EP_1_ISR
 230 0150 00000000 		.word	COM_EP_2_ISR
 231 0154 00000000 		.word	COM_EP_3_ISR
 232 0158 00000000 		.word	COM_EP_4_ISR
 233 015c 00000000 		.word	COM_EP_5_ISR
 234 0160 00000000 		.word	COM_EP_6_ISR
 235 0164 00000000 		.word	COM_DP_ISR
 236              		.cfi_endproc
 237              	.LFE1:
 238              		.size	COM_Init, .-COM_Init
 239              		.section	.text.COM_InitComponent,"ax",%progbits
 240              		.align	2
 241              		.global	COM_InitComponent
 242              		.thumb
 243              		.thumb_func
 244              		.type	COM_InitComponent, %function
 245              	COM_InitComponent:
 246              	.LFB2:
 403:Generated_Source\PSoC5/COM.c **** #endif /* (COM_DP_ISR_ACTIVE) */
 404:Generated_Source\PSoC5/COM.c **** 
 405:Generated_Source\PSoC5/COM.c **** #if (COM_EP_MANAGEMENT_DMA && CY_PSOC4)
 406:Generated_Source\PSoC5/COM.c ****     /* Initialize DMA channels. */
 407:Generated_Source\PSoC5/COM.c ****     COM_InitEpDma();
 408:Generated_Source\PSoC5/COM.c **** #endif /* (COM_EP_MANAGEMENT_DMA && CY_PSOC4) */
 409:Generated_Source\PSoC5/COM.c **** }
 410:Generated_Source\PSoC5/COM.c **** 
 411:Generated_Source\PSoC5/COM.c **** 
 412:Generated_Source\PSoC5/COM.c **** /*******************************************************************************
 413:Generated_Source\PSoC5/COM.c **** * Function Name: COM_InitComponent
 414:Generated_Source\PSoC5/COM.c **** ****************************************************************************//**
 415:Generated_Source\PSoC5/COM.c **** *
 416:Generated_Source\PSoC5/COM.c **** *   This function initializes the component’s global variables and initiates
 417:Generated_Source\PSoC5/COM.c **** *   communication with the host by pull-up D+ line.
 418:Generated_Source\PSoC5/COM.c **** *
 419:Generated_Source\PSoC5/COM.c **** * \param device:
 420:Generated_Source\PSoC5/COM.c **** *   Contains the device number of the desired device descriptor. The device
 421:Generated_Source\PSoC5/COM.c **** *   number can be found in the Device Descriptor Tab of "Configure" dialog,
 422:Generated_Source\PSoC5/COM.c **** *   under the settings of desired Device Descriptor, in the *Device Number*
 423:Generated_Source\PSoC5/COM.c **** *   field.
 424:Generated_Source\PSoC5/COM.c **** *  \param mode:
 425:Generated_Source\PSoC5/COM.c **** *   The operating voltage. This determines whether the voltage regulator
 426:Generated_Source\PSoC5/COM.c **** *   is enabled for 5V operation or if pass through mode is used for 3.3V
 427:Generated_Source\PSoC5/COM.c **** *   operation. Symbolic names and their associated values are given in the
 428:Generated_Source\PSoC5/COM.c **** *   following list.
 429:Generated_Source\PSoC5/COM.c **** *
 430:Generated_Source\PSoC5/COM.c **** *       *COM_3V_OPERATION* - Disable voltage regulator and pass-
 431:Generated_Source\PSoC5/COM.c **** *                                      through Vcc for pull-up
 432:Generated_Source\PSoC5/COM.c **** *
 433:Generated_Source\PSoC5/COM.c **** *       *COM_5V_OPERATION* - Enable voltage regulator and use
 434:Generated_Source\PSoC5/COM.c **** *                                      regulator for pull-up
 435:Generated_Source\PSoC5/COM.c **** *
 436:Generated_Source\PSoC5/COM.c **** *       *COM_DWR_POWER_OPERATION* - Enable or disable the voltage
 437:Generated_Source\PSoC5/COM.c **** *                                      regulator depending on the power supply
 438:Generated_Source\PSoC5/COM.c **** *                                      voltage configuration in the DWR tab.
ARM GAS  C:\Users\LUKASC~1\AppData\Local\Temp\ccb2ZD5o.s 			page 13


 439:Generated_Source\PSoC5/COM.c **** *                                      For PSoC 3/5LP devices, the VDDD supply
 440:Generated_Source\PSoC5/COM.c **** *                                      voltage is considered and for PSoC 4A-L,
 441:Generated_Source\PSoC5/COM.c **** *                                      the VBUS supply voltage is considered.
 442:Generated_Source\PSoC5/COM.c **** *
 443:Generated_Source\PSoC5/COM.c **** * \globalvars
 444:Generated_Source\PSoC5/COM.c **** *   \ref COM_device
 445:Generated_Source\PSoC5/COM.c **** *   \ref COM_transferState
 446:Generated_Source\PSoC5/COM.c **** *   \ref COM_configuration
 447:Generated_Source\PSoC5/COM.c **** *   \ref COM_deviceStatus
 448:Generated_Source\PSoC5/COM.c **** *
 449:Generated_Source\PSoC5/COM.c **** *   \ref COM_deviceAddress - Contains the current device address. This
 450:Generated_Source\PSoC5/COM.c **** *       variable is initialized to zero in this API. The Host starts to communicate
 451:Generated_Source\PSoC5/COM.c **** *      to the device with address 0 and then sets it to a whatever value using a
 452:Generated_Source\PSoC5/COM.c **** *      SET_ADDRESS request.
 453:Generated_Source\PSoC5/COM.c **** *
 454:Generated_Source\PSoC5/COM.c **** *   \ref COM_lastPacketSize - Initialized to 0;
 455:Generated_Source\PSoC5/COM.c **** *
 456:Generated_Source\PSoC5/COM.c **** * \reentrant
 457:Generated_Source\PSoC5/COM.c **** *  No.
 458:Generated_Source\PSoC5/COM.c **** *
 459:Generated_Source\PSoC5/COM.c **** *******************************************************************************/
 460:Generated_Source\PSoC5/COM.c **** void COM_InitComponent(uint8 device, uint8 mode) 
 461:Generated_Source\PSoC5/COM.c **** {
 247              		.loc 1 461 0
 248              		.cfi_startproc
 249              		@ args = 0, pretend = 0, frame = 0
 250              		@ frame_needed = 0, uses_anonymous_args = 0
 251              	.LVL26:
 252 0000 08B5     		push	{r3, lr}
 253              		.cfi_def_cfa_offset 8
 254              		.cfi_offset 3, -8
 255              		.cfi_offset 14, -4
 462:Generated_Source\PSoC5/COM.c ****     /* Initialize _hidProtocol variable to comply with
 463:Generated_Source\PSoC5/COM.c ****     *  HID 7.2.6 Set_Protocol Request:
 464:Generated_Source\PSoC5/COM.c ****     *  "When initialized, all devices default to report protocol."
 465:Generated_Source\PSoC5/COM.c ****     */
 466:Generated_Source\PSoC5/COM.c **** #if defined(COM_ENABLE_HID_CLASS)
 467:Generated_Source\PSoC5/COM.c ****     uint8 i;
 468:Generated_Source\PSoC5/COM.c **** 
 469:Generated_Source\PSoC5/COM.c ****     for (i = 0u; i < COM_MAX_INTERFACES_NUMBER; i++)
 470:Generated_Source\PSoC5/COM.c ****     {
 471:Generated_Source\PSoC5/COM.c ****         COM_hidProtocol[i] = COM_PROTOCOL_REPORT;
 472:Generated_Source\PSoC5/COM.c ****     }
 473:Generated_Source\PSoC5/COM.c **** #endif /* COM_ENABLE_HID_CLASS */
 474:Generated_Source\PSoC5/COM.c **** 
 475:Generated_Source\PSoC5/COM.c ****     /* Store device number to access descriptor. */
 476:Generated_Source\PSoC5/COM.c ****     COM_device = device;
 256              		.loc 1 476 0
 257 0002 234B     		ldr	r3, .L12
 258 0004 1870     		strb	r0, [r3]
 477:Generated_Source\PSoC5/COM.c **** 
 478:Generated_Source\PSoC5/COM.c ****     /* Reset component internal variables. */
 479:Generated_Source\PSoC5/COM.c ****     COM_transferState   = COM_TRANS_STATE_IDLE;
 259              		.loc 1 479 0
 260 0006 0023     		movs	r3, #0
 261 0008 224A     		ldr	r2, .L12+4
 262 000a 1370     		strb	r3, [r2]
ARM GAS  C:\Users\LUKASC~1\AppData\Local\Temp\ccb2ZD5o.s 			page 14


 480:Generated_Source\PSoC5/COM.c ****     COM_configurationChanged = 0u;
 263              		.loc 1 480 0
 264 000c 224A     		ldr	r2, .L12+8
 265 000e 1370     		strb	r3, [r2]
 481:Generated_Source\PSoC5/COM.c ****     COM_configuration   = 0u;
 266              		.loc 1 481 0
 267 0010 224A     		ldr	r2, .L12+12
 268 0012 1370     		strb	r3, [r2]
 482:Generated_Source\PSoC5/COM.c ****     COM_interfaceNumber = 0u;
 269              		.loc 1 482 0
 270 0014 224A     		ldr	r2, .L12+16
 271 0016 1370     		strb	r3, [r2]
 483:Generated_Source\PSoC5/COM.c ****     COM_deviceAddress   = 0u;
 272              		.loc 1 483 0
 273 0018 224A     		ldr	r2, .L12+20
 274 001a 1370     		strb	r3, [r2]
 484:Generated_Source\PSoC5/COM.c ****     COM_deviceStatus    = 0u;
 275              		.loc 1 484 0
 276 001c 224A     		ldr	r2, .L12+24
 277 001e 1370     		strb	r3, [r2]
 485:Generated_Source\PSoC5/COM.c ****     COM_lastPacketSize  = 0u;
 278              		.loc 1 485 0
 279 0020 224A     		ldr	r2, .L12+28
 280 0022 1370     		strb	r3, [r2]
 486:Generated_Source\PSoC5/COM.c **** 
 487:Generated_Source\PSoC5/COM.c ****     /* Enable component interrupts. */
 488:Generated_Source\PSoC5/COM.c **** #if (CY_PSOC4)
 489:Generated_Source\PSoC5/COM.c ****     CyIntEnable(COM_INTR_HI_VECT_NUM);
 490:Generated_Source\PSoC5/COM.c ****     CyIntEnable(COM_INTR_MED_VECT_NUM);
 491:Generated_Source\PSoC5/COM.c ****     CyIntEnable(COM_INTR_LO_VECT_NUM);
 492:Generated_Source\PSoC5/COM.c **** #else
 493:Generated_Source\PSoC5/COM.c ****     CyIntEnable(COM_BUS_RESET_VECT_NUM);
 281              		.loc 1 493 0
 282 0024 224B     		ldr	r3, .L12+32
 283 0026 4FF40002 		mov	r2, #8388608
 284 002a 1A60     		str	r2, [r3]
 494:Generated_Source\PSoC5/COM.c ****     CyIntEnable(COM_EP_0_VECT_NUM);
 285              		.loc 1 494 0
 286 002c 4FF08072 		mov	r2, #16777216
 287 0030 1A60     		str	r2, [r3]
 495:Generated_Source\PSoC5/COM.c **** 
 496:Generated_Source\PSoC5/COM.c ****     #if (COM_SOF_ISR_ACTIVE)
 497:Generated_Source\PSoC5/COM.c ****         CyIntEnable(COM_SOF_VECT_NUM);
 498:Generated_Source\PSoC5/COM.c ****     #endif /* (COM_SOF_ISR_ACTIVE) */
 499:Generated_Source\PSoC5/COM.c **** 
 500:Generated_Source\PSoC5/COM.c ****     #if (COM_EP1_ISR_ACTIVE)
 501:Generated_Source\PSoC5/COM.c ****         CyIntEnable(COM_EP_1_VECT_NUM);
 288              		.loc 1 501 0
 289 0032 0122     		movs	r2, #1
 290 0034 1A60     		str	r2, [r3]
 502:Generated_Source\PSoC5/COM.c ****     #endif /* (COM_EP1_ISR_ACTIVE) */
 503:Generated_Source\PSoC5/COM.c **** 
 504:Generated_Source\PSoC5/COM.c ****     #if (COM_EP2_ISR_ACTIVE)
 505:Generated_Source\PSoC5/COM.c ****         CyIntEnable(COM_EP_2_VECT_NUM);
 291              		.loc 1 505 0
 292 0036 0222     		movs	r2, #2
 293 0038 1A60     		str	r2, [r3]
ARM GAS  C:\Users\LUKASC~1\AppData\Local\Temp\ccb2ZD5o.s 			page 15


 506:Generated_Source\PSoC5/COM.c ****     #endif /* (COM_EP5_ISR_ACTIVE) */
 507:Generated_Source\PSoC5/COM.c **** 
 508:Generated_Source\PSoC5/COM.c ****     #if (COM_EP3_ISR_ACTIVE)
 509:Generated_Source\PSoC5/COM.c ****         CyIntEnable(COM_EP_3_VECT_NUM);
 294              		.loc 1 509 0
 295 003a 0422     		movs	r2, #4
 296 003c 1A60     		str	r2, [r3]
 510:Generated_Source\PSoC5/COM.c ****     #endif /* (COM_EP5_ISR_ACTIVE) */
 511:Generated_Source\PSoC5/COM.c **** 
 512:Generated_Source\PSoC5/COM.c ****     #if (COM_EP4_ISR_ACTIVE)
 513:Generated_Source\PSoC5/COM.c ****         CyIntEnable(COM_EP_4_VECT_NUM);
 297              		.loc 1 513 0
 298 003e 0822     		movs	r2, #8
 299 0040 1A60     		str	r2, [r3]
 514:Generated_Source\PSoC5/COM.c ****     #endif /* (COM_EP5_ISR_ACTIVE) */
 515:Generated_Source\PSoC5/COM.c **** 
 516:Generated_Source\PSoC5/COM.c ****     #if (COM_EP5_ISR_ACTIVE)
 517:Generated_Source\PSoC5/COM.c ****         CyIntEnable(COM_EP_5_VECT_NUM);
 300              		.loc 1 517 0
 301 0042 1022     		movs	r2, #16
 302 0044 1A60     		str	r2, [r3]
 518:Generated_Source\PSoC5/COM.c ****     #endif /* (COM_EP5_ISR_ACTIVE) */
 519:Generated_Source\PSoC5/COM.c **** 
 520:Generated_Source\PSoC5/COM.c ****     #if (COM_EP6_ISR_ACTIVE)
 521:Generated_Source\PSoC5/COM.c ****         CyIntEnable(COM_EP_6_VECT_NUM);
 303              		.loc 1 521 0
 304 0046 2022     		movs	r2, #32
 305 0048 1A60     		str	r2, [r3]
 522:Generated_Source\PSoC5/COM.c ****     #endif /* COM_EP6_ISR_REMOVE */
 523:Generated_Source\PSoC5/COM.c **** 
 524:Generated_Source\PSoC5/COM.c ****     #if (COM_EP7_ISR_ACTIVE)
 525:Generated_Source\PSoC5/COM.c ****         CyIntEnable(COM_EP_7_VECT_NUM);
 526:Generated_Source\PSoC5/COM.c ****     #endif /* (COM_EP7_ISR_ACTIVE) */
 527:Generated_Source\PSoC5/COM.c **** 
 528:Generated_Source\PSoC5/COM.c ****     #if (COM_EP8_ISR_ACTIVE)
 529:Generated_Source\PSoC5/COM.c ****         CyIntEnable(COM_EP_8_VECT_NUM);
 530:Generated_Source\PSoC5/COM.c ****     #endif /* (COM_EP8_ISR_ACTIVE) */
 531:Generated_Source\PSoC5/COM.c **** #endif /* (CY_PSOC4) */
 532:Generated_Source\PSoC5/COM.c **** 
 533:Generated_Source\PSoC5/COM.c **** #if (COM_EP_MANAGEMENT_DMA && COM_ARB_ISR_ACTIVE)
 534:Generated_Source\PSoC5/COM.c ****     /* Enable ARB EP interrupt sources. */
 535:Generated_Source\PSoC5/COM.c ****     COM_ARB_INT_EN_REG = COM_DEFAULT_ARB_INT_EN;
 536:Generated_Source\PSoC5/COM.c **** 
 537:Generated_Source\PSoC5/COM.c ****     #if (CY_PSOC3 || CY_PSOC5)
 538:Generated_Source\PSoC5/COM.c ****         CyIntEnable(COM_ARB_VECT_NUM);
 539:Generated_Source\PSoC5/COM.c ****     #endif /* (CY_PSOC3 || CY_PSOC5) */
 540:Generated_Source\PSoC5/COM.c **** #endif   /* (COM_EP_MANAGEMENT_DMA && COM_ARB_ISR_ACTIVE) */
 541:Generated_Source\PSoC5/COM.c **** 
 542:Generated_Source\PSoC5/COM.c **** /* Arbiter configuration for DMA transfers. */
 543:Generated_Source\PSoC5/COM.c **** #if (COM_EP_MANAGEMENT_DMA)
 544:Generated_Source\PSoC5/COM.c ****     /* Configure Arbiter for Manual or Auto DMA operation and clear configuration completion. */
 545:Generated_Source\PSoC5/COM.c ****     COM_ARB_CFG_REG = COM_DEFAULT_ARB_CFG;
 546:Generated_Source\PSoC5/COM.c **** 
 547:Generated_Source\PSoC5/COM.c ****     #if (CY_PSOC4)
 548:Generated_Source\PSoC5/COM.c ****         /* Enable DMA operation. */
 549:Generated_Source\PSoC5/COM.c ****         CyDmaEnable();
 550:Generated_Source\PSoC5/COM.c **** 
ARM GAS  C:\Users\LUKASC~1\AppData\Local\Temp\ccb2ZD5o.s 			page 16


 551:Generated_Source\PSoC5/COM.c ****         #if (COM_EP_MANAGEMENT_DMA_AUTO)
 552:Generated_Source\PSoC5/COM.c ****             /* Change DMA priority to be highest. */
 553:Generated_Source\PSoC5/COM.c ****              CyIntSetPriority(CYDMA_INTR_NUMBER, COM_DMA_AUTO_INTR_PRIO);
 554:Generated_Source\PSoC5/COM.c ****         #endif /* (COM_EP_MANAGEMENT_DMA_AUTO) */
 555:Generated_Source\PSoC5/COM.c ****     #endif /* (CY_PSOC4) */
 556:Generated_Source\PSoC5/COM.c **** 
 557:Generated_Source\PSoC5/COM.c ****     #if (COM_EP_MANAGEMENT_DMA_AUTO)
 558:Generated_Source\PSoC5/COM.c ****         #if (CY_PSOC4)
 559:Generated_Source\PSoC5/COM.c ****             /* Enable DMA interrupt to handle DMA management. */
 560:Generated_Source\PSoC5/COM.c ****             CyIntEnable(CYDMA_INTR_NUMBER);
 561:Generated_Source\PSoC5/COM.c ****         #else
 562:Generated_Source\PSoC5/COM.c ****             #if (COM_EP_DMA_AUTO_OPT == 0u)
 563:Generated_Source\PSoC5/COM.c ****                 /* Initialize interrupts which handle verification of successful DMA transaction. *
 564:Generated_Source\PSoC5/COM.c ****                 COM_EP_DMA_Done_isr_StartEx(&COM_EP_DMA_DONE_ISR);
 565:Generated_Source\PSoC5/COM.c ****                 COM_EP17_DMA_Done_SR_InterruptEnable();
 566:Generated_Source\PSoC5/COM.c ****                 COM_EP8_DMA_Done_SR_InterruptEnable();
 567:Generated_Source\PSoC5/COM.c ****             #endif /* (COM_EP_DMA_AUTO_OPT == 0u) */
 568:Generated_Source\PSoC5/COM.c ****         #endif /* (CY_PSOC4) */
 569:Generated_Source\PSoC5/COM.c ****     #endif /* (COM_EP_MANAGEMENT_DMA_AUTO) */
 570:Generated_Source\PSoC5/COM.c **** #endif /* (COM_EP_MANAGEMENT_DMA) */
 571:Generated_Source\PSoC5/COM.c **** 
 572:Generated_Source\PSoC5/COM.c ****     /* Enable USB regulator depends on operation voltage. IMO Locking is enabled in Init(). */
 573:Generated_Source\PSoC5/COM.c ****     switch(mode)
 306              		.loc 1 573 0
 307 004a 11B1     		cbz	r1, .L7
 308 004c 0129     		cmp	r1, #1
 309 004e 06D0     		beq	.L8
 310 0050 0BE0     		b	.L10
 311              	.L7:
 574:Generated_Source\PSoC5/COM.c ****     {
 575:Generated_Source\PSoC5/COM.c ****     case COM_3V_OPERATION:
 576:Generated_Source\PSoC5/COM.c ****         /* Disable regulator for 3V operation. */
 577:Generated_Source\PSoC5/COM.c ****         COM_CR1_REG &= (uint8) ~COM_CR1_REG_ENABLE;
 312              		.loc 1 577 0
 313 0052 184A     		ldr	r2, .L12+36
 314 0054 1378     		ldrb	r3, [r2]	@ zero_extendqisi2
 315 0056 03F0FE03 		and	r3, r3, #254
 316 005a 1370     		strb	r3, [r2]
 578:Generated_Source\PSoC5/COM.c ****         break;
 317              		.loc 1 578 0
 318 005c 0AE0     		b	.L9
 319              	.L8:
 579:Generated_Source\PSoC5/COM.c **** 
 580:Generated_Source\PSoC5/COM.c ****     case COM_5V_OPERATION:
 581:Generated_Source\PSoC5/COM.c ****         /* Enable regulator for 5V operation. */
 582:Generated_Source\PSoC5/COM.c ****         COM_CR1_REG |= (uint8)  COM_CR1_REG_ENABLE;
 320              		.loc 1 582 0
 321 005e 154A     		ldr	r2, .L12+36
 322 0060 1378     		ldrb	r3, [r2]	@ zero_extendqisi2
 323 0062 43F00103 		orr	r3, r3, #1
 324 0066 1370     		strb	r3, [r2]
 583:Generated_Source\PSoC5/COM.c ****         break;
 325              		.loc 1 583 0
 326 0068 04E0     		b	.L9
 327              	.L10:
 584:Generated_Source\PSoC5/COM.c **** 
 585:Generated_Source\PSoC5/COM.c ****     default: /* Check DWR settings of USB power supply. */
ARM GAS  C:\Users\LUKASC~1\AppData\Local\Temp\ccb2ZD5o.s 			page 17


 586:Generated_Source\PSoC5/COM.c ****     #if (COM_VDDD_MV < COM_3500MV)
 587:Generated_Source\PSoC5/COM.c ****         /* Disable regulator for 3V operation. */
 588:Generated_Source\PSoC5/COM.c ****         COM_CR1_REG &= (uint8) ~COM_CR1_REG_ENABLE;
 589:Generated_Source\PSoC5/COM.c ****     #else
 590:Generated_Source\PSoC5/COM.c ****         /* Enable regulator for 5V operation. */
 591:Generated_Source\PSoC5/COM.c ****         COM_CR1_REG |= (uint8)  COM_CR1_REG_ENABLE;
 328              		.loc 1 591 0
 329 006a 124A     		ldr	r2, .L12+36
 330 006c 1378     		ldrb	r3, [r2]	@ zero_extendqisi2
 331 006e 43F00103 		orr	r3, r3, #1
 332 0072 1370     		strb	r3, [r2]
 333              	.L9:
 592:Generated_Source\PSoC5/COM.c ****     #endif /* (COM_VDDD_MV < COM_3500MV) */
 593:Generated_Source\PSoC5/COM.c ****         break;
 594:Generated_Source\PSoC5/COM.c ****     }
 595:Generated_Source\PSoC5/COM.c **** 
 596:Generated_Source\PSoC5/COM.c **** #if (CY_PSOC4)
 597:Generated_Source\PSoC5/COM.c ****     /* Clear bus activity. */
 598:Generated_Source\PSoC5/COM.c ****     COM_CR1_REG &= (uint32) ~COM_CR1_BUS_ACTIVITY;
 599:Generated_Source\PSoC5/COM.c **** 
 600:Generated_Source\PSoC5/COM.c ****     /* Clear EP0 count register. */
 601:Generated_Source\PSoC5/COM.c ****     COM_EP0_CNT_REG = COM_CLEAR_REG;
 602:Generated_Source\PSoC5/COM.c **** 
 603:Generated_Source\PSoC5/COM.c ****     /* Set EP0.CR: ACK Setup, NAK IN/OUT. */
 604:Generated_Source\PSoC5/COM.c ****     COM_EP0_CR_REG = COM_MODE_NAK_IN_OUT;
 605:Generated_Source\PSoC5/COM.c **** 
 606:Generated_Source\PSoC5/COM.c ****     #if (COM_LPM_ACTIVE)
 607:Generated_Source\PSoC5/COM.c ****         if (NULL != COM_GetBOSPtr())
 608:Generated_Source\PSoC5/COM.c ****         {
 609:Generated_Source\PSoC5/COM.c ****             /* Enable LPM and acknowledge LPM packets for active device.
 610:Generated_Source\PSoC5/COM.c ****             * Reset NYET_EN and SUB_RESP bits in the LPM_CTRL register.
 611:Generated_Source\PSoC5/COM.c ****             */
 612:Generated_Source\PSoC5/COM.c ****             COM_LPM_CTRL_REG = (COM_LPM_CTRL_LPM_EN | \
 613:Generated_Source\PSoC5/COM.c ****                                              COM_LPM_CTRL_LPM_ACK_RESP);
 614:Generated_Source\PSoC5/COM.c ****         }
 615:Generated_Source\PSoC5/COM.c ****         else
 616:Generated_Source\PSoC5/COM.c ****         {
 617:Generated_Source\PSoC5/COM.c ****             /* Disable LPM for active device. */
 618:Generated_Source\PSoC5/COM.c ****             COM_LPM_CTRL_REG &= (uint32) ~COM_LPM_CTRL_LPM_EN;
 619:Generated_Source\PSoC5/COM.c ****         }
 620:Generated_Source\PSoC5/COM.c ****     #endif /* (COM_LPM_ACTIVE) */
 621:Generated_Source\PSoC5/COM.c **** 
 622:Generated_Source\PSoC5/COM.c ****     /* Enable device to responds to USB traffic with address 0. */
 623:Generated_Source\PSoC5/COM.c ****     COM_CR0_REG = COM_DEFUALT_CR0;
 624:Generated_Source\PSoC5/COM.c **** 
 625:Generated_Source\PSoC5/COM.c **** #else
 626:Generated_Source\PSoC5/COM.c ****     /* Set EP0.CR: ACK Setup, STALL IN/OUT. */
 627:Generated_Source\PSoC5/COM.c ****     COM_EP0_CR_REG = COM_MODE_STALL_IN_OUT;
 334              		.loc 1 627 0
 335 0074 0322     		movs	r2, #3
 336 0076 104B     		ldr	r3, .L12+40
 337 0078 1A70     		strb	r2, [r3]
 628:Generated_Source\PSoC5/COM.c **** 
 629:Generated_Source\PSoC5/COM.c ****     /* Enable device to respond to USB traffic with address 0. */
 630:Generated_Source\PSoC5/COM.c ****     COM_CR0_REG = COM_DEFUALT_CR0;
 338              		.loc 1 630 0
 339 007a 8022     		movs	r2, #128
ARM GAS  C:\Users\LUKASC~1\AppData\Local\Temp\ccb2ZD5o.s 			page 18


 340 007c 203B     		subs	r3, r3, #32
 341 007e 1A70     		strb	r2, [r3]
 631:Generated_Source\PSoC5/COM.c ****     CyDelayCycles(COM_WAIT_CR0_REG_STABILITY);
 342              		.loc 1 631 0
 343 0080 0120     		movs	r0, #1
 344              	.LVL27:
 345 0082 FFF7FEFF 		bl	CyDelayCycles
 346              	.LVL28:
 632:Generated_Source\PSoC5/COM.c **** #endif /* (CY_PSOC4) */
 633:Generated_Source\PSoC5/COM.c **** 
 634:Generated_Source\PSoC5/COM.c ****     /* Enable D+ pull-up and keep USB control on IO. */
 635:Generated_Source\PSoC5/COM.c ****     COM_USBIO_CR1_REG = COM_USBIO_CR1_USBPUEN;
 347              		.loc 1 635 0
 348 0086 0422     		movs	r2, #4
 349 0088 0C4B     		ldr	r3, .L12+44
 350 008a 1A70     		strb	r2, [r3]
 351 008c 08BD     		pop	{r3, pc}
 352              	.L13:
 353 008e 00BF     		.align	2
 354              	.L12:
 355 0090 00000000 		.word	COM_device
 356 0094 00000000 		.word	COM_transferState
 357 0098 00000000 		.word	COM_configurationChanged
 358 009c 00000000 		.word	COM_configuration
 359 00a0 00000000 		.word	COM_interfaceNumber
 360 00a4 00000000 		.word	COM_deviceAddress
 361 00a8 00000000 		.word	COM_deviceStatus
 362 00ac 00000000 		.word	COM_lastPacketSize
 363 00b0 00E100E0 		.word	-536813312
 364 00b4 09600040 		.word	1073766409
 365 00b8 28600040 		.word	1073766440
 366 00bc 12600040 		.word	1073766418
 367              		.cfi_endproc
 368              	.LFE2:
 369              		.size	COM_InitComponent, .-COM_InitComponent
 370              		.section	.text.COM_Start,"ax",%progbits
 371              		.align	2
 372              		.global	COM_Start
 373              		.thumb
 374              		.thumb_func
 375              		.type	COM_Start, %function
 376              	COM_Start:
 377              	.LFB0:
 187:Generated_Source\PSoC5/COM.c ****     if (0u == COM_initVar)
 378              		.loc 1 187 0
 379              		.cfi_startproc
 380              		@ args = 0, pretend = 0, frame = 0
 381              		@ frame_needed = 0, uses_anonymous_args = 0
 382              	.LVL29:
 383 0000 38B5     		push	{r3, r4, r5, lr}
 384              		.cfi_def_cfa_offset 16
 385              		.cfi_offset 3, -16
 386              		.cfi_offset 4, -12
 387              		.cfi_offset 5, -8
 388              		.cfi_offset 14, -4
 389 0002 0546     		mov	r5, r0
 390 0004 0C46     		mov	r4, r1
ARM GAS  C:\Users\LUKASC~1\AppData\Local\Temp\ccb2ZD5o.s 			page 19


 188:Generated_Source\PSoC5/COM.c ****     {
 391              		.loc 1 188 0
 392 0006 064B     		ldr	r3, .L17
 393 0008 1B78     		ldrb	r3, [r3]	@ zero_extendqisi2
 394 000a 23B9     		cbnz	r3, .L15
 190:Generated_Source\PSoC5/COM.c ****         COM_initVar = 1u;
 395              		.loc 1 190 0
 396 000c FFF7FEFF 		bl	COM_Init
 397              	.LVL30:
 191:Generated_Source\PSoC5/COM.c ****     }
 398              		.loc 1 191 0
 399 0010 0122     		movs	r2, #1
 400 0012 034B     		ldr	r3, .L17
 401 0014 1A70     		strb	r2, [r3]
 402              	.L15:
 194:Generated_Source\PSoC5/COM.c **** }
 403              		.loc 1 194 0
 404 0016 2846     		mov	r0, r5
 405 0018 2146     		mov	r1, r4
 406 001a FFF7FEFF 		bl	COM_InitComponent
 407              	.LVL31:
 408 001e 38BD     		pop	{r3, r4, r5, pc}
 409              	.L18:
 410              		.align	2
 411              	.L17:
 412 0020 00000000 		.word	.LANCHOR0
 413              		.cfi_endproc
 414              	.LFE0:
 415              		.size	COM_Start, .-COM_Start
 416              		.section	.text.COM_ReInitComponent,"ax",%progbits
 417              		.align	2
 418              		.global	COM_ReInitComponent
 419              		.thumb
 420              		.thumb_func
 421              		.type	COM_ReInitComponent, %function
 422              	COM_ReInitComponent:
 423              	.LFB3:
 636:Generated_Source\PSoC5/COM.c **** }
 637:Generated_Source\PSoC5/COM.c **** 
 638:Generated_Source\PSoC5/COM.c **** 
 639:Generated_Source\PSoC5/COM.c **** /*******************************************************************************
 640:Generated_Source\PSoC5/COM.c **** * Function Name: COM_ReInitComponent
 641:Generated_Source\PSoC5/COM.c **** ****************************************************************************//**
 642:Generated_Source\PSoC5/COM.c **** *
 643:Generated_Source\PSoC5/COM.c **** *  This function reinitialize the component configuration and is
 644:Generated_Source\PSoC5/COM.c **** *  intend to be called from the Reset interrupt.
 645:Generated_Source\PSoC5/COM.c **** *
 646:Generated_Source\PSoC5/COM.c **** * \globalvars
 647:Generated_Source\PSoC5/COM.c **** *   COM_device - Contains the device number of the desired Device
 648:Generated_Source\PSoC5/COM.c **** *        Descriptor. The device number can be found in the Device Descriptor tab
 649:Generated_Source\PSoC5/COM.c **** *       of the Configure dialog, under the settings of the desired Device Descriptor,
 650:Generated_Source\PSoC5/COM.c **** *       in the Device Number field.
 651:Generated_Source\PSoC5/COM.c **** *   COM_transferState - This variable is used by the communication
 652:Generated_Source\PSoC5/COM.c **** *       functions to handle the current transfer state. Initialized to
 653:Generated_Source\PSoC5/COM.c **** *       TRANS_STATE_IDLE in this API.
 654:Generated_Source\PSoC5/COM.c **** *   COM_configuration - Contains the current configuration number
 655:Generated_Source\PSoC5/COM.c **** *       set by the Host using a SET_CONFIGURATION request.
ARM GAS  C:\Users\LUKASC~1\AppData\Local\Temp\ccb2ZD5o.s 			page 20


 656:Generated_Source\PSoC5/COM.c **** *       Initialized to zero in this API.
 657:Generated_Source\PSoC5/COM.c **** *   COM_deviceAddress - Contains the current device address. This
 658:Generated_Source\PSoC5/COM.c **** *       variable is initialized to zero in this API. The Host starts to communicate
 659:Generated_Source\PSoC5/COM.c **** *      to the device with address 0 and then sets it to a whatever value using
 660:Generated_Source\PSoC5/COM.c **** *      a SET_ADDRESS request.
 661:Generated_Source\PSoC5/COM.c **** *   COM_deviceStatus - Initialized to 0.
 662:Generated_Source\PSoC5/COM.c **** *       This is a two-bit variable which contains the power status in the first bit
 663:Generated_Source\PSoC5/COM.c **** *       (DEVICE_STATUS_BUS_POWERED or DEVICE_STATUS_SELF_POWERED) and the remote
 664:Generated_Source\PSoC5/COM.c **** *       wakeup status (DEVICE_STATUS_REMOTE_WAKEUP) in the second bit.
 665:Generated_Source\PSoC5/COM.c **** *   COM_lastPacketSize - Initialized to 0;
 666:Generated_Source\PSoC5/COM.c **** *
 667:Generated_Source\PSoC5/COM.c **** * \reentrant
 668:Generated_Source\PSoC5/COM.c **** *  No.
 669:Generated_Source\PSoC5/COM.c **** *
 670:Generated_Source\PSoC5/COM.c **** *******************************************************************************/
 671:Generated_Source\PSoC5/COM.c **** void COM_ReInitComponent(void) 
 672:Generated_Source\PSoC5/COM.c **** {
 424              		.loc 1 672 0
 425              		.cfi_startproc
 426              		@ args = 0, pretend = 0, frame = 0
 427              		@ frame_needed = 0, uses_anonymous_args = 0
 428              		@ link register save eliminated.
 673:Generated_Source\PSoC5/COM.c ****     /* Initialize _hidProtocol variable to comply with HID 7.2.6 Set_Protocol
 674:Generated_Source\PSoC5/COM.c ****     *  Request: "When initialized, all devices default to report protocol."
 675:Generated_Source\PSoC5/COM.c ****     */
 676:Generated_Source\PSoC5/COM.c **** #if defined(COM_ENABLE_HID_CLASS)
 677:Generated_Source\PSoC5/COM.c ****     uint8 i;
 678:Generated_Source\PSoC5/COM.c **** 
 679:Generated_Source\PSoC5/COM.c ****     for (i = 0u; i < COM_MAX_INTERFACES_NUMBER; i++)
 680:Generated_Source\PSoC5/COM.c ****     {
 681:Generated_Source\PSoC5/COM.c ****         COM_hidProtocol[i] = COM_PROTOCOL_REPORT;
 682:Generated_Source\PSoC5/COM.c ****     }
 683:Generated_Source\PSoC5/COM.c **** #endif /* COM_ENABLE_HID_CLASS */
 684:Generated_Source\PSoC5/COM.c **** 
 685:Generated_Source\PSoC5/COM.c ****     /* Reset component internal variables. */
 686:Generated_Source\PSoC5/COM.c ****     COM_transferState   = COM_TRANS_STATE_IDLE;
 429              		.loc 1 686 0
 430 0000 0023     		movs	r3, #0
 431 0002 0A4A     		ldr	r2, .L20
 432 0004 1370     		strb	r3, [r2]
 687:Generated_Source\PSoC5/COM.c ****     COM_configurationChanged = 0u;
 433              		.loc 1 687 0
 434 0006 0A4A     		ldr	r2, .L20+4
 435 0008 1370     		strb	r3, [r2]
 688:Generated_Source\PSoC5/COM.c ****     COM_configuration   = 0u;
 436              		.loc 1 688 0
 437 000a 0A4A     		ldr	r2, .L20+8
 438 000c 1370     		strb	r3, [r2]
 689:Generated_Source\PSoC5/COM.c ****     COM_interfaceNumber = 0u;
 439              		.loc 1 689 0
 440 000e 0A4A     		ldr	r2, .L20+12
 441 0010 1370     		strb	r3, [r2]
 690:Generated_Source\PSoC5/COM.c ****     COM_deviceAddress   = 0u;
 442              		.loc 1 690 0
 443 0012 0A4A     		ldr	r2, .L20+16
 444 0014 1370     		strb	r3, [r2]
 691:Generated_Source\PSoC5/COM.c ****     COM_deviceStatus    = 0u;
ARM GAS  C:\Users\LUKASC~1\AppData\Local\Temp\ccb2ZD5o.s 			page 21


 445              		.loc 1 691 0
 446 0016 0A4A     		ldr	r2, .L20+20
 447 0018 1370     		strb	r3, [r2]
 692:Generated_Source\PSoC5/COM.c ****     COM_lastPacketSize  = 0u;
 448              		.loc 1 692 0
 449 001a 0A4A     		ldr	r2, .L20+24
 450 001c 1370     		strb	r3, [r2]
 693:Generated_Source\PSoC5/COM.c **** 
 694:Generated_Source\PSoC5/COM.c **** #if (CY_PSOC4)
 695:Generated_Source\PSoC5/COM.c ****     /* Set EP0.CR: ACK Setup, NAK IN/OUT. */
 696:Generated_Source\PSoC5/COM.c ****     COM_EP0_CR_REG = COM_MODE_NAK_IN_OUT;
 697:Generated_Source\PSoC5/COM.c **** #else
 698:Generated_Source\PSoC5/COM.c ****     /* Set EP0.CR: ACK Setup, STALL IN/OUT. */
 699:Generated_Source\PSoC5/COM.c ****     COM_EP0_CR_REG = COM_MODE_STALL_IN_OUT;
 451              		.loc 1 699 0
 452 001e 0322     		movs	r2, #3
 453 0020 094B     		ldr	r3, .L20+28
 454 0022 1A70     		strb	r2, [r3]
 700:Generated_Source\PSoC5/COM.c **** #endif /* (CY_PSOC4) */
 701:Generated_Source\PSoC5/COM.c **** 
 702:Generated_Source\PSoC5/COM.c ****     /* Enable device to respond to USB traffic with address 0. */
 703:Generated_Source\PSoC5/COM.c ****     COM_CR0_REG = COM_DEFUALT_CR0;
 455              		.loc 1 703 0
 456 0024 8022     		movs	r2, #128
 457 0026 203B     		subs	r3, r3, #32
 458 0028 1A70     		strb	r2, [r3]
 459 002a 7047     		bx	lr
 460              	.L21:
 461              		.align	2
 462              	.L20:
 463 002c 00000000 		.word	COM_transferState
 464 0030 00000000 		.word	COM_configurationChanged
 465 0034 00000000 		.word	COM_configuration
 466 0038 00000000 		.word	COM_interfaceNumber
 467 003c 00000000 		.word	COM_deviceAddress
 468 0040 00000000 		.word	COM_deviceStatus
 469 0044 00000000 		.word	COM_lastPacketSize
 470 0048 28600040 		.word	1073766440
 471              		.cfi_endproc
 472              	.LFE3:
 473              		.size	COM_ReInitComponent, .-COM_ReInitComponent
 474              		.section	.text.COM_Stop,"ax",%progbits
 475              		.align	2
 476              		.global	COM_Stop
 477              		.thumb
 478              		.thumb_func
 479              		.type	COM_Stop, %function
 480              	COM_Stop:
 481              	.LFB4:
 704:Generated_Source\PSoC5/COM.c **** }
 705:Generated_Source\PSoC5/COM.c **** 
 706:Generated_Source\PSoC5/COM.c **** 
 707:Generated_Source\PSoC5/COM.c **** /*******************************************************************************
 708:Generated_Source\PSoC5/COM.c **** * Function Name: COM_Stop
 709:Generated_Source\PSoC5/COM.c **** ****************************************************************************//**
 710:Generated_Source\PSoC5/COM.c **** *
 711:Generated_Source\PSoC5/COM.c **** *  This function shuts down the USB function including to release
ARM GAS  C:\Users\LUKASC~1\AppData\Local\Temp\ccb2ZD5o.s 			page 22


 712:Generated_Source\PSoC5/COM.c **** *  the D+ pull-up and disabling the SIE.
 713:Generated_Source\PSoC5/COM.c **** *
 714:Generated_Source\PSoC5/COM.c **** * \globalvars
 715:Generated_Source\PSoC5/COM.c **** *   \ref COM_configuration
 716:Generated_Source\PSoC5/COM.c **** *
 717:Generated_Source\PSoC5/COM.c **** *   COM_deviceAddress - Contains the current device address. This
 718:Generated_Source\PSoC5/COM.c **** *       variable is initialized to zero in this API. The Host starts to communicate
 719:Generated_Source\PSoC5/COM.c **** *      to the device with address 0 and then sets it to a whatever value using
 720:Generated_Source\PSoC5/COM.c **** *      a SET_ADDRESS request.
 721:Generated_Source\PSoC5/COM.c **** *
 722:Generated_Source\PSoC5/COM.c **** *   \ref COM_deviceStatus
 723:Generated_Source\PSoC5/COM.c **** *
 724:Generated_Source\PSoC5/COM.c **** *   \ref COM_configurationChanged
 725:Generated_Source\PSoC5/COM.c **** *
 726:Generated_Source\PSoC5/COM.c **** *   COM_intiVar -  This variable is set to zero
 727:Generated_Source\PSoC5/COM.c **** *
 728:Generated_Source\PSoC5/COM.c **** *******************************************************************************/
 729:Generated_Source\PSoC5/COM.c **** void COM_Stop(void) 
 730:Generated_Source\PSoC5/COM.c **** {
 482              		.loc 1 730 0
 483              		.cfi_startproc
 484              		@ args = 0, pretend = 0, frame = 0
 485              		@ frame_needed = 0, uses_anonymous_args = 0
 486 0000 08B5     		push	{r3, lr}
 487              		.cfi_def_cfa_offset 8
 488              		.cfi_offset 3, -8
 489              		.cfi_offset 14, -4
 731:Generated_Source\PSoC5/COM.c ****     uint8 enableInterrupts;
 732:Generated_Source\PSoC5/COM.c **** 
 733:Generated_Source\PSoC5/COM.c **** #if (COM_EP_MANAGEMENT_DMA)
 734:Generated_Source\PSoC5/COM.c ****     /* Stop all DMA channels. */
 735:Generated_Source\PSoC5/COM.c ****     COM_Stop_DMA(COM_MAX_EP);
 736:Generated_Source\PSoC5/COM.c **** #endif /* (COM_EP_MANAGEMENT_DMA) */
 737:Generated_Source\PSoC5/COM.c **** 
 738:Generated_Source\PSoC5/COM.c ****     enableInterrupts = CyEnterCriticalSection();
 490              		.loc 1 738 0
 491 0002 FFF7FEFF 		bl	CyEnterCriticalSection
 492              	.LVL32:
 739:Generated_Source\PSoC5/COM.c **** 
 740:Generated_Source\PSoC5/COM.c ****     /* Disable USB IP to respond to USB traffic. */
 741:Generated_Source\PSoC5/COM.c ****     COM_CR0_REG &= (uint8) ~COM_CR0_ENABLE;
 493              		.loc 1 741 0
 494 0006 244A     		ldr	r2, .L24
 495 0008 1378     		ldrb	r3, [r2]	@ zero_extendqisi2
 496 000a 03F07F03 		and	r3, r3, #127
 497 000e 1370     		strb	r3, [r2]
 742:Generated_Source\PSoC5/COM.c **** 
 743:Generated_Source\PSoC5/COM.c ****     /* Disable D+ pull-up. */
 744:Generated_Source\PSoC5/COM.c ****     COM_USBIO_CR1_REG &= (uint8) ~ COM_USBIO_CR1_USBPUEN;
 498              		.loc 1 744 0
 499 0010 0A32     		adds	r2, r2, #10
 500 0012 1378     		ldrb	r3, [r2]	@ zero_extendqisi2
 501 0014 03F0FB03 		and	r3, r3, #251
 502 0018 1370     		strb	r3, [r2]
 745:Generated_Source\PSoC5/COM.c **** 
 746:Generated_Source\PSoC5/COM.c **** #if (CY_PSOC4)
 747:Generated_Source\PSoC5/COM.c ****     /* Disable USBFS block. */
ARM GAS  C:\Users\LUKASC~1\AppData\Local\Temp\ccb2ZD5o.s 			page 23


 748:Generated_Source\PSoC5/COM.c ****     COM_POWER_CTRL_REG &= (uint32) ~COM_POWER_CTRL_ENABLE;
 749:Generated_Source\PSoC5/COM.c **** #else
 750:Generated_Source\PSoC5/COM.c ****     /* Clear power active and standby mode templates. */
 751:Generated_Source\PSoC5/COM.c ****     COM_PM_ACT_CFG_REG  &= (uint8) ~COM_PM_ACT_EN_FSUSB;
 503              		.loc 1 751 0
 504 001a A2F5E352 		sub	r2, r2, #7264
 505 001e 0D3A     		subs	r2, r2, #13
 506 0020 1378     		ldrb	r3, [r2]	@ zero_extendqisi2
 507 0022 03F0FE03 		and	r3, r3, #254
 508 0026 1370     		strb	r3, [r2]
 752:Generated_Source\PSoC5/COM.c ****     COM_PM_STBY_CFG_REG &= (uint8) ~COM_PM_STBY_EN_FSUSB;
 509              		.loc 1 752 0
 510 0028 1032     		adds	r2, r2, #16
 511 002a 1378     		ldrb	r3, [r2]	@ zero_extendqisi2
 512 002c 03F0FE03 		and	r3, r3, #254
 513 0030 1370     		strb	r3, [r2]
 753:Generated_Source\PSoC5/COM.c **** 
 754:Generated_Source\PSoC5/COM.c ****     /* Ensure single-ended disable bits are high (PRT15.INP_DIS[7:6])
 755:Generated_Source\PSoC5/COM.c ****      * (input receiver disabled). */
 756:Generated_Source\PSoC5/COM.c ****     COM_DM_INP_DIS_REG |= (uint8) COM_DM_MASK;
 514              		.loc 1 756 0
 515 0032 1A4B     		ldr	r3, .L24+4
 516 0034 1A78     		ldrb	r2, [r3]	@ zero_extendqisi2
 517 0036 42F08002 		orr	r2, r2, #128
 518 003a 1A70     		strb	r2, [r3]
 757:Generated_Source\PSoC5/COM.c ****     COM_DP_INP_DIS_REG |= (uint8) COM_DP_MASK;
 519              		.loc 1 757 0
 520 003c 1A78     		ldrb	r2, [r3]	@ zero_extendqisi2
 521 003e 42F04002 		orr	r2, r2, #64
 522 0042 1A70     		strb	r2, [r3]
 758:Generated_Source\PSoC5/COM.c **** 
 759:Generated_Source\PSoC5/COM.c **** #endif /* (CY_PSOC4) */
 760:Generated_Source\PSoC5/COM.c **** 
 761:Generated_Source\PSoC5/COM.c ****     CyExitCriticalSection(enableInterrupts);
 523              		.loc 1 761 0
 524 0044 FFF7FEFF 		bl	CyExitCriticalSection
 525              	.LVL33:
 762:Generated_Source\PSoC5/COM.c **** 
 763:Generated_Source\PSoC5/COM.c ****     /* Disable component interrupts. */
 764:Generated_Source\PSoC5/COM.c **** #if (CY_PSOC4)
 765:Generated_Source\PSoC5/COM.c ****     CyIntDisable(COM_INTR_HI_VECT_NUM);
 766:Generated_Source\PSoC5/COM.c ****     CyIntDisable(COM_INTR_LO_VECT_NUM);
 767:Generated_Source\PSoC5/COM.c ****     CyIntDisable(COM_INTR_MED_VECT_NUM);
 768:Generated_Source\PSoC5/COM.c **** #else
 769:Generated_Source\PSoC5/COM.c **** 
 770:Generated_Source\PSoC5/COM.c ****     CyIntDisable(COM_BUS_RESET_VECT_NUM);
 526              		.loc 1 770 0
 527 0048 154B     		ldr	r3, .L24+8
 528 004a 4FF40002 		mov	r2, #8388608
 529 004e 1A60     		str	r2, [r3]
 771:Generated_Source\PSoC5/COM.c ****     CyIntDisable(COM_EP_0_VECT_NUM);
 530              		.loc 1 771 0
 531 0050 4FF08072 		mov	r2, #16777216
 532 0054 1A60     		str	r2, [r3]
 772:Generated_Source\PSoC5/COM.c **** 
 773:Generated_Source\PSoC5/COM.c ****     #if (COM_SOF_ISR_ACTIVE)
 774:Generated_Source\PSoC5/COM.c ****         CyIntDisable(COM_SOF_VECT_NUM);
ARM GAS  C:\Users\LUKASC~1\AppData\Local\Temp\ccb2ZD5o.s 			page 24


 775:Generated_Source\PSoC5/COM.c ****     #endif /* (COM_SOF_ISR_ACTIVE) */
 776:Generated_Source\PSoC5/COM.c **** 
 777:Generated_Source\PSoC5/COM.c ****     #if (COM_EP1_ISR_ACTIVE)
 778:Generated_Source\PSoC5/COM.c ****         CyIntDisable(COM_EP_1_VECT_NUM);
 533              		.loc 1 778 0
 534 0056 0122     		movs	r2, #1
 535 0058 1A60     		str	r2, [r3]
 779:Generated_Source\PSoC5/COM.c ****     #endif /* (COM_EP1_ISR_ACTIVE) */
 780:Generated_Source\PSoC5/COM.c **** 
 781:Generated_Source\PSoC5/COM.c ****     #if (COM_EP2_ISR_ACTIVE)
 782:Generated_Source\PSoC5/COM.c ****         CyIntDisable(COM_EP_2_VECT_NUM);
 536              		.loc 1 782 0
 537 005a 0222     		movs	r2, #2
 538 005c 1A60     		str	r2, [r3]
 783:Generated_Source\PSoC5/COM.c ****     #endif /* (COM_EP2_ISR_ACTIVE) */
 784:Generated_Source\PSoC5/COM.c **** 
 785:Generated_Source\PSoC5/COM.c ****     #if (COM_EP3_ISR_ACTIVE)
 786:Generated_Source\PSoC5/COM.c ****         CyIntDisable(COM_EP_3_VECT_NUM);
 539              		.loc 1 786 0
 540 005e 0422     		movs	r2, #4
 541 0060 1A60     		str	r2, [r3]
 787:Generated_Source\PSoC5/COM.c ****     #endif /* (COM_EP3_ISR_ACTIVE) */
 788:Generated_Source\PSoC5/COM.c **** 
 789:Generated_Source\PSoC5/COM.c ****     #if (COM_EP4_ISR_ACTIVE)
 790:Generated_Source\PSoC5/COM.c ****         CyIntDisable(COM_EP_4_VECT_NUM);
 542              		.loc 1 790 0
 543 0062 0822     		movs	r2, #8
 544 0064 1A60     		str	r2, [r3]
 791:Generated_Source\PSoC5/COM.c ****     #endif /* (COM_EP4_ISR_ACTIVE) */
 792:Generated_Source\PSoC5/COM.c **** 
 793:Generated_Source\PSoC5/COM.c ****     #if (COM_EP5_ISR_ACTIVE)
 794:Generated_Source\PSoC5/COM.c ****         CyIntDisable(COM_EP_5_VECT_NUM);
 545              		.loc 1 794 0
 546 0066 1022     		movs	r2, #16
 547 0068 1A60     		str	r2, [r3]
 795:Generated_Source\PSoC5/COM.c ****     #endif /* (COM_EP5_ISR_ACTIVE) */
 796:Generated_Source\PSoC5/COM.c **** 
 797:Generated_Source\PSoC5/COM.c ****     #if (COM_EP6_ISR_ACTIVE)
 798:Generated_Source\PSoC5/COM.c ****         CyIntDisable(COM_EP_6_VECT_NUM);
 548              		.loc 1 798 0
 549 006a 2022     		movs	r2, #32
 550 006c 1A60     		str	r2, [r3]
 799:Generated_Source\PSoC5/COM.c ****     #endif /* COM_EP6_ISR_REMOVE */
 800:Generated_Source\PSoC5/COM.c **** 
 801:Generated_Source\PSoC5/COM.c ****     #if (COM_EP7_ISR_ACTIVE)
 802:Generated_Source\PSoC5/COM.c ****         CyIntDisable(COM_EP_7_VECT_NUM);
 803:Generated_Source\PSoC5/COM.c ****     #endif /* (COM_EP7_ISR_ACTIVE) */
 804:Generated_Source\PSoC5/COM.c **** 
 805:Generated_Source\PSoC5/COM.c ****     #if (COM_EP8_ISR_ACTIVE)
 806:Generated_Source\PSoC5/COM.c ****         CyIntDisable(COM_EP_8_VECT_NUM);
 807:Generated_Source\PSoC5/COM.c ****     #endif /* (COM_EP8_ISR_ACTIVE) */
 808:Generated_Source\PSoC5/COM.c **** 
 809:Generated_Source\PSoC5/COM.c ****     #if (COM_DP_ISR_ACTIVE)
 810:Generated_Source\PSoC5/COM.c ****         /* Clear active mode Dp interrupt source history. */
 811:Generated_Source\PSoC5/COM.c ****         (void) COM_Dp_ClearInterrupt();
 551              		.loc 1 811 0
 552 006e FFF7FEFF 		bl	COM_Dp_ClearInterrupt
ARM GAS  C:\Users\LUKASC~1\AppData\Local\Temp\ccb2ZD5o.s 			page 25


 553              	.LVL34:
 812:Generated_Source\PSoC5/COM.c ****         CyIntClearPending(COM_DP_INTC_VECT_NUM);
 554              		.loc 1 812 0
 555 0072 4FF48052 		mov	r2, #4096
 556 0076 0B4B     		ldr	r3, .L24+12
 557 0078 1A60     		str	r2, [r3]
 813:Generated_Source\PSoC5/COM.c ****     #endif /* (COM_DP_ISR_ACTIVE). */
 814:Generated_Source\PSoC5/COM.c **** 
 815:Generated_Source\PSoC5/COM.c **** #endif /* (CY_PSOC4) */
 816:Generated_Source\PSoC5/COM.c **** 
 817:Generated_Source\PSoC5/COM.c ****     /* Reset component internal variables. */
 818:Generated_Source\PSoC5/COM.c ****     COM_configurationChanged = 0u;
 558              		.loc 1 818 0
 559 007a 0023     		movs	r3, #0
 560 007c 0A4A     		ldr	r2, .L24+16
 561 007e 1370     		strb	r3, [r2]
 819:Generated_Source\PSoC5/COM.c ****     COM_configuration   = 0u;
 562              		.loc 1 819 0
 563 0080 0A4A     		ldr	r2, .L24+20
 564 0082 1370     		strb	r3, [r2]
 820:Generated_Source\PSoC5/COM.c ****     COM_interfaceNumber = 0u;
 565              		.loc 1 820 0
 566 0084 0A4A     		ldr	r2, .L24+24
 567 0086 1370     		strb	r3, [r2]
 821:Generated_Source\PSoC5/COM.c ****     COM_deviceAddress   = 0u;
 568              		.loc 1 821 0
 569 0088 0A4A     		ldr	r2, .L24+28
 570 008a 1370     		strb	r3, [r2]
 822:Generated_Source\PSoC5/COM.c ****     COM_deviceStatus    = 0u;
 571              		.loc 1 822 0
 572 008c 0A4A     		ldr	r2, .L24+32
 573 008e 1370     		strb	r3, [r2]
 823:Generated_Source\PSoC5/COM.c **** 
 824:Generated_Source\PSoC5/COM.c ****     /* It is mandatory for correct device startup. */
 825:Generated_Source\PSoC5/COM.c ****     COM_initVar = 0u;
 574              		.loc 1 825 0
 575 0090 0A4A     		ldr	r2, .L24+36
 576 0092 1370     		strb	r3, [r2]
 577 0094 08BD     		pop	{r3, pc}
 578              	.L25:
 579 0096 00BF     		.align	2
 580              	.L24:
 581 0098 08600040 		.word	1073766408
 582 009c F8510040 		.word	1073762808
 583 00a0 80E100E0 		.word	-536813184
 584 00a4 80E200E0 		.word	-536812928
 585 00a8 00000000 		.word	COM_configurationChanged
 586 00ac 00000000 		.word	COM_configuration
 587 00b0 00000000 		.word	COM_interfaceNumber
 588 00b4 00000000 		.word	COM_deviceAddress
 589 00b8 00000000 		.word	COM_deviceStatus
 590 00bc 00000000 		.word	.LANCHOR0
 591              		.cfi_endproc
 592              	.LFE4:
 593              		.size	COM_Stop, .-COM_Stop
 594              		.section	.text.COM_CheckActivity,"ax",%progbits
 595              		.align	2
ARM GAS  C:\Users\LUKASC~1\AppData\Local\Temp\ccb2ZD5o.s 			page 26


 596              		.global	COM_CheckActivity
 597              		.thumb
 598              		.thumb_func
 599              		.type	COM_CheckActivity, %function
 600              	COM_CheckActivity:
 601              	.LFB5:
 826:Generated_Source\PSoC5/COM.c **** }
 827:Generated_Source\PSoC5/COM.c **** 
 828:Generated_Source\PSoC5/COM.c **** 
 829:Generated_Source\PSoC5/COM.c **** /*******************************************************************************
 830:Generated_Source\PSoC5/COM.c **** * Function Name: COM_CheckActivity
 831:Generated_Source\PSoC5/COM.c **** ****************************************************************************//**
 832:Generated_Source\PSoC5/COM.c **** *
 833:Generated_Source\PSoC5/COM.c **** *  This function returns the activity status of the bus. It clears the hardware
 834:Generated_Source\PSoC5/COM.c **** *  status to provide updated status on the next call of this function. It
 835:Generated_Source\PSoC5/COM.c **** *  provides a way to determine whether any USB bus activity occurred. The
 836:Generated_Source\PSoC5/COM.c **** *  application should use this function to determine if the USB suspend
 837:Generated_Source\PSoC5/COM.c **** *  conditions are met.
 838:Generated_Source\PSoC5/COM.c **** *
 839:Generated_Source\PSoC5/COM.c **** *
 840:Generated_Source\PSoC5/COM.c **** * \return
 841:Generated_Source\PSoC5/COM.c **** *  cystatus: Status of the bus since the last call of the function.
 842:Generated_Source\PSoC5/COM.c **** *  Return Value |   Description
 843:Generated_Source\PSoC5/COM.c **** *  -------------|---------------------------------------------------------------
 844:Generated_Source\PSoC5/COM.c **** *  1            |Bus activity was detected since the last call to this function
 845:Generated_Source\PSoC5/COM.c **** *  0            |Bus activity was not detected since the last call to this function
 846:Generated_Source\PSoC5/COM.c **** *
 847:Generated_Source\PSoC5/COM.c **** *
 848:Generated_Source\PSoC5/COM.c **** *******************************************************************************/
 849:Generated_Source\PSoC5/COM.c **** uint8 COM_CheckActivity(void) 
 850:Generated_Source\PSoC5/COM.c **** {
 602              		.loc 1 850 0
 603              		.cfi_startproc
 604              		@ args = 0, pretend = 0, frame = 0
 605              		@ frame_needed = 0, uses_anonymous_args = 0
 606              		@ link register save eliminated.
 851:Generated_Source\PSoC5/COM.c ****     uint8 cr1Reg = COM_CR1_REG;
 607              		.loc 1 851 0
 608 0000 064A     		ldr	r2, .L28
 609 0002 1378     		ldrb	r3, [r2]	@ zero_extendqisi2
 610 0004 DBB2     		uxtb	r3, r3
 611              	.LVL35:
 852:Generated_Source\PSoC5/COM.c **** 
 853:Generated_Source\PSoC5/COM.c ****     /* Clear bus activity. */
 854:Generated_Source\PSoC5/COM.c ****     COM_CR1_REG = (cr1Reg & (uint8) ~COM_CR1_BUS_ACTIVITY);
 612              		.loc 1 854 0
 613 0006 03F0FB01 		and	r1, r3, #251
 614 000a 1170     		strb	r1, [r2]
 855:Generated_Source\PSoC5/COM.c **** 
 856:Generated_Source\PSoC5/COM.c ****     /* Get bus activity. */
 857:Generated_Source\PSoC5/COM.c ****     return ((0u != (cr1Reg & COM_CR1_BUS_ACTIVITY)) ? (1u) : (0u));
 615              		.loc 1 857 0
 616 000c 03F00403 		and	r3, r3, #4
 617              	.LVL36:
 618 0010 03F0FF00 		and	r0, r3, #255
 619 0014 03B1     		cbz	r3, .L27
 620 0016 0120     		movs	r0, #1
ARM GAS  C:\Users\LUKASC~1\AppData\Local\Temp\ccb2ZD5o.s 			page 27


 621              	.L27:
 858:Generated_Source\PSoC5/COM.c **** }
 622              		.loc 1 858 0 discriminator 4
 623 0018 7047     		bx	lr
 624              	.L29:
 625 001a 00BF     		.align	2
 626              	.L28:
 627 001c 09600040 		.word	1073766409
 628              		.cfi_endproc
 629              	.LFE5:
 630              		.size	COM_CheckActivity, .-COM_CheckActivity
 631              		.section	.text.COM_GetConfiguration,"ax",%progbits
 632              		.align	2
 633              		.global	COM_GetConfiguration
 634              		.thumb
 635              		.thumb_func
 636              		.type	COM_GetConfiguration, %function
 637              	COM_GetConfiguration:
 638              	.LFB6:
 859:Generated_Source\PSoC5/COM.c **** 
 860:Generated_Source\PSoC5/COM.c **** 
 861:Generated_Source\PSoC5/COM.c **** /*******************************************************************************
 862:Generated_Source\PSoC5/COM.c **** * Function Name: COM_GetConfiguration
 863:Generated_Source\PSoC5/COM.c **** ****************************************************************************//**
 864:Generated_Source\PSoC5/COM.c **** *
 865:Generated_Source\PSoC5/COM.c **** *  This function gets the current configuration of the USB device.
 866:Generated_Source\PSoC5/COM.c **** *
 867:Generated_Source\PSoC5/COM.c **** * \return
 868:Generated_Source\PSoC5/COM.c **** *  Returns the currently assigned configuration. Returns 0 if the device
 869:Generated_Source\PSoC5/COM.c **** *  is not configured
 870:Generated_Source\PSoC5/COM.c **** *
 871:Generated_Source\PSoC5/COM.c **** *******************************************************************************/
 872:Generated_Source\PSoC5/COM.c **** uint8 COM_GetConfiguration(void) 
 873:Generated_Source\PSoC5/COM.c **** {
 639              		.loc 1 873 0
 640              		.cfi_startproc
 641              		@ args = 0, pretend = 0, frame = 0
 642              		@ frame_needed = 0, uses_anonymous_args = 0
 643              		@ link register save eliminated.
 874:Generated_Source\PSoC5/COM.c ****     return (COM_configuration);
 644              		.loc 1 874 0
 645 0000 014B     		ldr	r3, .L31
 646 0002 1878     		ldrb	r0, [r3]	@ zero_extendqisi2
 875:Generated_Source\PSoC5/COM.c **** }
 647              		.loc 1 875 0
 648 0004 7047     		bx	lr
 649              	.L32:
 650 0006 00BF     		.align	2
 651              	.L31:
 652 0008 00000000 		.word	COM_configuration
 653              		.cfi_endproc
 654              	.LFE6:
 655              		.size	COM_GetConfiguration, .-COM_GetConfiguration
 656              		.section	.text.COM_IsConfigurationChanged,"ax",%progbits
 657              		.align	2
 658              		.global	COM_IsConfigurationChanged
 659              		.thumb
ARM GAS  C:\Users\LUKASC~1\AppData\Local\Temp\ccb2ZD5o.s 			page 28


 660              		.thumb_func
 661              		.type	COM_IsConfigurationChanged, %function
 662              	COM_IsConfigurationChanged:
 663              	.LFB7:
 876:Generated_Source\PSoC5/COM.c **** 
 877:Generated_Source\PSoC5/COM.c **** 
 878:Generated_Source\PSoC5/COM.c **** /*******************************************************************************
 879:Generated_Source\PSoC5/COM.c **** * Function Name: COM_IsConfigurationChanged
 880:Generated_Source\PSoC5/COM.c **** ****************************************************************************//**
 881:Generated_Source\PSoC5/COM.c **** *
 882:Generated_Source\PSoC5/COM.c **** *  This function returns the clear-on-read configuration state.  It is useful
 883:Generated_Source\PSoC5/COM.c **** *  when the host sends double SET_CONFIGURATION request with the same 
 884:Generated_Source\PSoC5/COM.c **** *  configuration number or changes alternate settings of the interface. 
 885:Generated_Source\PSoC5/COM.c **** *  After configuration has been changed the OUT endpoints must be enabled and IN 
 886:Generated_Source\PSoC5/COM.c **** *  endpoint must be loaded with data to start communication with the host.
 887:Generated_Source\PSoC5/COM.c **** *
 888:Generated_Source\PSoC5/COM.c **** * \return
 889:Generated_Source\PSoC5/COM.c **** *  None-zero value when new configuration has been changed, otherwise zero is
 890:Generated_Source\PSoC5/COM.c **** *  returned.
 891:Generated_Source\PSoC5/COM.c **** *
 892:Generated_Source\PSoC5/COM.c **** * \globalvars
 893:Generated_Source\PSoC5/COM.c **** *
 894:Generated_Source\PSoC5/COM.c **** *  \ref COM_configurationChanged - This variable is set to 1 after
 895:Generated_Source\PSoC5/COM.c **** *   a SET_CONFIGURATION request and cleared in this function.
 896:Generated_Source\PSoC5/COM.c **** *
 897:Generated_Source\PSoC5/COM.c **** *******************************************************************************/
 898:Generated_Source\PSoC5/COM.c **** uint8 COM_IsConfigurationChanged(void) 
 899:Generated_Source\PSoC5/COM.c **** {
 664              		.loc 1 899 0
 665              		.cfi_startproc
 666              		@ args = 0, pretend = 0, frame = 0
 667              		@ frame_needed = 0, uses_anonymous_args = 0
 668              		@ link register save eliminated.
 669              	.LVL37:
 900:Generated_Source\PSoC5/COM.c ****     uint8 res = 0u;
 901:Generated_Source\PSoC5/COM.c **** 
 902:Generated_Source\PSoC5/COM.c ****     if (COM_configurationChanged != 0u)
 670              		.loc 1 902 0
 671 0000 064B     		ldr	r3, .L36
 672 0002 1B78     		ldrb	r3, [r3]	@ zero_extendqisi2
 673 0004 13F0FF0F 		tst	r3, #255
 674 0008 05D0     		beq	.L35
 903:Generated_Source\PSoC5/COM.c ****     {
 904:Generated_Source\PSoC5/COM.c ****         res = COM_configurationChanged;
 675              		.loc 1 904 0
 676 000a 044B     		ldr	r3, .L36
 677 000c 1878     		ldrb	r0, [r3]	@ zero_extendqisi2
 678 000e C0B2     		uxtb	r0, r0
 679              	.LVL38:
 905:Generated_Source\PSoC5/COM.c ****         COM_configurationChanged = 0u;
 680              		.loc 1 905 0
 681 0010 0022     		movs	r2, #0
 682 0012 1A70     		strb	r2, [r3]
 683 0014 7047     		bx	lr
 684              	.LVL39:
 685              	.L35:
 900:Generated_Source\PSoC5/COM.c ****     uint8 res = 0u;
ARM GAS  C:\Users\LUKASC~1\AppData\Local\Temp\ccb2ZD5o.s 			page 29


 686              		.loc 1 900 0
 687 0016 0020     		movs	r0, #0
 688              	.LVL40:
 906:Generated_Source\PSoC5/COM.c ****     }
 907:Generated_Source\PSoC5/COM.c **** 
 908:Generated_Source\PSoC5/COM.c ****     return (res);
 909:Generated_Source\PSoC5/COM.c **** }
 689              		.loc 1 909 0
 690 0018 7047     		bx	lr
 691              	.L37:
 692 001a 00BF     		.align	2
 693              	.L36:
 694 001c 00000000 		.word	COM_configurationChanged
 695              		.cfi_endproc
 696              	.LFE7:
 697              		.size	COM_IsConfigurationChanged, .-COM_IsConfigurationChanged
 698              		.section	.text.COM_GetInterfaceSetting,"ax",%progbits
 699              		.align	2
 700              		.global	COM_GetInterfaceSetting
 701              		.thumb
 702              		.thumb_func
 703              		.type	COM_GetInterfaceSetting, %function
 704              	COM_GetInterfaceSetting:
 705              	.LFB8:
 910:Generated_Source\PSoC5/COM.c **** 
 911:Generated_Source\PSoC5/COM.c **** 
 912:Generated_Source\PSoC5/COM.c **** /*******************************************************************************
 913:Generated_Source\PSoC5/COM.c **** * Function Name: COM_GetInterfaceSetting
 914:Generated_Source\PSoC5/COM.c **** ****************************************************************************//**
 915:Generated_Source\PSoC5/COM.c **** *
 916:Generated_Source\PSoC5/COM.c **** *  This function gets the current alternate setting for the specified interface.
 917:Generated_Source\PSoC5/COM.c **** *  It is useful to identify which alternate settings are active in the specified 
 918:Generated_Source\PSoC5/COM.c **** *  interface.
 919:Generated_Source\PSoC5/COM.c **** *
 920:Generated_Source\PSoC5/COM.c **** *  \param
 921:Generated_Source\PSoC5/COM.c **** *  interfaceNumber interface number
 922:Generated_Source\PSoC5/COM.c **** *
 923:Generated_Source\PSoC5/COM.c **** * \return
 924:Generated_Source\PSoC5/COM.c **** *  Returns the current alternate setting for the specified interface.
 925:Generated_Source\PSoC5/COM.c **** *
 926:Generated_Source\PSoC5/COM.c **** *******************************************************************************/
 927:Generated_Source\PSoC5/COM.c **** uint8  COM_GetInterfaceSetting(uint8 interfaceNumber)
 928:Generated_Source\PSoC5/COM.c ****                                                     
 929:Generated_Source\PSoC5/COM.c **** {
 706              		.loc 1 929 0
 707              		.cfi_startproc
 708              		@ args = 0, pretend = 0, frame = 0
 709              		@ frame_needed = 0, uses_anonymous_args = 0
 710              		@ link register save eliminated.
 711              	.LVL41:
 930:Generated_Source\PSoC5/COM.c ****     return (COM_interfaceSetting[interfaceNumber]);
 712              		.loc 1 930 0
 713 0000 014B     		ldr	r3, .L39
 714 0002 185C     		ldrb	r0, [r3, r0]	@ zero_extendqisi2
 715              	.LVL42:
 931:Generated_Source\PSoC5/COM.c **** }
 716              		.loc 1 931 0
ARM GAS  C:\Users\LUKASC~1\AppData\Local\Temp\ccb2ZD5o.s 			page 30


 717 0004 7047     		bx	lr
 718              	.L40:
 719 0006 00BF     		.align	2
 720              	.L39:
 721 0008 00000000 		.word	COM_interfaceSetting
 722              		.cfi_endproc
 723              	.LFE8:
 724              		.size	COM_GetInterfaceSetting, .-COM_GetInterfaceSetting
 725              		.section	.text.COM_GetEPState,"ax",%progbits
 726              		.align	2
 727              		.global	COM_GetEPState
 728              		.thumb
 729              		.thumb_func
 730              		.type	COM_GetEPState, %function
 731              	COM_GetEPState:
 732              	.LFB9:
 932:Generated_Source\PSoC5/COM.c **** 
 933:Generated_Source\PSoC5/COM.c **** 
 934:Generated_Source\PSoC5/COM.c **** /*******************************************************************************
 935:Generated_Source\PSoC5/COM.c **** * Function Name: COM_GetEPState
 936:Generated_Source\PSoC5/COM.c **** ****************************************************************************//**
 937:Generated_Source\PSoC5/COM.c **** *
 938:Generated_Source\PSoC5/COM.c **** *  This function returns the state of the requested endpoint.
 939:Generated_Source\PSoC5/COM.c **** *
 940:Generated_Source\PSoC5/COM.c **** * \param epNumber Data endpoint number
 941:Generated_Source\PSoC5/COM.c **** *
 942:Generated_Source\PSoC5/COM.c **** * \return
 943:Generated_Source\PSoC5/COM.c **** *  Returns the current state of the specified USBFS endpoint. Symbolic names and
 944:Generated_Source\PSoC5/COM.c **** *  their associated values are given in the following table. Use these constants
 945:Generated_Source\PSoC5/COM.c **** *  whenever you write code to change the state of the endpoints, such as ISR
 946:Generated_Source\PSoC5/COM.c **** *  code, to handle data sent or received.
 947:Generated_Source\PSoC5/COM.c **** *
 948:Generated_Source\PSoC5/COM.c **** *  Return Value           | Description
 949:Generated_Source\PSoC5/COM.c **** *  -----------------------|-----------------------------------------------------
 950:Generated_Source\PSoC5/COM.c **** *  USBFS_NO_EVENT_PENDING |The endpoint is awaiting SIE action
 951:Generated_Source\PSoC5/COM.c **** *  USBFS_EVENT_PENDING    |The endpoint is awaiting CPU action
 952:Generated_Source\PSoC5/COM.c **** *  USBFS_NO_EVENT_ALLOWED |The endpoint is locked from access
 953:Generated_Source\PSoC5/COM.c **** *  USBFS_IN_BUFFER_FULL   |The IN endpoint is loaded and the mode is set to ACK IN
 954:Generated_Source\PSoC5/COM.c **** *  USBFS_IN_BUFFER_EMPTY  |An IN transaction occurred and more data can be loaded
 955:Generated_Source\PSoC5/COM.c **** *  USBFS_OUT_BUFFER_EMPTY |The OUT endpoint is set to ACK OUT and is waiting for data
 956:Generated_Source\PSoC5/COM.c **** *  USBFS_OUT_BUFFER_FULL  |An OUT transaction has occurred and data can be read
 957:Generated_Source\PSoC5/COM.c **** *
 958:Generated_Source\PSoC5/COM.c **** *******************************************************************************/
 959:Generated_Source\PSoC5/COM.c **** uint8 COM_GetEPState(uint8 epNumber) 
 960:Generated_Source\PSoC5/COM.c **** {
 733              		.loc 1 960 0
 734              		.cfi_startproc
 735              		@ args = 0, pretend = 0, frame = 0
 736              		@ frame_needed = 0, uses_anonymous_args = 0
 737              		@ link register save eliminated.
 738              	.LVL43:
 961:Generated_Source\PSoC5/COM.c ****     return (COM_EP[epNumber].apiEpState);
 739              		.loc 1 961 0
 740 0000 00EB4000 		add	r0, r0, r0, lsl #1
 741              	.LVL44:
 742 0004 8000     		lsls	r0, r0, #2
 743 0006 024B     		ldr	r3, .L42
ARM GAS  C:\Users\LUKASC~1\AppData\Local\Temp\ccb2ZD5o.s 			page 31


 744 0008 1844     		add	r0, r0, r3
 745 000a 4078     		ldrb	r0, [r0, #1]	@ zero_extendqisi2
 962:Generated_Source\PSoC5/COM.c **** }
 746              		.loc 1 962 0
 747 000c 7047     		bx	lr
 748              	.L43:
 749 000e 00BF     		.align	2
 750              	.L42:
 751 0010 00000000 		.word	COM_EP
 752              		.cfi_endproc
 753              	.LFE9:
 754              		.size	COM_GetEPState, .-COM_GetEPState
 755              		.section	.text.COM_GetEPCount,"ax",%progbits
 756              		.align	2
 757              		.global	COM_GetEPCount
 758              		.thumb
 759              		.thumb_func
 760              		.type	COM_GetEPCount, %function
 761              	COM_GetEPCount:
 762              	.LFB10:
 963:Generated_Source\PSoC5/COM.c **** 
 964:Generated_Source\PSoC5/COM.c **** 
 965:Generated_Source\PSoC5/COM.c **** /*******************************************************************************
 966:Generated_Source\PSoC5/COM.c **** * Function Name: COM_GetEPCount
 967:Generated_Source\PSoC5/COM.c **** ****************************************************************************//**
 968:Generated_Source\PSoC5/COM.c **** *
 969:Generated_Source\PSoC5/COM.c **** *  This function supports Data Endpoints only(EP1-EP8).
 970:Generated_Source\PSoC5/COM.c **** *  Returns the transfer count for the requested endpoint.  The value from
 971:Generated_Source\PSoC5/COM.c **** *  the count registers includes 2 counts for the two byte checksum of the
 972:Generated_Source\PSoC5/COM.c **** *  packet.  This function subtracts the two counts.
 973:Generated_Source\PSoC5/COM.c **** *
 974:Generated_Source\PSoC5/COM.c **** *  \param epNumber Data Endpoint Number.
 975:Generated_Source\PSoC5/COM.c **** *                   Valid values are between 1 and 8.
 976:Generated_Source\PSoC5/COM.c **** *
 977:Generated_Source\PSoC5/COM.c **** * \return
 978:Generated_Source\PSoC5/COM.c **** *  Returns the current byte count from the specified endpoint or 0 for an
 979:Generated_Source\PSoC5/COM.c **** *  invalid endpoint.
 980:Generated_Source\PSoC5/COM.c **** *
 981:Generated_Source\PSoC5/COM.c **** *******************************************************************************/
 982:Generated_Source\PSoC5/COM.c **** uint16 COM_GetEPCount(uint8 epNumber) 
 983:Generated_Source\PSoC5/COM.c **** {
 763              		.loc 1 983 0
 764              		.cfi_startproc
 765              		@ args = 0, pretend = 0, frame = 0
 766              		@ frame_needed = 0, uses_anonymous_args = 0
 767              		@ link register save eliminated.
 768              	.LVL45:
 984:Generated_Source\PSoC5/COM.c ****     uint16 cntr = 0u;
 985:Generated_Source\PSoC5/COM.c **** 
 986:Generated_Source\PSoC5/COM.c ****     if ((epNumber > COM_EP0) && (epNumber < COM_MAX_EP))
 769              		.loc 1 986 0
 770 0000 431E     		subs	r3, r0, #1
 771 0002 DBB2     		uxtb	r3, r3
 772 0004 072B     		cmp	r3, #7
 773 0006 0BD8     		bhi	.L46
 987:Generated_Source\PSoC5/COM.c ****     {
 988:Generated_Source\PSoC5/COM.c ****         /* Get 11-bits EP counter where epCnt0 - 3 bits MSB and epCnt1 - 8 bits LSB. */
ARM GAS  C:\Users\LUKASC~1\AppData\Local\Temp\ccb2ZD5o.s 			page 32


 989:Generated_Source\PSoC5/COM.c ****         cntr  = ((uint16) COM_SIE_EP_BASE.sieEp[epNumber].epCnt0) & COM_EPX_CNT0_MASK;
 774              		.loc 1 989 0
 775 0008 064B     		ldr	r3, .L47
 776 000a 0001     		lsls	r0, r0, #4
 777              	.LVL46:
 778 000c 1A18     		adds	r2, r3, r0
 779 000e 185C     		ldrb	r0, [r3, r0]	@ zero_extendqisi2
 780 0010 00F00F00 		and	r0, r0, #15
 781              	.LVL47:
 990:Generated_Source\PSoC5/COM.c ****         cntr  = ((uint16) (cntr << 8u)) | ((uint16) COM_SIE_EP_BASE.sieEp[epNumber].epCnt1);
 782              		.loc 1 990 0
 783 0014 5378     		ldrb	r3, [r2, #1]	@ zero_extendqisi2
 784 0016 43EA0020 		orr	r0, r3, r0, lsl #8
 785              	.LVL48:
 991:Generated_Source\PSoC5/COM.c ****         cntr -= COM_EPX_CNTX_CRC_COUNT;
 786              		.loc 1 991 0
 787 001a 0238     		subs	r0, r0, #2
 788              	.LVL49:
 789 001c 80B2     		uxth	r0, r0
 790              	.LVL50:
 791 001e 7047     		bx	lr
 792              	.LVL51:
 793              	.L46:
 984:Generated_Source\PSoC5/COM.c **** 
 794              		.loc 1 984 0
 795 0020 0020     		movs	r0, #0
 796              	.LVL52:
 992:Generated_Source\PSoC5/COM.c ****     }
 993:Generated_Source\PSoC5/COM.c **** 
 994:Generated_Source\PSoC5/COM.c ****     return (cntr);
 995:Generated_Source\PSoC5/COM.c **** }
 797              		.loc 1 995 0
 798 0022 7047     		bx	lr
 799              	.L48:
 800              		.align	2
 801              	.L47:
 802 0024 FC5F0040 		.word	1073766396
 803              		.cfi_endproc
 804              	.LFE10:
 805              		.size	COM_GetEPCount, .-COM_GetEPCount
 806              		.section	.text.COM_LoadInEP,"ax",%progbits
 807              		.align	2
 808              		.global	COM_LoadInEP
 809              		.thumb
 810              		.thumb_func
 811              		.type	COM_LoadInEP, %function
 812              	COM_LoadInEP:
 813              	.LFB11:
 996:Generated_Source\PSoC5/COM.c **** 
 997:Generated_Source\PSoC5/COM.c **** 
 998:Generated_Source\PSoC5/COM.c **** #if (COM_EP_MANAGEMENT_DMA)
 999:Generated_Source\PSoC5/COM.c **** #if (CY_PSOC4)
1000:Generated_Source\PSoC5/COM.c ****     /*******************************************************************************
1001:Generated_Source\PSoC5/COM.c ****     * Function Name: COM_InitEpDma
1002:Generated_Source\PSoC5/COM.c ****     ****************************************************************************//**
1003:Generated_Source\PSoC5/COM.c ****     *
1004:Generated_Source\PSoC5/COM.c ****     *  This function configures priority for all DMA channels utilized by the
ARM GAS  C:\Users\LUKASC~1\AppData\Local\Temp\ccb2ZD5o.s 			page 33


1005:Generated_Source\PSoC5/COM.c ****     *  component. Also sets callbacks for DMA auto mode.
1006:Generated_Source\PSoC5/COM.c ****     *
1007:Generated_Source\PSoC5/COM.c ****     *******************************************************************************/
1008:Generated_Source\PSoC5/COM.c ****     static void COM_InitEpDma(void)
1009:Generated_Source\PSoC5/COM.c ****     {
1010:Generated_Source\PSoC5/COM.c ****     #if (COM_DMA1_ACTIVE)
1011:Generated_Source\PSoC5/COM.c ****         CYDMA_CH_CTL_BASE.ctl[COM_ep1_dma_CHANNEL] = COM_ep1_dma_CHANNEL_CFG;
1012:Generated_Source\PSoC5/COM.c ****     #endif /* (COM_DMA1_ACTIVE) */
1013:Generated_Source\PSoC5/COM.c **** 
1014:Generated_Source\PSoC5/COM.c ****     #if (COM_DMA2_ACTIVE)
1015:Generated_Source\PSoC5/COM.c ****         CYDMA_CH_CTL_BASE.ctl[COM_ep2_dma_CHANNEL] = COM_ep2_dma_CHANNEL_CFG;
1016:Generated_Source\PSoC5/COM.c ****     #endif /* (COM_DMA2_ACTIVE) */
1017:Generated_Source\PSoC5/COM.c **** 
1018:Generated_Source\PSoC5/COM.c ****     #if (COM_DMA3_ACTIVE)
1019:Generated_Source\PSoC5/COM.c ****         CYDMA_CH_CTL_BASE.ctl[COM_ep3_dma_CHANNEL] = COM_ep3_dma_CHANNEL_CFG;
1020:Generated_Source\PSoC5/COM.c ****     #endif /* (COM_DMA3_ACTIVE) */
1021:Generated_Source\PSoC5/COM.c **** 
1022:Generated_Source\PSoC5/COM.c ****     #if (COM_DMA4_ACTIVE)
1023:Generated_Source\PSoC5/COM.c ****         CYDMA_CH_CTL_BASE.ctl[COM_ep4_dma_CHANNEL] = COM_ep4_dma_CHANNEL_CFG;
1024:Generated_Source\PSoC5/COM.c ****     #endif /* (COM_DMA4_ACTIVE) */
1025:Generated_Source\PSoC5/COM.c **** 
1026:Generated_Source\PSoC5/COM.c ****     #if (COM_DMA5_ACTIVE)
1027:Generated_Source\PSoC5/COM.c ****         CYDMA_CH_CTL_BASE.ctl[COM_ep5_dma_CHANNEL] = COM_ep5_dma_CHANNEL_CFG;
1028:Generated_Source\PSoC5/COM.c ****     #endif /* (COM_DMA5_ACTIVE) */
1029:Generated_Source\PSoC5/COM.c **** 
1030:Generated_Source\PSoC5/COM.c ****     #if (COM_DMA6_ACTIVE)
1031:Generated_Source\PSoC5/COM.c ****         CYDMA_CH_CTL_BASE.ctl[COM_ep6_dma_CHANNEL] = COM_ep6_dma_CHANNEL_CFG;
1032:Generated_Source\PSoC5/COM.c ****     #endif /* (COM_DMA6_ACTIVE) */
1033:Generated_Source\PSoC5/COM.c **** 
1034:Generated_Source\PSoC5/COM.c ****     #if (COM_DMA7_ACTIVE)
1035:Generated_Source\PSoC5/COM.c ****         CYDMA_CH_CTL_BASE.ctl[COM_ep7_dma_CHANNEL] = COM_ep7_dma_CHANNEL_CFG;
1036:Generated_Source\PSoC5/COM.c ****     #endif /* (COM_DMA7_ACTIVE) */
1037:Generated_Source\PSoC5/COM.c **** 
1038:Generated_Source\PSoC5/COM.c ****     #if (COM_DMA8_ACTIVE)
1039:Generated_Source\PSoC5/COM.c ****         CYDMA_CH_CTL_BASE.ctl[COM_ep8_dma_CHANNEL] = COM_ep8_dma_CHANNEL_CFG;
1040:Generated_Source\PSoC5/COM.c ****     #endif /* (COM_DMA8_ACTIVE) */
1041:Generated_Source\PSoC5/COM.c **** 
1042:Generated_Source\PSoC5/COM.c ****     #if (COM_EP_MANAGEMENT_DMA_AUTO)
1043:Generated_Source\PSoC5/COM.c ****         /* Initialize DMA channel callbacks. */
1044:Generated_Source\PSoC5/COM.c ****         #if (COM_DMA1_ACTIVE)
1045:Generated_Source\PSoC5/COM.c ****             (void) COM_ep1_dma_SetInterruptCallback(&COM_EP1_DMA_DONE_ISR);
1046:Generated_Source\PSoC5/COM.c ****         #endif /* (COM_DMA1_ACTIVE) */
1047:Generated_Source\PSoC5/COM.c **** 
1048:Generated_Source\PSoC5/COM.c ****         #if (COM_DMA2_ACTIVE)
1049:Generated_Source\PSoC5/COM.c ****             (void) COM_ep2_dma_SetInterruptCallback(&COM_EP2_DMA_DONE_ISR);
1050:Generated_Source\PSoC5/COM.c ****         #endif /* (COM_DMA2_ACTIVE) */
1051:Generated_Source\PSoC5/COM.c **** 
1052:Generated_Source\PSoC5/COM.c ****         #if (COM_DMA3_ACTIVE)
1053:Generated_Source\PSoC5/COM.c ****             (void) COM_ep3_dma_SetInterruptCallback(&COM_EP3_DMA_DONE_ISR);
1054:Generated_Source\PSoC5/COM.c ****         #endif /* (COM_DMA3_ACTIVE) */
1055:Generated_Source\PSoC5/COM.c **** 
1056:Generated_Source\PSoC5/COM.c ****         #if (COM_DMA4_ACTIVE)
1057:Generated_Source\PSoC5/COM.c ****             (void) COM_ep4_dma_SetInterruptCallback(&COM_EP4_DMA_DONE_ISR);
1058:Generated_Source\PSoC5/COM.c ****         #endif /* (COM_DMA4_ACTIVE) */
1059:Generated_Source\PSoC5/COM.c **** 
1060:Generated_Source\PSoC5/COM.c ****         #if (COM_DMA5_ACTIVE)
1061:Generated_Source\PSoC5/COM.c ****             (void) COM_ep5_dma_SetInterruptCallback(&COM_EP5_DMA_DONE_ISR);
ARM GAS  C:\Users\LUKASC~1\AppData\Local\Temp\ccb2ZD5o.s 			page 34


1062:Generated_Source\PSoC5/COM.c ****         #endif /* (COM_DMA5_ACTIVE) */
1063:Generated_Source\PSoC5/COM.c **** 
1064:Generated_Source\PSoC5/COM.c ****         #if (COM_DMA6_ACTIVE)
1065:Generated_Source\PSoC5/COM.c ****             (void) COM_ep6_dma_SetInterruptCallback(&COM_EP6_DMA_DONE_ISR);
1066:Generated_Source\PSoC5/COM.c ****         #endif /* (COM_DMA6_ACTIVE) */
1067:Generated_Source\PSoC5/COM.c **** 
1068:Generated_Source\PSoC5/COM.c ****         #if (COM_DMA7_ACTIVE)
1069:Generated_Source\PSoC5/COM.c ****             (void) COM_ep7_dma_SetInterruptCallback(&COM_EP7_DMA_DONE_ISR);
1070:Generated_Source\PSoC5/COM.c ****         #endif /* (COM_DMA7_ACTIVE) */
1071:Generated_Source\PSoC5/COM.c **** 
1072:Generated_Source\PSoC5/COM.c ****         #if (COM_DMA8_ACTIVE)
1073:Generated_Source\PSoC5/COM.c ****             (void) COM_ep8_dma_SetInterruptCallback(&COM_EP8_DMA_DONE_ISR);
1074:Generated_Source\PSoC5/COM.c ****         #endif /* (COM_DMA8_ACTIVE) */
1075:Generated_Source\PSoC5/COM.c ****     #endif /* (COM_EP_MANAGEMENT_DMA_AUTO) */
1076:Generated_Source\PSoC5/COM.c ****     }
1077:Generated_Source\PSoC5/COM.c **** #else
1078:Generated_Source\PSoC5/COM.c **** 
1079:Generated_Source\PSoC5/COM.c **** 
1080:Generated_Source\PSoC5/COM.c ****     /***************************************************************************
1081:Generated_Source\PSoC5/COM.c ****     * Function Name: COM_InitEP_DMA
1082:Generated_Source\PSoC5/COM.c ****     ************************************************************************//**
1083:Generated_Source\PSoC5/COM.c ****     *
1084:Generated_Source\PSoC5/COM.c ****     *  This function allocates and initializes a DMA channel to be used by the
1085:Generated_Source\PSoC5/COM.c ****     *  COM_LoadInEP() or COM_ReadOutEP() APIs for data
1086:Generated_Source\PSoC5/COM.c ****     *  transfer. It is available when the Endpoint Memory Management parameter
1087:Generated_Source\PSoC5/COM.c ****     *  is set to DMA.
1088:Generated_Source\PSoC5/COM.c ****     *
1089:Generated_Source\PSoC5/COM.c ****     *  This function is automatically called from the USBFS_LoadInEP() and USBFS_ReadOutEP() APIs.
1090:Generated_Source\PSoC5/COM.c ****     *
1091:Generated_Source\PSoC5/COM.c ****     *  \param epNumber Contains the data endpoint number.
1092:Generated_Source\PSoC5/COM.c ****     *            Valid values are between 1 and 8.
1093:Generated_Source\PSoC5/COM.c ****     *  \param *pData Pointer to a data array that is related to the EP transfers.
1094:Generated_Source\PSoC5/COM.c ****     *
1095:Generated_Source\PSoC5/COM.c ****     * \reentrant No.
1096:Generated_Source\PSoC5/COM.c ****     *
1097:Generated_Source\PSoC5/COM.c ****     ***************************************************************************/
1098:Generated_Source\PSoC5/COM.c ****     void COM_InitEP_DMA(uint8 epNumber, const uint8 *pData)
1099:Generated_Source\PSoC5/COM.c ****                                                                     
1100:Generated_Source\PSoC5/COM.c ****     {
1101:Generated_Source\PSoC5/COM.c ****         uint16 src;
1102:Generated_Source\PSoC5/COM.c ****         uint16 dst;
1103:Generated_Source\PSoC5/COM.c **** 
1104:Generated_Source\PSoC5/COM.c ****     #if (CY_PSOC3)
1105:Generated_Source\PSoC5/COM.c ****         src = HI16(CYDEV_SRAM_BASE);
1106:Generated_Source\PSoC5/COM.c ****         dst = HI16(CYDEV_PERIPH_BASE);
1107:Generated_Source\PSoC5/COM.c ****         pData = pData;
1108:Generated_Source\PSoC5/COM.c ****     #else
1109:Generated_Source\PSoC5/COM.c ****         if ((COM_EP[epNumber].addr & COM_DIR_IN) != 0u)
1110:Generated_Source\PSoC5/COM.c ****         {
1111:Generated_Source\PSoC5/COM.c ****             /* IN endpoint: source is memory buffer. */
1112:Generated_Source\PSoC5/COM.c ****             src = HI16(pData);
1113:Generated_Source\PSoC5/COM.c ****             dst = HI16(CYDEV_PERIPH_BASE);
1114:Generated_Source\PSoC5/COM.c ****         }
1115:Generated_Source\PSoC5/COM.c ****         else
1116:Generated_Source\PSoC5/COM.c ****         {
1117:Generated_Source\PSoC5/COM.c ****             /* OUT endpoint: source is USB IP memory buffer. */
1118:Generated_Source\PSoC5/COM.c ****             src = HI16(CYDEV_PERIPH_BASE);
ARM GAS  C:\Users\LUKASC~1\AppData\Local\Temp\ccb2ZD5o.s 			page 35


1119:Generated_Source\PSoC5/COM.c ****             dst = HI16(pData);
1120:Generated_Source\PSoC5/COM.c ****         }
1121:Generated_Source\PSoC5/COM.c ****     #endif  /* (CY_PSOC3) */
1122:Generated_Source\PSoC5/COM.c **** 
1123:Generated_Source\PSoC5/COM.c ****         switch(epNumber)
1124:Generated_Source\PSoC5/COM.c ****         {
1125:Generated_Source\PSoC5/COM.c ****     #if (COM_DMA1_ACTIVE)
1126:Generated_Source\PSoC5/COM.c ****         case COM_EP1:
1127:Generated_Source\PSoC5/COM.c ****             COM_DmaChan[epNumber] = COM_ep1_DmaInitialize(COM_DMA_BYTES_PER_BURST,
1128:Generated_Source\PSoC5/COM.c ****                                                                                     COM_DMA_REQUEST
1129:Generated_Source\PSoC5/COM.c ****             break;
1130:Generated_Source\PSoC5/COM.c ****     #endif /* (COM_DMA1_ACTIVE) */
1131:Generated_Source\PSoC5/COM.c **** 
1132:Generated_Source\PSoC5/COM.c ****     #if (COM_DMA2_ACTIVE)
1133:Generated_Source\PSoC5/COM.c ****         case COM_EP2:
1134:Generated_Source\PSoC5/COM.c ****             COM_DmaChan[epNumber] = COM_ep2_DmaInitialize(COM_DMA_BYTES_PER_BURST,
1135:Generated_Source\PSoC5/COM.c ****                                                                                     COM_DMA_REQUEST
1136:Generated_Source\PSoC5/COM.c ****             break;
1137:Generated_Source\PSoC5/COM.c ****     #endif /* (COM_DMA2_ACTIVE) */
1138:Generated_Source\PSoC5/COM.c **** 
1139:Generated_Source\PSoC5/COM.c ****     #if (COM_DMA3_ACTIVE)
1140:Generated_Source\PSoC5/COM.c ****             case COM_EP3:
1141:Generated_Source\PSoC5/COM.c ****                 COM_DmaChan[epNumber] = COM_ep3_DmaInitialize(COM_DMA_BYTES_PER_BURST,
1142:Generated_Source\PSoC5/COM.c ****                                                                                         COM_DMA_REQ
1143:Generated_Source\PSoC5/COM.c ****             break;
1144:Generated_Source\PSoC5/COM.c ****     #endif /* (COM_DMA3_ACTIVE) */
1145:Generated_Source\PSoC5/COM.c **** 
1146:Generated_Source\PSoC5/COM.c ****     #if (COM_DMA4_ACTIVE)
1147:Generated_Source\PSoC5/COM.c ****             case COM_EP4:
1148:Generated_Source\PSoC5/COM.c ****                 COM_DmaChan[epNumber] = COM_ep4_DmaInitialize(COM_DMA_BYTES_PER_BURST,
1149:Generated_Source\PSoC5/COM.c ****                                                                                         COM_DMA_REQ
1150:Generated_Source\PSoC5/COM.c ****             break;
1151:Generated_Source\PSoC5/COM.c ****     #endif /* (COM_DMA4_ACTIVE) */
1152:Generated_Source\PSoC5/COM.c **** 
1153:Generated_Source\PSoC5/COM.c ****     #if (COM_DMA5_ACTIVE)
1154:Generated_Source\PSoC5/COM.c ****             case COM_EP5:
1155:Generated_Source\PSoC5/COM.c ****                 COM_DmaChan[epNumber] = COM_ep5_DmaInitialize(COM_DMA_BYTES_PER_BURST,
1156:Generated_Source\PSoC5/COM.c ****                                                                                         COM_DMA_REQ
1157:Generated_Source\PSoC5/COM.c ****             break;
1158:Generated_Source\PSoC5/COM.c ****     #endif /* (COM_DMA5_ACTIVE) */
1159:Generated_Source\PSoC5/COM.c **** 
1160:Generated_Source\PSoC5/COM.c ****     #if (COM_DMA6_ACTIVE)
1161:Generated_Source\PSoC5/COM.c ****         case COM_EP6:
1162:Generated_Source\PSoC5/COM.c ****             COM_DmaChan[epNumber] = COM_ep6_DmaInitialize(COM_DMA_BYTES_PER_BURST,
1163:Generated_Source\PSoC5/COM.c ****                                                                                     COM_DMA_REQUEST
1164:Generated_Source\PSoC5/COM.c ****             break;
1165:Generated_Source\PSoC5/COM.c ****     #endif /* (COM_DMA6_ACTIVE) */
1166:Generated_Source\PSoC5/COM.c **** 
1167:Generated_Source\PSoC5/COM.c ****     #if (COM_DMA7_ACTIVE)
1168:Generated_Source\PSoC5/COM.c ****         case COM_EP7:
1169:Generated_Source\PSoC5/COM.c ****                 COM_DmaChan[epNumber] = COM_ep7_DmaInitialize(COM_DMA_BYTES_PER_BURST,
1170:Generated_Source\PSoC5/COM.c ****                                                                                         COM_DMA_REQ
1171:Generated_Source\PSoC5/COM.c ****             break;
1172:Generated_Source\PSoC5/COM.c ****     #endif /* (COM_DMA7_ACTIVE) */
1173:Generated_Source\PSoC5/COM.c **** 
1174:Generated_Source\PSoC5/COM.c ****     #if (COM_DMA8_ACTIVE)
1175:Generated_Source\PSoC5/COM.c ****         case COM_EP8:
ARM GAS  C:\Users\LUKASC~1\AppData\Local\Temp\ccb2ZD5o.s 			page 36


1176:Generated_Source\PSoC5/COM.c ****                 COM_DmaChan[epNumber] = COM_ep8_DmaInitialize(COM_DMA_BYTES_PER_BURST,
1177:Generated_Source\PSoC5/COM.c ****                                                                                         COM_DMA_REQ
1178:Generated_Source\PSoC5/COM.c ****             break;
1179:Generated_Source\PSoC5/COM.c ****     #endif /* (COM_DMA8_ACTIVE) */
1180:Generated_Source\PSoC5/COM.c **** 
1181:Generated_Source\PSoC5/COM.c ****         default:
1182:Generated_Source\PSoC5/COM.c ****             /* Do nothing for endpoints other than 1-8. */
1183:Generated_Source\PSoC5/COM.c ****             break;
1184:Generated_Source\PSoC5/COM.c ****         }
1185:Generated_Source\PSoC5/COM.c **** 
1186:Generated_Source\PSoC5/COM.c ****         if ((epNumber > COM_EP0) && (epNumber < COM_MAX_EP))
1187:Generated_Source\PSoC5/COM.c ****         {
1188:Generated_Source\PSoC5/COM.c ****             COM_DmaTd[epNumber] = CyDmaTdAllocate();
1189:Generated_Source\PSoC5/COM.c **** 
1190:Generated_Source\PSoC5/COM.c ****         #if (COM_EP_MANAGEMENT_DMA_AUTO && (COM_EP_DMA_AUTO_OPT == 0u))
1191:Generated_Source\PSoC5/COM.c ****             COM_DmaNextTd[epNumber] = CyDmaTdAllocate();
1192:Generated_Source\PSoC5/COM.c ****         #endif /* (COM_EP_MANAGEMENT_DMA_AUTO && (COM_EP_DMA_AUTO_OPT == 0u)) */
1193:Generated_Source\PSoC5/COM.c ****         }
1194:Generated_Source\PSoC5/COM.c ****     }
1195:Generated_Source\PSoC5/COM.c **** #endif /* (CY_PSOC4) */
1196:Generated_Source\PSoC5/COM.c **** 
1197:Generated_Source\PSoC5/COM.c ****     /***************************************************************************
1198:Generated_Source\PSoC5/COM.c ****     * Function Name: COM_Stop_DMA
1199:Generated_Source\PSoC5/COM.c ****     ************************************************************************//**
1200:Generated_Source\PSoC5/COM.c ****     *  
1201:Generated_Source\PSoC5/COM.c ****     *  This function stops DMA channel associated with endpoint. It is available 
1202:Generated_Source\PSoC5/COM.c ****     *  when the Endpoint Buffer Management parameter is set to DMA. Call this 
1203:Generated_Source\PSoC5/COM.c ****     *  function when endpoint direction is changed from IN to OUT or vice versa 
1204:Generated_Source\PSoC5/COM.c ****     *  to trigger DMA re-configuration when COM_LoadInEP() or 
1205:Generated_Source\PSoC5/COM.c ****     *  COM_ReadOutEP() functions are called the first time. 
1206:Generated_Source\PSoC5/COM.c ****     *  
1207:Generated_Source\PSoC5/COM.c ****     *  \param epNumber: The data endpoint number for which associated DMA 
1208:Generated_Source\PSoC5/COM.c ****     *  channel is stopped. The range of valid values is between 1 and 8. To stop 
1209:Generated_Source\PSoC5/COM.c ****     *  all DMAs associated with endpoints call this function with 
1210:Generated_Source\PSoC5/COM.c ****     *  COM_MAX_EP argument.
1211:Generated_Source\PSoC5/COM.c ****     *
1212:Generated_Source\PSoC5/COM.c ****     * \reentrant
1213:Generated_Source\PSoC5/COM.c ****     *  No.
1214:Generated_Source\PSoC5/COM.c ****     *
1215:Generated_Source\PSoC5/COM.c ****     ***************************************************************************/
1216:Generated_Source\PSoC5/COM.c ****     void COM_Stop_DMA(uint8 epNumber) 
1217:Generated_Source\PSoC5/COM.c ****     {
1218:Generated_Source\PSoC5/COM.c ****         uint8 i;
1219:Generated_Source\PSoC5/COM.c **** 
1220:Generated_Source\PSoC5/COM.c ****         i = (epNumber < COM_MAX_EP) ? epNumber : COM_EP1;
1221:Generated_Source\PSoC5/COM.c **** 
1222:Generated_Source\PSoC5/COM.c ****         do
1223:Generated_Source\PSoC5/COM.c ****         {
1224:Generated_Source\PSoC5/COM.c ****         #if (CY_PSOC4)
1225:Generated_Source\PSoC5/COM.c ****             if (0u != COM_DmaChan[i])
1226:Generated_Source\PSoC5/COM.c ****             {
1227:Generated_Source\PSoC5/COM.c ****                 COM_CyDmaChDisable(COM_DmaChan[i]);
1228:Generated_Source\PSoC5/COM.c ****             }
1229:Generated_Source\PSoC5/COM.c ****         #else
1230:Generated_Source\PSoC5/COM.c ****             if(COM_DmaTd[i] != DMA_INVALID_TD)
1231:Generated_Source\PSoC5/COM.c ****             {
1232:Generated_Source\PSoC5/COM.c ****                 (void) CyDmaChDisable(COM_DmaChan[i]);
ARM GAS  C:\Users\LUKASC~1\AppData\Local\Temp\ccb2ZD5o.s 			page 37


1233:Generated_Source\PSoC5/COM.c ****                 CyDmaTdFree(COM_DmaTd[i]);
1234:Generated_Source\PSoC5/COM.c ****                 COM_DmaTd[i] = DMA_INVALID_TD;
1235:Generated_Source\PSoC5/COM.c ****             }
1236:Generated_Source\PSoC5/COM.c **** 
1237:Generated_Source\PSoC5/COM.c ****             #if (COM_EP_MANAGEMENT_DMA_AUTO && (COM_EP_DMA_AUTO_OPT == 0u))
1238:Generated_Source\PSoC5/COM.c ****                 if(COM_DmaNextTd[i] != DMA_INVALID_TD)
1239:Generated_Source\PSoC5/COM.c ****                 {
1240:Generated_Source\PSoC5/COM.c ****                     CyDmaTdFree(COM_DmaNextTd[i]);
1241:Generated_Source\PSoC5/COM.c ****                     COM_DmaNextTd[i] = DMA_INVALID_TD;
1242:Generated_Source\PSoC5/COM.c ****                 }
1243:Generated_Source\PSoC5/COM.c ****             #endif /* (COM_EP_MANAGEMENT_DMA_AUTO && (COM_EP_DMA_AUTO_OPT == 0u)) */
1244:Generated_Source\PSoC5/COM.c **** 
1245:Generated_Source\PSoC5/COM.c ****         #endif /* (CY_PSOC4) */
1246:Generated_Source\PSoC5/COM.c ****             i++;
1247:Generated_Source\PSoC5/COM.c ****         }
1248:Generated_Source\PSoC5/COM.c ****         while ((i < COM_MAX_EP) && (epNumber == COM_MAX_EP));
1249:Generated_Source\PSoC5/COM.c ****     }
1250:Generated_Source\PSoC5/COM.c **** #endif /* (COM_EP_MANAGEMENT_DMA) */
1251:Generated_Source\PSoC5/COM.c **** 
1252:Generated_Source\PSoC5/COM.c **** 
1253:Generated_Source\PSoC5/COM.c **** #if (CY_PSOC3 || CY_PSOC5)
1254:Generated_Source\PSoC5/COM.c **** #if (COM_EP_MANAGEMENT_DMA_AUTO && (COM_EP_DMA_AUTO_OPT == 0u))
1255:Generated_Source\PSoC5/COM.c ****     /***************************************************************************
1256:Generated_Source\PSoC5/COM.c ****     * Function Name: COM_LoadNextInEP
1257:Generated_Source\PSoC5/COM.c ****     ************************************************************************//**
1258:Generated_Source\PSoC5/COM.c ****     *
1259:Generated_Source\PSoC5/COM.c ****     * Summary:
1260:Generated_Source\PSoC5/COM.c ****     *  This internal function is used for IN endpoint DMA reconfiguration in
1261:Generated_Source\PSoC5/COM.c ****     *  Auto DMA mode.
1262:Generated_Source\PSoC5/COM.c ****     *
1263:Generated_Source\PSoC5/COM.c ****     * Parameters:
1264:Generated_Source\PSoC5/COM.c ****     *  epNumber: Contains the data endpoint number.
1265:Generated_Source\PSoC5/COM.c ****     *  mode:   0 - Configure DMA to send the the rest of data.
1266:Generated_Source\PSoC5/COM.c ****     *          1 - Configure DMA to repeat 2 last bytes of the first burst.
1267:Generated_Source\PSoC5/COM.c ****     *
1268:Generated_Source\PSoC5/COM.c ****     ***************************************************************************/
1269:Generated_Source\PSoC5/COM.c ****     void COM_LoadNextInEP(uint8 epNumber, uint8 mode) 
1270:Generated_Source\PSoC5/COM.c ****     {
1271:Generated_Source\PSoC5/COM.c ****         reg16 *convert;
1272:Generated_Source\PSoC5/COM.c **** 
1273:Generated_Source\PSoC5/COM.c ****         if (mode == 0u)
1274:Generated_Source\PSoC5/COM.c ****         {
1275:Generated_Source\PSoC5/COM.c ****             /* Configure DMA to send rest of data. */
1276:Generated_Source\PSoC5/COM.c ****             /* CyDmaTdSetConfiguration API is optimized to change transfer length only and configur
1277:Generated_Source\PSoC5/COM.c ****             convert = (reg16 *) &CY_DMA_TDMEM_STRUCT_PTR[COM_DmaTd[epNumber]].TD0[0u];
1278:Generated_Source\PSoC5/COM.c ****             /* Set transfer length. */
1279:Generated_Source\PSoC5/COM.c ****             CY_SET_REG16(convert, COM_inLength[epNumber] - COM_DMA_BYTES_PER_BURST);
1280:Generated_Source\PSoC5/COM.c ****             /* CyDmaTdSetAddress API is optimized to change source address only. */
1281:Generated_Source\PSoC5/COM.c ****             convert = (reg16 *) &CY_DMA_TDMEM_STRUCT_PTR[COM_DmaTd[epNumber]].TD1[0u];
1282:Generated_Source\PSoC5/COM.c ****             CY_SET_REG16(convert, LO16((uint32)COM_inDataPointer[epNumber] +
1283:Generated_Source\PSoC5/COM.c ****                                             COM_DMA_BYTES_PER_BURST));
1284:Generated_Source\PSoC5/COM.c ****             COM_inBufFull[epNumber] = 1u;
1285:Generated_Source\PSoC5/COM.c ****         }
1286:Generated_Source\PSoC5/COM.c ****         else
1287:Generated_Source\PSoC5/COM.c ****         {
1288:Generated_Source\PSoC5/COM.c ****             /* Configure DMA to repeat 2 last bytes of the first burst. */
1289:Generated_Source\PSoC5/COM.c ****             /* CyDmaTdSetConfiguration API is optimized to change transfer length only and configur
ARM GAS  C:\Users\LUKASC~1\AppData\Local\Temp\ccb2ZD5o.s 			page 38


1290:Generated_Source\PSoC5/COM.c ****             convert = (reg16 *) &CY_DMA_TDMEM_STRUCT_PTR[COM_DmaTd[epNumber]].TD0[0u];
1291:Generated_Source\PSoC5/COM.c ****             /* Set transfer length. */
1292:Generated_Source\PSoC5/COM.c ****             CY_SET_REG16(convert, COM_DMA_BYTES_REPEAT);
1293:Generated_Source\PSoC5/COM.c ****             /* CyDmaTdSetAddress API is optimized to change source address only. */
1294:Generated_Source\PSoC5/COM.c ****             convert = (reg16 *) &CY_DMA_TDMEM_STRUCT_PTR[COM_DmaTd[epNumber]].TD1[0u];
1295:Generated_Source\PSoC5/COM.c ****             CY_SET_REG16(convert,  LO16((uint32)COM_inDataPointer[epNumber] +
1296:Generated_Source\PSoC5/COM.c ****                                    (COM_DMA_BYTES_PER_BURST - COM_DMA_BYTES_REPEAT)));
1297:Generated_Source\PSoC5/COM.c ****         }
1298:Generated_Source\PSoC5/COM.c **** 
1299:Generated_Source\PSoC5/COM.c ****         /* CyDmaChSetInitialTd API is optimized to initialize TD. */
1300:Generated_Source\PSoC5/COM.c ****         CY_DMA_CH_STRUCT_PTR[COM_DmaChan[epNumber]].basic_status[1u] = COM_DmaTd[epNumber];
1301:Generated_Source\PSoC5/COM.c ****     }
1302:Generated_Source\PSoC5/COM.c **** #endif /* (COM_EP_MANAGEMENT_DMA_AUTO && (COM_EP_DMA_AUTO_OPT == 0u)) */
1303:Generated_Source\PSoC5/COM.c **** #endif /* (CY_PSOC3 || CY_PSOC5) */
1304:Generated_Source\PSoC5/COM.c **** 
1305:Generated_Source\PSoC5/COM.c **** 
1306:Generated_Source\PSoC5/COM.c **** /*******************************************************************************
1307:Generated_Source\PSoC5/COM.c **** * Function Name: COM_LoadInEP
1308:Generated_Source\PSoC5/COM.c **** ****************************************************************************//**
1309:Generated_Source\PSoC5/COM.c **** *
1310:Generated_Source\PSoC5/COM.c **** *  This function performs different functionality depending on the Component’s
1311:Generated_Source\PSoC5/COM.c **** *  configured Endpoint Buffer Management. This parameter is defined in
1312:Generated_Source\PSoC5/COM.c **** *  the Descriptor Root in Component Configure window.
1313:Generated_Source\PSoC5/COM.c **** *
1314:Generated_Source\PSoC5/COM.c **** *  *Manual (Static/Dynamic Allocation):*
1315:Generated_Source\PSoC5/COM.c **** *  This function loads and enables the specified USB data endpoint for an IN
1316:Generated_Source\PSoC5/COM.c **** *  data transfer.
1317:Generated_Source\PSoC5/COM.c **** *
1318:Generated_Source\PSoC5/COM.c **** *  *DMA with Manual Buffer Management:*
1319:Generated_Source\PSoC5/COM.c **** *  Configures DMA for a data transfer from system RAM to endpoint buffer.
1320:Generated_Source\PSoC5/COM.c **** *  Generates request for a transfer.
1321:Generated_Source\PSoC5/COM.c **** *
1322:Generated_Source\PSoC5/COM.c **** *  *DMA with Automatic Buffer Management:*
1323:Generated_Source\PSoC5/COM.c **** *  Configures DMA. This is required only once, so it is done only when parameter
1324:Generated_Source\PSoC5/COM.c **** *  pData is not NULL. When the pData pointer is NULL, the function skips this
1325:Generated_Source\PSoC5/COM.c **** *  task. Sets Data ready status: This generates the first DMA transfer and
1326:Generated_Source\PSoC5/COM.c **** *  prepares data in endpoint buffer.
1327:Generated_Source\PSoC5/COM.c **** *
1328:Generated_Source\PSoC5/COM.c **** *  \param epNumber Contains the data endpoint number.
1329:Generated_Source\PSoC5/COM.c **** *            Valid values are between 1 and 8.
1330:Generated_Source\PSoC5/COM.c **** *  \param *pData A pointer to a data array from which the data for the endpoint space
1331:Generated_Source\PSoC5/COM.c **** *          is loaded.
1332:Generated_Source\PSoC5/COM.c **** *  \param length The number of bytes to transfer from the array and then send as
1333:Generated_Source\PSoC5/COM.c **** *          a result of an IN request. Valid values are between 0 and 512
1334:Generated_Source\PSoC5/COM.c **** *          (1023 for DMA with Automatic Buffer Management mode). The value 512
1335:Generated_Source\PSoC5/COM.c **** *          is applicable if only one endpoint is used.
1336:Generated_Source\PSoC5/COM.c **** *
1337:Generated_Source\PSoC5/COM.c **** *
1338:Generated_Source\PSoC5/COM.c **** * \reentrant
1339:Generated_Source\PSoC5/COM.c **** *  No.
1340:Generated_Source\PSoC5/COM.c **** *
1341:Generated_Source\PSoC5/COM.c **** *******************************************************************************/
1342:Generated_Source\PSoC5/COM.c **** void COM_LoadInEP(uint8 epNumber, const uint8 pData[], uint16 length)
1343:Generated_Source\PSoC5/COM.c ****                                                                         
1344:Generated_Source\PSoC5/COM.c **** {
 814              		.loc 1 1344 0
 815              		.cfi_startproc
ARM GAS  C:\Users\LUKASC~1\AppData\Local\Temp\ccb2ZD5o.s 			page 39


 816              		@ args = 0, pretend = 0, frame = 0
 817              		@ frame_needed = 0, uses_anonymous_args = 0
 818              		@ link register save eliminated.
 819              	.LVL53:
1345:Generated_Source\PSoC5/COM.c ****     if ((epNumber > COM_EP0) && (epNumber < COM_MAX_EP))
 820              		.loc 1 1345 0
 821 0000 431E     		subs	r3, r0, #1
 822 0002 DBB2     		uxtb	r3, r3
 823 0004 072B     		cmp	r3, #7
 824 0006 3BD8     		bhi	.L58
1344:Generated_Source\PSoC5/COM.c ****     if ((epNumber > COM_EP0) && (epNumber < COM_MAX_EP))
 825              		.loc 1 1344 0
 826 0008 F0B4     		push	{r4, r5, r6, r7}
 827              		.cfi_def_cfa_offset 16
 828              		.cfi_offset 4, -16
 829              		.cfi_offset 5, -12
 830              		.cfi_offset 6, -8
 831              		.cfi_offset 7, -4
1346:Generated_Source\PSoC5/COM.c ****     {
1347:Generated_Source\PSoC5/COM.c ****     #if (!COM_EP_MANAGEMENT_DMA_AUTO)
1348:Generated_Source\PSoC5/COM.c ****         /* Limit length to available buffer USB IP buffer size.*/
1349:Generated_Source\PSoC5/COM.c ****         if (length > (COM_EPX_DATA_BUF_MAX - COM_EP[epNumber].buffOffset))
 832              		.loc 1 1349 0
 833 000a 0746     		mov	r7, r0
 834 000c 00EB4003 		add	r3, r0, r0, lsl #1
 835 0010 9B00     		lsls	r3, r3, #2
 836 0012 1C4C     		ldr	r4, .L59
 837 0014 2344     		add	r3, r3, r4
 838 0016 DB88     		ldrh	r3, [r3, #6]
 839 0018 9BB2     		uxth	r3, r3
 840 001a C3F50073 		rsb	r3, r3, #512
 841 001e 9A42     		cmp	r2, r3
 842 0020 07D9     		bls	.L51
1350:Generated_Source\PSoC5/COM.c ****         {
1351:Generated_Source\PSoC5/COM.c ****             length = COM_EPX_DATA_BUF_MAX - COM_EP[epNumber].buffOffset;
 843              		.loc 1 1351 0
 844 0022 00EB4003 		add	r3, r0, r0, lsl #1
 845 0026 9B00     		lsls	r3, r3, #2
 846 0028 2344     		add	r3, r3, r4
 847 002a DA88     		ldrh	r2, [r3, #6]
 848              	.LVL54:
 849 002c C2F50072 		rsb	r2, r2, #512
 850 0030 92B2     		uxth	r2, r2
 851              	.LVL55:
 852              	.L51:
1352:Generated_Source\PSoC5/COM.c ****         }
1353:Generated_Source\PSoC5/COM.c ****     #endif /* (!COM_EP_MANAGEMENT_DMA_AUTO) */
1354:Generated_Source\PSoC5/COM.c **** 
1355:Generated_Source\PSoC5/COM.c ****         /* Set count and data toggle. */
1356:Generated_Source\PSoC5/COM.c ****         COM_SIE_EP_BASE.sieEp[epNumber].epCnt0 = (uint8) HI8(length) | COM_EP[epNumber].epToggle;
 853              		.loc 1 1356 0
 854 0032 00EB4003 		add	r3, r0, r0, lsl #1
 855 0036 9B00     		lsls	r3, r3, #2
 856 0038 124C     		ldr	r4, .L59
 857 003a 2344     		add	r3, r3, r4
 858 003c DB78     		ldrb	r3, [r3, #3]	@ zero_extendqisi2
 859 003e 43EA1223 		orr	r3, r3, r2, lsr #8
ARM GAS  C:\Users\LUKASC~1\AppData\Local\Temp\ccb2ZD5o.s 			page 40


 860 0042 114D     		ldr	r5, .L59+4
 861 0044 0401     		lsls	r4, r0, #4
 862 0046 2E19     		adds	r6, r5, r4
 863 0048 2B55     		strb	r3, [r5, r4]
1357:Generated_Source\PSoC5/COM.c ****         COM_SIE_EP_BASE.sieEp[epNumber].epCnt1 = (uint8) LO8(length);
 864              		.loc 1 1357 0
 865 004a D3B2     		uxtb	r3, r2
 866 004c 7370     		strb	r3, [r6, #1]
1358:Generated_Source\PSoC5/COM.c **** 
1359:Generated_Source\PSoC5/COM.c ****     #if (COM_EP_MANAGEMENT_MANUAL)
1360:Generated_Source\PSoC5/COM.c ****         if (NULL != pData)
 867              		.loc 1 1360 0
 868 004e 39B9     		cbnz	r1, .L55
 869              	.LBB2:
 870 0050 09E0     		b	.L53
 871              	.LVL56:
 872              	.L54:
1361:Generated_Source\PSoC5/COM.c ****         {
1362:Generated_Source\PSoC5/COM.c **** 			/* Copy data using arbiter data register. */
1363:Generated_Source\PSoC5/COM.c ****             uint16 i;
1364:Generated_Source\PSoC5/COM.c ****             for (i = 0u; i < length; ++i)
1365:Generated_Source\PSoC5/COM.c ****             {
1366:Generated_Source\PSoC5/COM.c ****                 COM_ARB_EP_BASE.arbEp[epNumber].rwDr = pData[i];
 873              		.loc 1 1366 0 discriminator 3
 874 0052 CE5C     		ldrb	r6, [r1, r3]	@ zero_extendqisi2
 875 0054 3D01     		lsls	r5, r7, #4
 876 0056 0D4C     		ldr	r4, .L59+8
 877 0058 6655     		strb	r6, [r4, r5]
1364:Generated_Source\PSoC5/COM.c ****             {
 878              		.loc 1 1364 0 discriminator 3
 879 005a 0133     		adds	r3, r3, #1
 880              	.LVL57:
 881 005c 9BB2     		uxth	r3, r3
 882              	.LVL58:
 883 005e 00E0     		b	.L52
 884              	.LVL59:
 885              	.L55:
 886              	.LBE2:
 887 0060 0023     		movs	r3, #0
 888              	.L52:
 889              	.LVL60:
 890              	.LBB3:
1364:Generated_Source\PSoC5/COM.c ****             {
 891              		.loc 1 1364 0 is_stmt 0 discriminator 1
 892 0062 9342     		cmp	r3, r2
 893 0064 F5D3     		bcc	.L54
 894              	.LVL61:
 895              	.L53:
 896              	.LBE3:
1367:Generated_Source\PSoC5/COM.c ****             }
1368:Generated_Source\PSoC5/COM.c ****         }
1369:Generated_Source\PSoC5/COM.c **** 
1370:Generated_Source\PSoC5/COM.c ****         /* IN endpoint buffer is full - read to be read. */
1371:Generated_Source\PSoC5/COM.c ****         COM_EP[epNumber].apiEpState = COM_NO_EVENT_PENDING;
 897              		.loc 1 1371 0 is_stmt 1
 898 0066 4300     		lsls	r3, r0, #1
 899 0068 0344     		add	r3, r3, r0
ARM GAS  C:\Users\LUKASC~1\AppData\Local\Temp\ccb2ZD5o.s 			page 41


 900 006a 9B00     		lsls	r3, r3, #2
 901 006c 054A     		ldr	r2, .L59
 902              	.LVL62:
 903 006e 1344     		add	r3, r3, r2
 904 0070 0022     		movs	r2, #0
 905 0072 5A70     		strb	r2, [r3, #1]
1372:Generated_Source\PSoC5/COM.c **** 
1373:Generated_Source\PSoC5/COM.c ****         /* Arm IN endpoint. */
1374:Generated_Source\PSoC5/COM.c ****         COM_SIE_EP_BASE.sieEp[epNumber].epCr0 = COM_EP[epNumber].epMode;
 906              		.loc 1 1374 0
 907 0074 5A79     		ldrb	r2, [r3, #5]	@ zero_extendqisi2
 908 0076 D2B2     		uxtb	r2, r2
 909 0078 0001     		lsls	r0, r0, #4
 910              	.LVL63:
 911 007a 054B     		ldr	r3, .L59+12
 912 007c 1A54     		strb	r2, [r3, r0]
1375:Generated_Source\PSoC5/COM.c **** 
1376:Generated_Source\PSoC5/COM.c ****     #else
1377:Generated_Source\PSoC5/COM.c **** 
1378:Generated_Source\PSoC5/COM.c ****         #if (CY_PSOC3 || CY_PSOC5LP)
1379:Generated_Source\PSoC5/COM.c ****             /* Initialize DMA if it was not initialized. */
1380:Generated_Source\PSoC5/COM.c ****             if (DMA_INVALID_TD == COM_DmaTd[epNumber])
1381:Generated_Source\PSoC5/COM.c ****             {
1382:Generated_Source\PSoC5/COM.c ****                 COM_InitEP_DMA(epNumber, pData);
1383:Generated_Source\PSoC5/COM.c ****             }
1384:Generated_Source\PSoC5/COM.c ****         #endif /* (CY_PSOC3 || CY_PSOC5LP) */
1385:Generated_Source\PSoC5/COM.c **** 
1386:Generated_Source\PSoC5/COM.c ****         #if (COM_EP_MANAGEMENT_DMA_MANUAL)
1387:Generated_Source\PSoC5/COM.c ****             /* IN endpoint buffer will be fully loaded by DMA shortly. */
1388:Generated_Source\PSoC5/COM.c ****             COM_EP[epNumber].apiEpState = COM_NO_EVENT_PENDING;
1389:Generated_Source\PSoC5/COM.c **** 
1390:Generated_Source\PSoC5/COM.c ****             if ((pData != NULL) && (length > 0u))
1391:Generated_Source\PSoC5/COM.c ****             {
1392:Generated_Source\PSoC5/COM.c ****             #if (CY_PSOC4)
1393:Generated_Source\PSoC5/COM.c ****                 uint32 channelNum = (uint32) COM_DmaChan[epNumber];
1394:Generated_Source\PSoC5/COM.c **** 
1395:Generated_Source\PSoC5/COM.c ****                 /* Disable DMA channel: start configuration. */
1396:Generated_Source\PSoC5/COM.c ****                 COM_CyDmaChDisable(channelNum);
1397:Generated_Source\PSoC5/COM.c **** 
1398:Generated_Source\PSoC5/COM.c ****                 /* Configure source and destination. */
1399:Generated_Source\PSoC5/COM.c ****                 COM_CyDmaSetSrcAddress(channelNum, COM_DMA_DESCR0, (void*) pData);
1400:Generated_Source\PSoC5/COM.c ****                 COM_CyDmaSetDstAddress(channelNum, COM_DMA_DESCR0, (void*) &COM_ARB_EP_BASE.arbEp[e
1401:Generated_Source\PSoC5/COM.c **** 
1402:Generated_Source\PSoC5/COM.c ****                 /* Configure DMA descriptor. */
1403:Generated_Source\PSoC5/COM.c ****                 --length;
1404:Generated_Source\PSoC5/COM.c ****                 COM_CyDmaSetConfiguration(channelNum, COM_DMA_DESCR0, COM_DMA_COMMON_CFG | length |
1405:Generated_Source\PSoC5/COM.c ****                                                         CYDMA_BYTE | CYDMA_ELEMENT_WORD | CYDMA_INC
1406:Generated_Source\PSoC5/COM.c **** 
1407:Generated_Source\PSoC5/COM.c ****                 /* Validate descriptor to execute on following DMA request. */
1408:Generated_Source\PSoC5/COM.c ****                 COM_CyDmaValidateDescriptor(channelNum, COM_DMA_DESCR0);
1409:Generated_Source\PSoC5/COM.c **** 
1410:Generated_Source\PSoC5/COM.c ****                 /* Enable DMA channel: configuration complete. */
1411:Generated_Source\PSoC5/COM.c ****                 COM_CyDmaChEnable(channelNum);
1412:Generated_Source\PSoC5/COM.c ****             #else
1413:Generated_Source\PSoC5/COM.c ****                 /* Configure DMA to transfer data. */
1414:Generated_Source\PSoC5/COM.c ****                 (void) CyDmaChDisable(COM_DmaChan[epNumber]);
1415:Generated_Source\PSoC5/COM.c ****                 (void) CyDmaTdSetConfiguration(COM_DmaTd[epNumber], length, CY_DMA_DISABLE_TD, TD_T
ARM GAS  C:\Users\LUKASC~1\AppData\Local\Temp\ccb2ZD5o.s 			page 42


1416:Generated_Source\PSoC5/COM.c ****                 (void) CyDmaTdSetAddress(COM_DmaTd[epNumber], LO16((uint32) pData), LO16((uint32) &
1417:Generated_Source\PSoC5/COM.c **** 
1418:Generated_Source\PSoC5/COM.c ****                 /* Enable DMA channel. */
1419:Generated_Source\PSoC5/COM.c ****                 (void) CyDmaChSetInitialTd(COM_DmaChan[epNumber], COM_DmaTd[epNumber]);
1420:Generated_Source\PSoC5/COM.c ****                 (void) CyDmaChEnable(COM_DmaChan[epNumber], 1u);
1421:Generated_Source\PSoC5/COM.c ****             #endif /* (CY_PSOC4) */
1422:Generated_Source\PSoC5/COM.c **** 
1423:Generated_Source\PSoC5/COM.c ****                 /* Generate DMA request. */
1424:Generated_Source\PSoC5/COM.c ****                 COM_ARB_EP_BASE.arbEp[epNumber].epCfg |=  (uint8)  COM_ARB_EPX_CFG_DMA_REQ;
1425:Generated_Source\PSoC5/COM.c ****                 COM_ARB_EP_BASE.arbEp[epNumber].epCfg &=  (uint8) ~COM_ARB_EPX_CFG_DMA_REQ;
1426:Generated_Source\PSoC5/COM.c **** 
1427:Generated_Source\PSoC5/COM.c ****                 /* IN endpoint will be armed in ARB_ISR(source: IN_BUF_FULL) after first DMA transf
1428:Generated_Source\PSoC5/COM.c ****             }
1429:Generated_Source\PSoC5/COM.c ****             else
1430:Generated_Source\PSoC5/COM.c ****             {
1431:Generated_Source\PSoC5/COM.c ****                 /* When zero-length packet: arm IN endpoint directly. */
1432:Generated_Source\PSoC5/COM.c ****                 COM_SIE_EP_BASE.sieEp[epNumber].epCr0 = COM_EP[epNumber].epMode;
1433:Generated_Source\PSoC5/COM.c ****             }
1434:Generated_Source\PSoC5/COM.c ****         #endif /* (COM_EP_MANAGEMENT_DMA_MANUAL) */
1435:Generated_Source\PSoC5/COM.c **** 
1436:Generated_Source\PSoC5/COM.c ****         #if (COM_EP_MANAGEMENT_DMA_AUTO)
1437:Generated_Source\PSoC5/COM.c ****             if (pData != NULL)
1438:Generated_Source\PSoC5/COM.c ****             {
1439:Generated_Source\PSoC5/COM.c ****             #if (CY_PSOC4)
1440:Generated_Source\PSoC5/COM.c ****                 uint32 channelNum = (uint32) COM_DmaChan[epNumber];
1441:Generated_Source\PSoC5/COM.c **** 
1442:Generated_Source\PSoC5/COM.c ****                 /* Store address of buffer. */
1443:Generated_Source\PSoC5/COM.c ****                 COM_DmaEpBufferAddrBackup[epNumber] = (uint32) pData;
1444:Generated_Source\PSoC5/COM.c **** 
1445:Generated_Source\PSoC5/COM.c ****                 /* Disable DMA channel: start configuration. */
1446:Generated_Source\PSoC5/COM.c ****                 COM_CyDmaChDisable(channelNum);
1447:Generated_Source\PSoC5/COM.c **** 
1448:Generated_Source\PSoC5/COM.c ****                 /* Set destination address. */
1449:Generated_Source\PSoC5/COM.c ****                 COM_CyDmaSetDstAddress(channelNum, COM_DMA_DESCR0, (void*) &COM_ARB_EP_BASE.arbEp[e
1450:Generated_Source\PSoC5/COM.c ****                 COM_CyDmaSetDstAddress(channelNum, COM_DMA_DESCR1, (void*) &COM_ARB_EP_BASE.arbEp[e
1451:Generated_Source\PSoC5/COM.c **** 
1452:Generated_Source\PSoC5/COM.c ****                 /* Configure DMA descriptor. */
1453:Generated_Source\PSoC5/COM.c ****                 COM_CyDmaSetConfiguration(channelNum, COM_DMA_DESCR0, COM_DMA_COMMON_CFG  |
1454:Generated_Source\PSoC5/COM.c ****                                                         CYDMA_BYTE | CYDMA_ELEMENT_WORD | CYDMA_INC
1455:Generated_Source\PSoC5/COM.c **** 
1456:Generated_Source\PSoC5/COM.c ****                 /* Configure DMA descriptor. */
1457:Generated_Source\PSoC5/COM.c ****                 COM_CyDmaSetConfiguration(channelNum, COM_DMA_DESCR1, COM_DMA_COMMON_CFG  |
1458:Generated_Source\PSoC5/COM.c ****                                                         CYDMA_BYTE | CYDMA_ELEMENT_WORD | CYDMA_INC
1459:Generated_Source\PSoC5/COM.c **** 
1460:Generated_Source\PSoC5/COM.c ****                 /* Enable interrupt from DMA channel. */
1461:Generated_Source\PSoC5/COM.c ****                 COM_CyDmaSetInterruptMask(channelNum);
1462:Generated_Source\PSoC5/COM.c **** 
1463:Generated_Source\PSoC5/COM.c **** 
1464:Generated_Source\PSoC5/COM.c ****                 /* Enable DMA channel: configuration complete. */
1465:Generated_Source\PSoC5/COM.c ****                 COM_CyDmaChEnable(channelNum);
1466:Generated_Source\PSoC5/COM.c **** 
1467:Generated_Source\PSoC5/COM.c ****             #else
1468:Generated_Source\PSoC5/COM.c ****                 (void) CyDmaChDisable(COM_DmaChan[epNumber]);
1469:Generated_Source\PSoC5/COM.c **** 
1470:Generated_Source\PSoC5/COM.c ****                 #if (COM_EP_DMA_AUTO_OPT == 0u)
1471:Generated_Source\PSoC5/COM.c ****                     COM_inLength[epNumber] = length;
1472:Generated_Source\PSoC5/COM.c ****                     COM_inDataPointer[epNumber] = pData;
ARM GAS  C:\Users\LUKASC~1\AppData\Local\Temp\ccb2ZD5o.s 			page 43


1473:Generated_Source\PSoC5/COM.c **** 
1474:Generated_Source\PSoC5/COM.c ****                     /* Configure DMA to send data only for first burst */
1475:Generated_Source\PSoC5/COM.c ****                     (void) CyDmaTdSetConfiguration(COM_DmaTd[epNumber],
1476:Generated_Source\PSoC5/COM.c ****                         (length > COM_DMA_BYTES_PER_BURST) ? COM_DMA_BYTES_PER_BURST : length,
1477:Generated_Source\PSoC5/COM.c ****                         COM_DmaNextTd[epNumber], TD_TERMIN_EN | TD_INC_SRC_ADR);
1478:Generated_Source\PSoC5/COM.c ****                     (void) CyDmaTdSetAddress(COM_DmaTd[epNumber], LO16((uint32) pData),
1479:Generated_Source\PSoC5/COM.c ****                                                                                LO16((uint32) &COM_A
1480:Generated_Source\PSoC5/COM.c **** 
1481:Generated_Source\PSoC5/COM.c ****                     /* The second TD will be executed only when the first one fails.
1482:Generated_Source\PSoC5/COM.c ****                     *  The intention of this TD is to generate NRQ interrupt
1483:Generated_Source\PSoC5/COM.c ****                     *  and repeat 2 last bytes of the first burst.
1484:Generated_Source\PSoC5/COM.c ****                     */
1485:Generated_Source\PSoC5/COM.c ****                     (void) CyDmaTdSetConfiguration(COM_DmaNextTd[epNumber], 1u,
1486:Generated_Source\PSoC5/COM.c ****                                                    COM_DmaNextTd[epNumber],
1487:Generated_Source\PSoC5/COM.c ****                                                    COM_epX_TD_TERMOUT_EN[epNumber]);
1488:Generated_Source\PSoC5/COM.c **** 
1489:Generated_Source\PSoC5/COM.c ****                     /* Configure DmaNextTd to clear Data Ready status. */
1490:Generated_Source\PSoC5/COM.c ****                     (void) CyDmaTdSetAddress(COM_DmaNextTd[epNumber], LO16((uint32) &clearInDataRdy
1491:Generated_Source\PSoC5/COM.c ****                                                                                    LO16((uint32) &C
1492:Generated_Source\PSoC5/COM.c ****                 #else
1493:Generated_Source\PSoC5/COM.c ****                     /* Configure DMA to send all data. */
1494:Generated_Source\PSoC5/COM.c ****                     (void) CyDmaTdSetConfiguration(COM_DmaTd[epNumber], length,
1495:Generated_Source\PSoC5/COM.c ****                                                    COM_DmaTd[epNumber], TD_TERMIN_EN | TD_INC_SRC_A
1496:Generated_Source\PSoC5/COM.c ****                     (void) CyDmaTdSetAddress(COM_DmaTd[epNumber], LO16((uint32) pData),
1497:Generated_Source\PSoC5/COM.c ****                                                                                LO16((uint32) &COM_A
1498:Generated_Source\PSoC5/COM.c ****                 #endif /* (COM_EP_DMA_AUTO_OPT == 0u) */
1499:Generated_Source\PSoC5/COM.c **** 
1500:Generated_Source\PSoC5/COM.c ****                 /* Clear any potential pending DMA requests before starting DMA channel to transfer
1501:Generated_Source\PSoC5/COM.c ****                 (void) CyDmaClearPendingDrq(COM_DmaChan[epNumber]);
1502:Generated_Source\PSoC5/COM.c ****                 /* Enable DMA. */
1503:Generated_Source\PSoC5/COM.c ****                 (void) CyDmaChSetInitialTd(COM_DmaChan[epNumber], COM_DmaTd[epNumber]);
1504:Generated_Source\PSoC5/COM.c ****                 (void) CyDmaChEnable(COM_DmaChan[epNumber], 1u);
1505:Generated_Source\PSoC5/COM.c ****             #endif /* (CY_PSOC4) */
1506:Generated_Source\PSoC5/COM.c ****             }
1507:Generated_Source\PSoC5/COM.c ****             else
1508:Generated_Source\PSoC5/COM.c ****             {
1509:Generated_Source\PSoC5/COM.c ****                 /* IN endpoint buffer (32 bytes) will shortly be preloaded by DMA. */
1510:Generated_Source\PSoC5/COM.c ****                 COM_EP[epNumber].apiEpState = COM_NO_EVENT_PENDING;
1511:Generated_Source\PSoC5/COM.c **** 
1512:Generated_Source\PSoC5/COM.c ****                 if (length > 0u)
1513:Generated_Source\PSoC5/COM.c ****                 {
1514:Generated_Source\PSoC5/COM.c ****                 #if (CY_PSOC4)
1515:Generated_Source\PSoC5/COM.c ****                     uint32 lengthDescr0, lengthDescr1;
1516:Generated_Source\PSoC5/COM.c ****                     uint32 channelNum = (uint32) COM_DmaChan[epNumber];
1517:Generated_Source\PSoC5/COM.c **** 
1518:Generated_Source\PSoC5/COM.c ****                     /* Get number of full bursts. */
1519:Generated_Source\PSoC5/COM.c ****                     COM_DmaEpBurstCnt[epNumber] = (uint8) (length / COM_DMA_BYTES_PER_BURST);
1520:Generated_Source\PSoC5/COM.c **** 
1521:Generated_Source\PSoC5/COM.c ****                     /* Get number of elements in the last burst. */
1522:Generated_Source\PSoC5/COM.c ****                     COM_DmaEpLastBurstEl[epNumber] = (uint8) (length % COM_DMA_BYTES_PER_BURST);
1523:Generated_Source\PSoC5/COM.c **** 
1524:Generated_Source\PSoC5/COM.c ****                     /* Get total number of bursts. */
1525:Generated_Source\PSoC5/COM.c ****                     COM_DmaEpBurstCnt[epNumber] += (0u != COM_DmaEpLastBurstEl[epNumber]) ? 1u : 0u
1526:Generated_Source\PSoC5/COM.c **** 
1527:Generated_Source\PSoC5/COM.c ****                     /* Adjust number of data elements transferred in last burst. */
1528:Generated_Source\PSoC5/COM.c ****                     COM_DmaEpLastBurstEl[epNumber] = (0u != COM_DmaEpLastBurstEl[epNumber]) ?
1529:Generated_Source\PSoC5/COM.c ****                                                                           (COM_DmaEpLastBurstEl[epN
ARM GAS  C:\Users\LUKASC~1\AppData\Local\Temp\ccb2ZD5o.s 			page 44


1530:Generated_Source\PSoC5/COM.c ****                                                                           (COM_DMA_BYTES_PER_BURST 
1531:Generated_Source\PSoC5/COM.c **** 
1532:Generated_Source\PSoC5/COM.c ****                     /* Get number of data elements to transfer for descriptor 0 and 1. */
1533:Generated_Source\PSoC5/COM.c ****                     lengthDescr0 = (1u == COM_DmaEpBurstCnt[epNumber]) ? COM_DmaEpLastBurstEl[epNum
1534:Generated_Source\PSoC5/COM.c ****                     lengthDescr1 = (2u == COM_DmaEpBurstCnt[epNumber]) ? COM_DmaEpLastBurstEl[epNum
1535:Generated_Source\PSoC5/COM.c **** 
1536:Generated_Source\PSoC5/COM.c **** 
1537:Generated_Source\PSoC5/COM.c ****                     /* Mark which descriptor is last one to execute. */
1538:Generated_Source\PSoC5/COM.c ****                     COM_DmaEpLastBurstEl[epNumber] |= (0u != (COM_DmaEpBurstCnt[epNumber] & 0x1u)) 
1539:Generated_Source\PSoC5/COM.c ****                                                                             COM_DMA_DESCR0_MASK : C
1540:Generated_Source\PSoC5/COM.c **** 
1541:Generated_Source\PSoC5/COM.c ****                     /* Restore DMA settings for current transfer. */
1542:Generated_Source\PSoC5/COM.c ****                     COM_CyDmaChDisable(channelNum);
1543:Generated_Source\PSoC5/COM.c **** 
1544:Generated_Source\PSoC5/COM.c ****                     /* Restore destination address for input endpoint. */
1545:Generated_Source\PSoC5/COM.c ****                     COM_CyDmaSetSrcAddress(channelNum, COM_DMA_DESCR0, (void*) ((uint32) COM_DmaEpB
1546:Generated_Source\PSoC5/COM.c ****                     COM_CyDmaSetSrcAddress(channelNum, COM_DMA_DESCR1, (void*) ((uint32) COM_DmaEpB
1547:Generated_Source\PSoC5/COM.c ****                                                                                                    
1548:Generated_Source\PSoC5/COM.c **** 
1549:Generated_Source\PSoC5/COM.c ****                     /* Set number of elements to transfer. */
1550:Generated_Source\PSoC5/COM.c ****                     COM_CyDmaSetNumDataElements(channelNum, COM_DMA_DESCR0, lengthDescr0);
1551:Generated_Source\PSoC5/COM.c ****                     COM_CyDmaSetNumDataElements(channelNum, COM_DMA_DESCR1, lengthDescr1);
1552:Generated_Source\PSoC5/COM.c **** 
1553:Generated_Source\PSoC5/COM.c ****                     /* Validate descriptor 0 and command to start with it. */
1554:Generated_Source\PSoC5/COM.c ****                     COM_CyDmaValidateDescriptor(channelNum, COM_DMA_DESCR0);
1555:Generated_Source\PSoC5/COM.c ****                     COM_CyDmaSetDescriptor0Next(channelNum);
1556:Generated_Source\PSoC5/COM.c **** 
1557:Generated_Source\PSoC5/COM.c ****                     /* Validate descriptor 1. */
1558:Generated_Source\PSoC5/COM.c ****                     if (COM_DmaEpBurstCnt[epNumber] > 1u)
1559:Generated_Source\PSoC5/COM.c ****                     {
1560:Generated_Source\PSoC5/COM.c ****                         COM_CyDmaValidateDescriptor(channelNum, COM_DMA_DESCR1); 
1561:Generated_Source\PSoC5/COM.c ****                     }                   
1562:Generated_Source\PSoC5/COM.c **** 
1563:Generated_Source\PSoC5/COM.c ****                     /* Adjust burst counter taking to account: 2 valid descriptors and interrupt tr
1564:Generated_Source\PSoC5/COM.c ****                     COM_DmaEpBurstCnt[epNumber] = COM_DMA_GET_BURST_CNT(COM_DmaEpBurstCnt[epNumber]
1565:Generated_Source\PSoC5/COM.c **** 
1566:Generated_Source\PSoC5/COM.c ****                     /* Enable DMA channel: configuration complete. */
1567:Generated_Source\PSoC5/COM.c ****                     COM_CyDmaChEnable(channelNum);
1568:Generated_Source\PSoC5/COM.c **** 
1569:Generated_Source\PSoC5/COM.c ****                 #elif (COM_EP_DMA_AUTO_OPT == 0u)
1570:Generated_Source\PSoC5/COM.c ****                     COM_inLength[epNumber]  = length;
1571:Generated_Source\PSoC5/COM.c ****                     COM_inBufFull[epNumber] = 0u;
1572:Generated_Source\PSoC5/COM.c **** 
1573:Generated_Source\PSoC5/COM.c ****                     (void) CyDmaChDisable(COM_DmaChan[epNumber]);
1574:Generated_Source\PSoC5/COM.c ****                     /* Configure DMA to send data only for first burst. */
1575:Generated_Source\PSoC5/COM.c ****                     (void) CyDmaTdSetConfiguration(
1576:Generated_Source\PSoC5/COM.c ****                         COM_DmaTd[epNumber], (length > COM_DMA_BYTES_PER_BURST) ?
1577:Generated_Source\PSoC5/COM.c ****                         COM_DMA_BYTES_PER_BURST : length,
1578:Generated_Source\PSoC5/COM.c ****                         COM_DmaNextTd[epNumber], TD_TERMIN_EN | TD_INC_SRC_ADR );
1579:Generated_Source\PSoC5/COM.c ****                     (void) CyDmaTdSetAddress(COM_DmaTd[epNumber], LO16((uint32)  COM_inDataPointer[
1580:Generated_Source\PSoC5/COM.c ****                                                                                LO16((uint32) &COM_A
1581:Generated_Source\PSoC5/COM.c ****                     /* Clear Any potential pending DMA requests before starting DMA channel to tran
1582:Generated_Source\PSoC5/COM.c ****                     (void) CyDmaClearPendingDrq(COM_DmaChan[epNumber]);
1583:Generated_Source\PSoC5/COM.c ****                     /* Enable DMA. */
1584:Generated_Source\PSoC5/COM.c ****                     (void) CyDmaChSetInitialTd(COM_DmaChan[epNumber], COM_DmaTd[epNumber]);
1585:Generated_Source\PSoC5/COM.c ****                     (void) CyDmaChEnable(COM_DmaChan[epNumber], 1u);
1586:Generated_Source\PSoC5/COM.c ****                 #endif /* (CY_PSOC4) */
ARM GAS  C:\Users\LUKASC~1\AppData\Local\Temp\ccb2ZD5o.s 			page 45


1587:Generated_Source\PSoC5/COM.c **** 
1588:Generated_Source\PSoC5/COM.c ****                 #if !defined (COM_MANUAL_IN_EP_ARM)
1589:Generated_Source\PSoC5/COM.c ****                     /* Set IN data ready to generate DMA request to load data into endpoint buffer.
1590:Generated_Source\PSoC5/COM.c ****                     COM_ARB_EP_BASE.arbEp[epNumber].epCfg |= COM_ARB_EPX_CFG_IN_DATA_RDY;
1591:Generated_Source\PSoC5/COM.c ****                 #endif  /* (COM_MANUAL_IN_EP_ARM) */
1592:Generated_Source\PSoC5/COM.c **** 
1593:Generated_Source\PSoC5/COM.c ****                     /* IN endpoint will be armed in ARB_ISR(source: IN_BUF_FULL) after first DMA tr
1594:Generated_Source\PSoC5/COM.c ****                 }
1595:Generated_Source\PSoC5/COM.c ****                 else
1596:Generated_Source\PSoC5/COM.c ****                 {
1597:Generated_Source\PSoC5/COM.c ****                     /* When zero-length packet: arm IN endpoint directly. */
1598:Generated_Source\PSoC5/COM.c ****                     COM_SIE_EP_BASE.sieEp[epNumber].epCr0 = COM_EP[epNumber].epMode;
1599:Generated_Source\PSoC5/COM.c ****                 }
1600:Generated_Source\PSoC5/COM.c ****             }
1601:Generated_Source\PSoC5/COM.c ****         #endif /* (COM_EP_MANAGEMENT_DMA_AUTO) */
1602:Generated_Source\PSoC5/COM.c ****     #endif /* (COM_EP_MANAGEMENT_MANUAL) */
1603:Generated_Source\PSoC5/COM.c ****     }
1604:Generated_Source\PSoC5/COM.c **** }
 913              		.loc 1 1604 0
 914 007e F0BC     		pop	{r4, r5, r6, r7}
 915              		.cfi_restore 7
 916              		.cfi_restore 6
 917              		.cfi_restore 5
 918              		.cfi_restore 4
 919              		.cfi_def_cfa_offset 0
 920              	.L58:
 921 0080 7047     		bx	lr
 922              	.L60:
 923 0082 00BF     		.align	2
 924              	.L59:
 925 0084 00000000 		.word	COM_EP
 926 0088 FC5F0040 		.word	1073766396
 927 008c 78600040 		.word	1073766520
 928 0090 FE5F0040 		.word	1073766398
 929              		.cfi_endproc
 930              	.LFE11:
 931              		.size	COM_LoadInEP, .-COM_LoadInEP
 932              		.section	.text.COM_EnableOutEP,"ax",%progbits
 933              		.align	2
 934              		.global	COM_EnableOutEP
 935              		.thumb
 936              		.thumb_func
 937              		.type	COM_EnableOutEP, %function
 938              	COM_EnableOutEP:
 939              	.LFB13:
1605:Generated_Source\PSoC5/COM.c **** 
1606:Generated_Source\PSoC5/COM.c **** 
1607:Generated_Source\PSoC5/COM.c **** /*******************************************************************************
1608:Generated_Source\PSoC5/COM.c **** * Function Name: COM_ReadOutEP
1609:Generated_Source\PSoC5/COM.c **** ****************************************************************************//**
1610:Generated_Source\PSoC5/COM.c **** *
1611:Generated_Source\PSoC5/COM.c **** *   This function performs different functionality depending on the Component’s
1612:Generated_Source\PSoC5/COM.c **** *   configured Endpoint Buffer Management. This parameter is defined in the
1613:Generated_Source\PSoC5/COM.c **** *   Descriptor Root in Component Configure window.
1614:Generated_Source\PSoC5/COM.c **** *
1615:Generated_Source\PSoC5/COM.c **** *   *Manual (Static/Dynamic Allocation):*
1616:Generated_Source\PSoC5/COM.c **** *   This function moves the specified number of bytes from endpoint buffer to
ARM GAS  C:\Users\LUKASC~1\AppData\Local\Temp\ccb2ZD5o.s 			page 46


1617:Generated_Source\PSoC5/COM.c **** *   system RAM. The number of bytes actually transferred from endpoint buffer to
1618:Generated_Source\PSoC5/COM.c **** *   system RAM is the lesser of the actual number of bytes sent by the host or
1619:Generated_Source\PSoC5/COM.c **** *   the number of bytes requested by the length parameter.
1620:Generated_Source\PSoC5/COM.c **** *
1621:Generated_Source\PSoC5/COM.c **** *   *DMA with Manual Buffer Management:*
1622:Generated_Source\PSoC5/COM.c **** *   Configure DMA to transfer data from endpoint buffer to system RAM. Generate
1623:Generated_Source\PSoC5/COM.c **** *   a DMA request. The firmware must wait until the DMA completes the data
1624:Generated_Source\PSoC5/COM.c **** *   transfer after calling the COM_ReadOutEP() API. For example,
1625:Generated_Source\PSoC5/COM.c **** *   by checking EPstate:
1626:Generated_Source\PSoC5/COM.c **** *
1627:Generated_Source\PSoC5/COM.c **** *   \snippet /USBFS_sut_02.cydsn/main.c checking EPstatey
1628:Generated_Source\PSoC5/COM.c **** *
1629:Generated_Source\PSoC5/COM.c **** *   The USBFS_EnableOutEP() has to be called to allow host to write data into
1630:Generated_Source\PSoC5/COM.c **** *   the endpoint buffer after DMA has completed transfer data from OUT endpoint
1631:Generated_Source\PSoC5/COM.c **** *   buffer to SRAM.
1632:Generated_Source\PSoC5/COM.c **** *
1633:Generated_Source\PSoC5/COM.c **** *   *DMA with Automatic Buffer Management:*
1634:Generated_Source\PSoC5/COM.c **** *   Configure DMA. This is required only once and automatically generates DMA
1635:Generated_Source\PSoC5/COM.c **** *   requests as data arrives
1636:Generated_Source\PSoC5/COM.c **** *
1637:Generated_Source\PSoC5/COM.c **** *  \param epNumber: Contains the data endpoint number.
1638:Generated_Source\PSoC5/COM.c **** *            Valid values are between 1 and 8.
1639:Generated_Source\PSoC5/COM.c **** *  \param pData: A pointer to a data array from which the data for the endpoint
1640:Generated_Source\PSoC5/COM.c **** *         space is loaded.
1641:Generated_Source\PSoC5/COM.c **** *  \param length: The number of bytes to transfer from the USB Out endpoint and
1642:Generated_Source\PSoC5/COM.c **** *          loads it into data array. Valid values are between 0 and 1023. The
1643:Generated_Source\PSoC5/COM.c **** *          function moves fewer than the requested number of bytes if the host
1644:Generated_Source\PSoC5/COM.c **** *          sends fewer bytes than requested.
1645:Generated_Source\PSoC5/COM.c **** *
1646:Generated_Source\PSoC5/COM.c **** * \return
1647:Generated_Source\PSoC5/COM.c **** *  Number of bytes received, 0 for an invalid endpoint.
1648:Generated_Source\PSoC5/COM.c **** *
1649:Generated_Source\PSoC5/COM.c **** * \reentrant
1650:Generated_Source\PSoC5/COM.c **** *  No.
1651:Generated_Source\PSoC5/COM.c **** *
1652:Generated_Source\PSoC5/COM.c **** *******************************************************************************/
1653:Generated_Source\PSoC5/COM.c **** uint16 COM_ReadOutEP(uint8 epNumber, uint8 pData[], uint16 length)
1654:Generated_Source\PSoC5/COM.c ****                                                                         
1655:Generated_Source\PSoC5/COM.c **** {
1656:Generated_Source\PSoC5/COM.c ****     if ((pData != NULL) && (epNumber > COM_EP0) && (epNumber < COM_MAX_EP))
1657:Generated_Source\PSoC5/COM.c ****     {
1658:Generated_Source\PSoC5/COM.c ****     #if (!COM_EP_MANAGEMENT_DMA_AUTO)
1659:Generated_Source\PSoC5/COM.c ****         /* Adjust requested length to available data. */
1660:Generated_Source\PSoC5/COM.c ****         length = (length > COM_GetEPCount(epNumber)) ? COM_GetEPCount(epNumber) : length;
1661:Generated_Source\PSoC5/COM.c ****     #endif /* (!COM_EP_MANAGEMENT_DMA_AUTO) */
1662:Generated_Source\PSoC5/COM.c **** 
1663:Generated_Source\PSoC5/COM.c ****     #if (COM_EP_MANAGEMENT_MANUAL)
1664:Generated_Source\PSoC5/COM.c ****         {
1665:Generated_Source\PSoC5/COM.c ****             /* Copy data using arbiter data register. */
1666:Generated_Source\PSoC5/COM.c ****             uint16 i;
1667:Generated_Source\PSoC5/COM.c ****             for (i = 0u; i < length; ++i)
1668:Generated_Source\PSoC5/COM.c ****             {
1669:Generated_Source\PSoC5/COM.c ****                 pData[i] = (uint8) COM_ARB_EP_BASE.arbEp[epNumber].rwDr;
1670:Generated_Source\PSoC5/COM.c ****             }
1671:Generated_Source\PSoC5/COM.c ****         }
1672:Generated_Source\PSoC5/COM.c **** 
1673:Generated_Source\PSoC5/COM.c ****         /* Arm OUT endpoint after data has been copied from endpoint buffer. */
ARM GAS  C:\Users\LUKASC~1\AppData\Local\Temp\ccb2ZD5o.s 			page 47


1674:Generated_Source\PSoC5/COM.c ****         COM_EnableOutEP(epNumber);
1675:Generated_Source\PSoC5/COM.c ****     #else
1676:Generated_Source\PSoC5/COM.c **** 
1677:Generated_Source\PSoC5/COM.c ****         #if (CY_PSOC3 || CY_PSOC5LP)
1678:Generated_Source\PSoC5/COM.c ****             /* Initialize DMA if it was not initialized. */
1679:Generated_Source\PSoC5/COM.c ****             if (DMA_INVALID_TD == COM_DmaTd[epNumber])
1680:Generated_Source\PSoC5/COM.c ****             {
1681:Generated_Source\PSoC5/COM.c ****                 COM_InitEP_DMA(epNumber, pData);
1682:Generated_Source\PSoC5/COM.c ****             }
1683:Generated_Source\PSoC5/COM.c ****         #endif /* (CY_PSOC3 || CY_PSOC5LP) */
1684:Generated_Source\PSoC5/COM.c **** 
1685:Generated_Source\PSoC5/COM.c ****         #if (COM_EP_MANAGEMENT_DMA_MANUAL)
1686:Generated_Source\PSoC5/COM.c ****         #if (CY_PSOC4)
1687:Generated_Source\PSoC5/COM.c ****         {
1688:Generated_Source\PSoC5/COM.c ****             uint32 channelNum = (uint32) COM_DmaChan[epNumber];
1689:Generated_Source\PSoC5/COM.c **** 
1690:Generated_Source\PSoC5/COM.c ****             /* Disable DMA channel: start configuration. */
1691:Generated_Source\PSoC5/COM.c ****             COM_CyDmaChDisable(channelNum);
1692:Generated_Source\PSoC5/COM.c **** 
1693:Generated_Source\PSoC5/COM.c ****             /* Configure source and destination. */
1694:Generated_Source\PSoC5/COM.c ****             COM_CyDmaSetSrcAddress(channelNum, COM_DMA_DESCR0, (void*) &COM_ARB_EP_BASE.arbEp[epNum
1695:Generated_Source\PSoC5/COM.c ****             COM_CyDmaSetDstAddress(channelNum, COM_DMA_DESCR0, (void*) pData);
1696:Generated_Source\PSoC5/COM.c **** 
1697:Generated_Source\PSoC5/COM.c ****             /* Configure DMA descriptor. */
1698:Generated_Source\PSoC5/COM.c ****             COM_CyDmaSetConfiguration(channelNum, COM_DMA_DESCR0, COM_DMA_COMMON_CFG | (uint16)(len
1699:Generated_Source\PSoC5/COM.c ****                                                     CYDMA_BYTE | CYDMA_WORD_ELEMENT | CYDMA_INC_DST
1700:Generated_Source\PSoC5/COM.c **** 
1701:Generated_Source\PSoC5/COM.c ****             /* Validate descriptor to execute on following DMA request. */
1702:Generated_Source\PSoC5/COM.c ****             COM_CyDmaValidateDescriptor(channelNum, COM_DMA_DESCR0);
1703:Generated_Source\PSoC5/COM.c **** 
1704:Generated_Source\PSoC5/COM.c ****             /* Enable DMA channel: configuration complete. */
1705:Generated_Source\PSoC5/COM.c ****             COM_CyDmaChEnable(channelNum);
1706:Generated_Source\PSoC5/COM.c ****         }
1707:Generated_Source\PSoC5/COM.c ****         #else
1708:Generated_Source\PSoC5/COM.c ****             /* Configure DMA to transfer data. */
1709:Generated_Source\PSoC5/COM.c ****             (void) CyDmaChDisable(COM_DmaChan[epNumber]);
1710:Generated_Source\PSoC5/COM.c ****             (void) CyDmaTdSetConfiguration(COM_DmaTd[epNumber], length, CY_DMA_DISABLE_TD, TD_TERMI
1711:Generated_Source\PSoC5/COM.c ****             (void) CyDmaTdSetAddress(COM_DmaTd[epNumber], LO16((uint32) &COM_ARB_EP_BASE.arbEp[epNu
1712:Generated_Source\PSoC5/COM.c **** 
1713:Generated_Source\PSoC5/COM.c ****             /* Enable DMA channel. */
1714:Generated_Source\PSoC5/COM.c ****             (void) CyDmaChSetInitialTd(COM_DmaChan[epNumber], COM_DmaTd[epNumber]);
1715:Generated_Source\PSoC5/COM.c ****             (void) CyDmaChEnable(COM_DmaChan[epNumber], 1u);
1716:Generated_Source\PSoC5/COM.c ****         #endif /* (CY_PSOC4) */
1717:Generated_Source\PSoC5/COM.c **** 
1718:Generated_Source\PSoC5/COM.c ****             /* Generate DMA request. */
1719:Generated_Source\PSoC5/COM.c ****             COM_ARB_EP_BASE.arbEp[epNumber].epCfg |=  (uint8)  COM_ARB_EPX_CFG_DMA_REQ;
1720:Generated_Source\PSoC5/COM.c ****             COM_ARB_EP_BASE.arbEp[epNumber].epCfg &=  (uint8) ~COM_ARB_EPX_CFG_DMA_REQ;
1721:Generated_Source\PSoC5/COM.c **** 
1722:Generated_Source\PSoC5/COM.c ****             /* OUT endpoint has to be armed again by user when DMA transfers have been completed.
1723:Generated_Source\PSoC5/COM.c ****             * NO_EVENT_PENDING: notifies that data has been copied from endpoint buffer.
1724:Generated_Source\PSoC5/COM.c ****             */
1725:Generated_Source\PSoC5/COM.c **** 
1726:Generated_Source\PSoC5/COM.c ****         #endif /* (COM_EP_MANAGEMENT_DMA_MANUAL) */
1727:Generated_Source\PSoC5/COM.c **** 
1728:Generated_Source\PSoC5/COM.c ****         #if (COM_EP_MANAGEMENT_DMA_AUTO)
1729:Generated_Source\PSoC5/COM.c ****         #if (CY_PSOC4)
1730:Generated_Source\PSoC5/COM.c ****         {
ARM GAS  C:\Users\LUKASC~1\AppData\Local\Temp\ccb2ZD5o.s 			page 48


1731:Generated_Source\PSoC5/COM.c ****             uint32 channelNum = (uint32) COM_DmaChan[epNumber];
1732:Generated_Source\PSoC5/COM.c ****             uint32 lengthDescr0, lengthDescr1;
1733:Generated_Source\PSoC5/COM.c **** 
1734:Generated_Source\PSoC5/COM.c ****             /* Get number of full bursts. */
1735:Generated_Source\PSoC5/COM.c ****             COM_DmaEpBurstCnt[epNumber] = (uint8) (length / COM_DMA_BYTES_PER_BURST);
1736:Generated_Source\PSoC5/COM.c **** 
1737:Generated_Source\PSoC5/COM.c ****             /* Get number of elements in the last burst. */
1738:Generated_Source\PSoC5/COM.c ****             COM_DmaEpLastBurstEl[epNumber] = (uint8) (length % COM_DMA_BYTES_PER_BURST);
1739:Generated_Source\PSoC5/COM.c **** 
1740:Generated_Source\PSoC5/COM.c ****             /* Get total number of bursts. */
1741:Generated_Source\PSoC5/COM.c ****             COM_DmaEpBurstCnt[epNumber] += (0u != COM_DmaEpLastBurstEl[epNumber]) ? 1u : 0u;
1742:Generated_Source\PSoC5/COM.c **** 
1743:Generated_Source\PSoC5/COM.c ****             /* Adjust number of the data elements transfered in last burst. */
1744:Generated_Source\PSoC5/COM.c ****             COM_DmaEpLastBurstEl[epNumber] = (0u != COM_DmaEpLastBurstEl[epNumber]) ?
1745:Generated_Source\PSoC5/COM.c ****                                                                   (COM_DmaEpLastBurstEl[epNumber] -
1746:Generated_Source\PSoC5/COM.c ****                                                                   (COM_DMA_BYTES_PER_BURST - 1u);
1747:Generated_Source\PSoC5/COM.c **** 
1748:Generated_Source\PSoC5/COM.c ****             /* Get number of data elements to transfer for descriptor 0 and 1. */
1749:Generated_Source\PSoC5/COM.c ****             lengthDescr0 = (1u == COM_DmaEpBurstCnt[epNumber]) ? COM_DmaEpLastBurstEl[epNumber] : (
1750:Generated_Source\PSoC5/COM.c ****             lengthDescr1 = (2u == COM_DmaEpBurstCnt[epNumber]) ? COM_DmaEpLastBurstEl[epNumber] : (
1751:Generated_Source\PSoC5/COM.c **** 
1752:Generated_Source\PSoC5/COM.c ****             /* Mark if revert number of data elements in descriptor after transfer completion. */
1753:Generated_Source\PSoC5/COM.c ****             COM_DmaEpLastBurstEl[epNumber] |= (COM_DmaEpBurstCnt[epNumber] > 2u) ? COM_DMA_DESCR_RE
1754:Generated_Source\PSoC5/COM.c **** 
1755:Generated_Source\PSoC5/COM.c ****             /* Mark last descriptor to be executed. */
1756:Generated_Source\PSoC5/COM.c ****             COM_DmaEpLastBurstEl[epNumber] |= (0u != (COM_DmaEpBurstCnt[epNumber] & 0x1u)) ?
1757:Generated_Source\PSoC5/COM.c ****                                                                     COM_DMA_DESCR0_MASK : COM_DMA_D
1758:Generated_Source\PSoC5/COM.c **** 
1759:Generated_Source\PSoC5/COM.c ****             /* Store address of buffer and burst counter for endpoint. */
1760:Generated_Source\PSoC5/COM.c ****             COM_DmaEpBufferAddrBackup[epNumber] = (uint32) pData;
1761:Generated_Source\PSoC5/COM.c ****             COM_DmaEpBurstCntBackup[epNumber]   = COM_DmaEpBurstCnt[epNumber];
1762:Generated_Source\PSoC5/COM.c **** 
1763:Generated_Source\PSoC5/COM.c ****             /* Adjust burst counter taking to account: 2 valid descriptors and interrupt trigger af
1764:Generated_Source\PSoC5/COM.c ****             COM_DmaEpBurstCnt[epNumber] = COM_DMA_GET_BURST_CNT(COM_DmaEpBurstCnt[epNumber]);
1765:Generated_Source\PSoC5/COM.c **** 
1766:Generated_Source\PSoC5/COM.c ****             /* Disable DMA channel: start configuration. */
1767:Generated_Source\PSoC5/COM.c ****             COM_CyDmaChDisable(channelNum);
1768:Generated_Source\PSoC5/COM.c **** 
1769:Generated_Source\PSoC5/COM.c ****             /* Set destination address. */
1770:Generated_Source\PSoC5/COM.c ****             COM_CyDmaSetSrcAddress(channelNum, COM_DMA_DESCR0, (void*) &COM_ARB_EP_BASE.arbEp[epNum
1771:Generated_Source\PSoC5/COM.c ****             COM_CyDmaSetSrcAddress(channelNum, COM_DMA_DESCR1, (void*) &COM_ARB_EP_BASE.arbEp[epNum
1772:Generated_Source\PSoC5/COM.c **** 
1773:Generated_Source\PSoC5/COM.c ****             COM_CyDmaSetDstAddress(channelNum, COM_DMA_DESCR0, (void*) ((uint32) pData));
1774:Generated_Source\PSoC5/COM.c ****             COM_CyDmaSetDstAddress(channelNum, COM_DMA_DESCR1, (void*) ((uint32) pData + COM_DMA_BY
1775:Generated_Source\PSoC5/COM.c **** 
1776:Generated_Source\PSoC5/COM.c ****             /* Configure DMA descriptor. */
1777:Generated_Source\PSoC5/COM.c ****             COM_CyDmaSetConfiguration(channelNum, COM_DMA_DESCR0, COM_DMA_COMMON_CFG  | lengthDescr
1778:Generated_Source\PSoC5/COM.c ****                                                     CYDMA_BYTE | CYDMA_WORD_ELEMENT | CYDMA_INC_DST
1779:Generated_Source\PSoC5/COM.c **** 
1780:Generated_Source\PSoC5/COM.c ****             /* Configure DMA descriptor. */
1781:Generated_Source\PSoC5/COM.c ****             COM_CyDmaSetConfiguration(channelNum, COM_DMA_DESCR1, COM_DMA_COMMON_CFG  | lengthDescr
1782:Generated_Source\PSoC5/COM.c ****                                                     CYDMA_BYTE | CYDMA_WORD_ELEMENT | CYDMA_INC_DST
1783:Generated_Source\PSoC5/COM.c **** 
1784:Generated_Source\PSoC5/COM.c ****             /* Enable interrupt from DMA channel. */
1785:Generated_Source\PSoC5/COM.c ****             COM_CyDmaSetInterruptMask(channelNum);
1786:Generated_Source\PSoC5/COM.c **** 
1787:Generated_Source\PSoC5/COM.c ****             /* Validate DMA descriptor 0 and 1. */
ARM GAS  C:\Users\LUKASC~1\AppData\Local\Temp\ccb2ZD5o.s 			page 49


1788:Generated_Source\PSoC5/COM.c ****             COM_CyDmaValidateDescriptor(channelNum, COM_DMA_DESCR0);
1789:Generated_Source\PSoC5/COM.c **** 
1790:Generated_Source\PSoC5/COM.c ****             if (COM_DmaEpBurstCntBackup[epNumber] > 1u)
1791:Generated_Source\PSoC5/COM.c ****             {
1792:Generated_Source\PSoC5/COM.c ****                 COM_CyDmaValidateDescriptor(channelNum, COM_DMA_DESCR1);
1793:Generated_Source\PSoC5/COM.c ****             }
1794:Generated_Source\PSoC5/COM.c **** 
1795:Generated_Source\PSoC5/COM.c ****             /* Enable DMA channel: configuration complete. */
1796:Generated_Source\PSoC5/COM.c ****             COM_CyDmaChEnable(channelNum);
1797:Generated_Source\PSoC5/COM.c ****         }
1798:Generated_Source\PSoC5/COM.c ****         #else
1799:Generated_Source\PSoC5/COM.c ****             (void) CyDmaChDisable(COM_DmaChan[epNumber]);
1800:Generated_Source\PSoC5/COM.c ****             (void) CyDmaTdSetConfiguration(COM_DmaTd[epNumber], length,  COM_DmaTd[epNumber], TD_TE
1801:Generated_Source\PSoC5/COM.c ****             (void) CyDmaTdSetAddress(COM_DmaTd[epNumber], LO16((uint32) &COM_ARB_EP_BASE.arbEp[epNu
1802:Generated_Source\PSoC5/COM.c **** 
1803:Generated_Source\PSoC5/COM.c ****             /* Clear Any potential pending DMA requests before starting DMA channel to transfer dat
1804:Generated_Source\PSoC5/COM.c ****             (void) CyDmaClearPendingDrq(COM_DmaChan[epNumber]);
1805:Generated_Source\PSoC5/COM.c **** 
1806:Generated_Source\PSoC5/COM.c ****             /* Enable DMA channel. */
1807:Generated_Source\PSoC5/COM.c ****             (void) CyDmaChSetInitialTd(COM_DmaChan[epNumber], COM_DmaTd[epNumber]);
1808:Generated_Source\PSoC5/COM.c ****             (void) CyDmaChEnable(COM_DmaChan[epNumber], 1u);
1809:Generated_Source\PSoC5/COM.c ****         #endif /* (CY_PSOC4) */
1810:Generated_Source\PSoC5/COM.c **** 
1811:Generated_Source\PSoC5/COM.c ****             /* OUT endpoint has to be armed again by user when DMA transfers have been completed.
1812:Generated_Source\PSoC5/COM.c ****             * NO_EVENT_PENDING: notifies that data has been copied from endpoint buffer.
1813:Generated_Source\PSoC5/COM.c ****             */
1814:Generated_Source\PSoC5/COM.c **** 
1815:Generated_Source\PSoC5/COM.c ****         #endif /* (COM_EP_MANAGEMENT_DMA_AUTO) */
1816:Generated_Source\PSoC5/COM.c ****     #endif /* (COM_EP_MANAGEMENT_MANUAL) */
1817:Generated_Source\PSoC5/COM.c ****     }
1818:Generated_Source\PSoC5/COM.c ****     else
1819:Generated_Source\PSoC5/COM.c ****     {
1820:Generated_Source\PSoC5/COM.c ****         length = 0u;
1821:Generated_Source\PSoC5/COM.c ****     }
1822:Generated_Source\PSoC5/COM.c **** 
1823:Generated_Source\PSoC5/COM.c ****     return (length);
1824:Generated_Source\PSoC5/COM.c **** }
1825:Generated_Source\PSoC5/COM.c **** 
1826:Generated_Source\PSoC5/COM.c **** 
1827:Generated_Source\PSoC5/COM.c **** #if (COM_16BITS_EP_ACCESS_ENABLE)
1828:Generated_Source\PSoC5/COM.c **** /*******************************************************************************
1829:Generated_Source\PSoC5/COM.c **** * Function Name: COM_LoadInEP16
1830:Generated_Source\PSoC5/COM.c **** ****************************************************************************//**
1831:Generated_Source\PSoC5/COM.c **** *
1832:Generated_Source\PSoC5/COM.c **** *  This function performs different functionality depending on the Component’s
1833:Generated_Source\PSoC5/COM.c **** *  configured Endpoint Buffer Management. This parameter is defined in
1834:Generated_Source\PSoC5/COM.c **** *  the Descriptor Root in Component Configure window.
1835:Generated_Source\PSoC5/COM.c **** *
1836:Generated_Source\PSoC5/COM.c **** *  *Manual (Static/Dynamic Allocation):*
1837:Generated_Source\PSoC5/COM.c **** *  This function loads and enables the specified USB data endpoint for an IN
1838:Generated_Source\PSoC5/COM.c **** *  data transfer.
1839:Generated_Source\PSoC5/COM.c **** *
1840:Generated_Source\PSoC5/COM.c **** *  *DMA with Manual Buffer Management:*
1841:Generated_Source\PSoC5/COM.c **** *  Configures DMA for a data transfer from system RAM to endpoint buffer.
1842:Generated_Source\PSoC5/COM.c **** *  Generates request for a transfer.
1843:Generated_Source\PSoC5/COM.c **** *
1844:Generated_Source\PSoC5/COM.c **** *  *DMA with Automatic Buffer Management:*
ARM GAS  C:\Users\LUKASC~1\AppData\Local\Temp\ccb2ZD5o.s 			page 50


1845:Generated_Source\PSoC5/COM.c **** *  Configures DMA. This is required only once, so it is done only when parameter
1846:Generated_Source\PSoC5/COM.c **** *  pData is not NULL. When the pData pointer is NULL, the function skips this
1847:Generated_Source\PSoC5/COM.c **** *  task. Sets Data ready status: This generates the first DMA transfer and
1848:Generated_Source\PSoC5/COM.c **** *  prepares data in endpoint buffer.
1849:Generated_Source\PSoC5/COM.c **** *
1850:Generated_Source\PSoC5/COM.c **** *  \param epNumber Contains the data endpoint number.
1851:Generated_Source\PSoC5/COM.c **** *        Valid values are between 1 and 8.
1852:Generated_Source\PSoC5/COM.c **** *  \param *pData A pointer to a data array from which the data for the endpoint
1853:Generated_Source\PSoC5/COM.c **** *        space is loaded. It shall be ensured that this pointer address is even
1854:Generated_Source\PSoC5/COM.c **** *        to ensure the 16-bit transfer is aligned to even address. Else, a hard
1855:Generated_Source\PSoC5/COM.c **** *        fault condition can occur.
1856:Generated_Source\PSoC5/COM.c **** *  \param length The number of bytes to transfer from the array and then send as
1857:Generated_Source\PSoC5/COM.c **** *        a result of an IN request. Valid values are between 0 and 512 (1023 for
1858:Generated_Source\PSoC5/COM.c **** *        DMA with Automatic Buffer Management mode). The value 512 is applicable
1859:Generated_Source\PSoC5/COM.c **** *        if only one endpoint is used.
1860:Generated_Source\PSoC5/COM.c **** *
1861:Generated_Source\PSoC5/COM.c **** * \reentrant
1862:Generated_Source\PSoC5/COM.c **** *  No.
1863:Generated_Source\PSoC5/COM.c **** *
1864:Generated_Source\PSoC5/COM.c **** *******************************************************************************/
1865:Generated_Source\PSoC5/COM.c **** void COM_LoadInEP16(uint8 epNumber, const uint8 pData[], uint16 length)
1866:Generated_Source\PSoC5/COM.c **** {
1867:Generated_Source\PSoC5/COM.c ****     /* Check array alignment on half-word boundary. */
1868:Generated_Source\PSoC5/COM.c ****     CYASSERT(0u == (((uint32) pData) & 0x01u));
1869:Generated_Source\PSoC5/COM.c **** 
1870:Generated_Source\PSoC5/COM.c ****     if ((epNumber > COM_EP0) && (epNumber < COM_MAX_EP))
1871:Generated_Source\PSoC5/COM.c ****     {
1872:Generated_Source\PSoC5/COM.c ****     #if (!COM_EP_MANAGEMENT_DMA_AUTO)
1873:Generated_Source\PSoC5/COM.c ****         /* Limit length to available buffer USB IP buffer size. */
1874:Generated_Source\PSoC5/COM.c ****         if (length > (COM_EPX_DATA_BUF_MAX - COM_EP[epNumber].buffOffset))
1875:Generated_Source\PSoC5/COM.c ****         {
1876:Generated_Source\PSoC5/COM.c ****             length = COM_EPX_DATA_BUF_MAX - COM_EP[epNumber].buffOffset;
1877:Generated_Source\PSoC5/COM.c ****         }
1878:Generated_Source\PSoC5/COM.c ****     #endif /* (!COM_EP_MANAGEMENT_DMA_AUTO) */
1879:Generated_Source\PSoC5/COM.c **** 
1880:Generated_Source\PSoC5/COM.c ****         /* Set count and data toggle. */
1881:Generated_Source\PSoC5/COM.c ****         COM_SIE_EP_BASE.sieEp[epNumber].epCnt0 = (uint32) HI8(length) | COM_EP[epNumber].epToggle;
1882:Generated_Source\PSoC5/COM.c ****         COM_SIE_EP_BASE.sieEp[epNumber].epCnt1 = (uint32) LO8(length);
1883:Generated_Source\PSoC5/COM.c **** 
1884:Generated_Source\PSoC5/COM.c ****         /* Adjust requested length: 2 bytes are handled at one data register access. */
1885:Generated_Source\PSoC5/COM.c ****         length += (length & 0x01u);
1886:Generated_Source\PSoC5/COM.c **** 
1887:Generated_Source\PSoC5/COM.c ****     #if (COM_EP_MANAGEMENT_MANUAL)
1888:Generated_Source\PSoC5/COM.c ****         if (NULL != pData)
1889:Generated_Source\PSoC5/COM.c ****         {
1890:Generated_Source\PSoC5/COM.c ****             /* Convert uint8 array to uint16. */
1891:Generated_Source\PSoC5/COM.c ****             const uint16 *dataBuf = (uint16 *) pData;
1892:Generated_Source\PSoC5/COM.c **** 
1893:Generated_Source\PSoC5/COM.c ****             /* Copy data using 16-bits arbiter data register. */
1894:Generated_Source\PSoC5/COM.c ****             uint16 i;
1895:Generated_Source\PSoC5/COM.c ****             for (i = 0u; i < (length >> 1u); ++i)
1896:Generated_Source\PSoC5/COM.c ****             {
1897:Generated_Source\PSoC5/COM.c ****                 COM_ARB_EP16_BASE.arbEp[epNumber].rwDr16 = dataBuf[i];
1898:Generated_Source\PSoC5/COM.c ****             }
1899:Generated_Source\PSoC5/COM.c ****         }
1900:Generated_Source\PSoC5/COM.c **** 
1901:Generated_Source\PSoC5/COM.c ****         /* IN endpoint buffer is full - read to be read. */
ARM GAS  C:\Users\LUKASC~1\AppData\Local\Temp\ccb2ZD5o.s 			page 51


1902:Generated_Source\PSoC5/COM.c ****         COM_EP[epNumber].apiEpState = COM_NO_EVENT_PENDING;
1903:Generated_Source\PSoC5/COM.c **** 
1904:Generated_Source\PSoC5/COM.c ****         /* Arm IN endpoint. */
1905:Generated_Source\PSoC5/COM.c ****         COM_SIE_EP_BASE.sieEp[epNumber].epCr0 = COM_EP[epNumber].epMode;
1906:Generated_Source\PSoC5/COM.c **** 
1907:Generated_Source\PSoC5/COM.c ****     #else
1908:Generated_Source\PSoC5/COM.c **** 
1909:Generated_Source\PSoC5/COM.c ****         #if (COM_EP_MANAGEMENT_DMA_MANUAL)
1910:Generated_Source\PSoC5/COM.c ****             /* IN endpoint buffer will be fully loaded by DMA shortly. */
1911:Generated_Source\PSoC5/COM.c ****             COM_EP[epNumber].apiEpState = COM_NO_EVENT_PENDING;
1912:Generated_Source\PSoC5/COM.c **** 
1913:Generated_Source\PSoC5/COM.c ****             if ((pData != NULL) && (length > 0u))
1914:Generated_Source\PSoC5/COM.c ****             {
1915:Generated_Source\PSoC5/COM.c ****                 uint32 channelNum = (uint32) COM_DmaChan[epNumber];
1916:Generated_Source\PSoC5/COM.c **** 
1917:Generated_Source\PSoC5/COM.c ****                 /* Disable DMA channel: start configuration. */
1918:Generated_Source\PSoC5/COM.c ****                 COM_CyDmaChDisable(channelNum);
1919:Generated_Source\PSoC5/COM.c **** 
1920:Generated_Source\PSoC5/COM.c ****                 /* Configure source and destination. */
1921:Generated_Source\PSoC5/COM.c ****                 COM_CyDmaSetSrcAddress(channelNum, COM_DMA_DESCR0, (void*) pData);
1922:Generated_Source\PSoC5/COM.c ****                 COM_CyDmaSetDstAddress(channelNum, COM_DMA_DESCR0, (void*) &COM_ARB_EP16_BASE.arbEp
1923:Generated_Source\PSoC5/COM.c **** 
1924:Generated_Source\PSoC5/COM.c ****                 /* Configure DMA descriptor. */
1925:Generated_Source\PSoC5/COM.c ****                 length = (length >> 1u) - 1u;
1926:Generated_Source\PSoC5/COM.c ****                 COM_CyDmaSetConfiguration(channelNum, COM_DMA_DESCR0, COM_DMA_COMMON_CFG | length |
1927:Generated_Source\PSoC5/COM.c ****                                                         CYDMA_HALFWORD | CYDMA_ELEMENT_WORD | CYDMA
1928:Generated_Source\PSoC5/COM.c **** 
1929:Generated_Source\PSoC5/COM.c ****                 /* Validate descriptor to execute on following DMA request. */
1930:Generated_Source\PSoC5/COM.c ****                 COM_CyDmaValidateDescriptor(channelNum, COM_DMA_DESCR0);
1931:Generated_Source\PSoC5/COM.c **** 
1932:Generated_Source\PSoC5/COM.c ****                 /* Enable DMA channel: configuration complete. */
1933:Generated_Source\PSoC5/COM.c ****                 COM_CyDmaChEnable(channelNum);
1934:Generated_Source\PSoC5/COM.c **** 
1935:Generated_Source\PSoC5/COM.c ****                 /* Generate DMA request. */
1936:Generated_Source\PSoC5/COM.c ****                 COM_ARB_EP_BASE.arbEp[epNumber].epCfg |=  (uint32)  COM_ARB_EPX_CFG_DMA_REQ;
1937:Generated_Source\PSoC5/COM.c ****                 COM_ARB_EP_BASE.arbEp[epNumber].epCfg &=  (uint32) ~COM_ARB_EPX_CFG_DMA_REQ;
1938:Generated_Source\PSoC5/COM.c **** 
1939:Generated_Source\PSoC5/COM.c ****                 /* IN endpoint will be armed in ARB_ISR(source: IN_BUF_FULL) after first DMA transf
1940:Generated_Source\PSoC5/COM.c ****             }
1941:Generated_Source\PSoC5/COM.c ****             else
1942:Generated_Source\PSoC5/COM.c ****             {
1943:Generated_Source\PSoC5/COM.c ****                 /* When zero-length packet: arm IN endpoint directly. */
1944:Generated_Source\PSoC5/COM.c ****                 COM_SIE_EP_BASE.sieEp[epNumber].epCr0 = COM_EP[epNumber].epMode;
1945:Generated_Source\PSoC5/COM.c ****             }
1946:Generated_Source\PSoC5/COM.c ****         #endif /* (COM_EP_MANAGEMENT_DMA_MANUAL) */
1947:Generated_Source\PSoC5/COM.c **** 
1948:Generated_Source\PSoC5/COM.c ****         #if (COM_EP_MANAGEMENT_DMA_AUTO)
1949:Generated_Source\PSoC5/COM.c ****             if (pData != NULL)
1950:Generated_Source\PSoC5/COM.c ****             {
1951:Generated_Source\PSoC5/COM.c ****                 uint32 channelNum = (uint32) COM_DmaChan[epNumber];
1952:Generated_Source\PSoC5/COM.c **** 
1953:Generated_Source\PSoC5/COM.c ****                 /* Store address of buffer. */
1954:Generated_Source\PSoC5/COM.c ****                 COM_DmaEpBufferAddrBackup[epNumber] = (uint32) pData;
1955:Generated_Source\PSoC5/COM.c **** 
1956:Generated_Source\PSoC5/COM.c ****                 /* Disable DMA channel: start configuration. */
1957:Generated_Source\PSoC5/COM.c ****                 COM_CyDmaChDisable(channelNum);
1958:Generated_Source\PSoC5/COM.c **** 
ARM GAS  C:\Users\LUKASC~1\AppData\Local\Temp\ccb2ZD5o.s 			page 52


1959:Generated_Source\PSoC5/COM.c ****                 /* Set destination address. */
1960:Generated_Source\PSoC5/COM.c ****                 COM_CyDmaSetDstAddress(channelNum, COM_DMA_DESCR0, (void*) &COM_ARB_EP16_BASE.arbEp
1961:Generated_Source\PSoC5/COM.c ****                 COM_CyDmaSetDstAddress(channelNum, COM_DMA_DESCR1, (void*) &COM_ARB_EP16_BASE.arbEp
1962:Generated_Source\PSoC5/COM.c **** 
1963:Generated_Source\PSoC5/COM.c ****                 /* Configure DMA descriptor. */
1964:Generated_Source\PSoC5/COM.c ****                 COM_CyDmaSetConfiguration(channelNum, COM_DMA_DESCR0, COM_DMA_COMMON_CFG  |
1965:Generated_Source\PSoC5/COM.c ****                                                         CYDMA_HALFWORD | CYDMA_ELEMENT_WORD | CYDMA
1966:Generated_Source\PSoC5/COM.c **** 
1967:Generated_Source\PSoC5/COM.c ****                 /* Configure DMA descriptor. */
1968:Generated_Source\PSoC5/COM.c ****                 COM_CyDmaSetConfiguration(channelNum, COM_DMA_DESCR1, COM_DMA_COMMON_CFG  |
1969:Generated_Source\PSoC5/COM.c ****                                                         CYDMA_HALFWORD | CYDMA_ELEMENT_WORD | CYDMA
1970:Generated_Source\PSoC5/COM.c **** 
1971:Generated_Source\PSoC5/COM.c ****                 /* Enable interrupt from DMA channel. */
1972:Generated_Source\PSoC5/COM.c ****                 COM_CyDmaSetInterruptMask(channelNum);
1973:Generated_Source\PSoC5/COM.c **** 
1974:Generated_Source\PSoC5/COM.c ****                 /* Enable DMA channel: configuration complete. */
1975:Generated_Source\PSoC5/COM.c ****                 COM_CyDmaChEnable(channelNum);
1976:Generated_Source\PSoC5/COM.c ****             }
1977:Generated_Source\PSoC5/COM.c ****             else
1978:Generated_Source\PSoC5/COM.c ****             {
1979:Generated_Source\PSoC5/COM.c ****                 /* IN endpoint buffer (32 bytes) will shortly be preloaded by DMA. */
1980:Generated_Source\PSoC5/COM.c ****                 COM_EP[epNumber].apiEpState = COM_NO_EVENT_PENDING;
1981:Generated_Source\PSoC5/COM.c **** 
1982:Generated_Source\PSoC5/COM.c ****                 if (length > 0u)
1983:Generated_Source\PSoC5/COM.c ****                 {
1984:Generated_Source\PSoC5/COM.c ****                     uint32 lengthDescr0, lengthDescr1;
1985:Generated_Source\PSoC5/COM.c ****                     uint32 channelNum = (uint32) COM_DmaChan[epNumber];
1986:Generated_Source\PSoC5/COM.c **** 
1987:Generated_Source\PSoC5/COM.c ****                     /* Get number of full bursts. */
1988:Generated_Source\PSoC5/COM.c ****                     COM_DmaEpBurstCnt[epNumber] = (uint8) (length / COM_DMA_BYTES_PER_BURST);
1989:Generated_Source\PSoC5/COM.c **** 
1990:Generated_Source\PSoC5/COM.c ****                     /* Get number of elements in the last burst. */
1991:Generated_Source\PSoC5/COM.c ****                     COM_DmaEpLastBurstEl[epNumber] = (uint8) (length % COM_DMA_BYTES_PER_BURST);
1992:Generated_Source\PSoC5/COM.c **** 
1993:Generated_Source\PSoC5/COM.c ****                     /* Get total number of bursts. */
1994:Generated_Source\PSoC5/COM.c ****                     COM_DmaEpBurstCnt[epNumber] += (0u != COM_DmaEpLastBurstEl[epNumber]) ? 1u : 0u
1995:Generated_Source\PSoC5/COM.c **** 
1996:Generated_Source\PSoC5/COM.c ****                     /* Adjust number of data elements transferred in last burst. */
1997:Generated_Source\PSoC5/COM.c ****                     COM_DmaEpLastBurstEl[epNumber] = (0u != COM_DmaEpLastBurstEl[epNumber]) ?
1998:Generated_Source\PSoC5/COM.c ****                                                                           ((COM_DmaEpLastBurstEl[ep
1999:Generated_Source\PSoC5/COM.c ****                                                                            (COM_DMA_HALFWORDS_PER_B
2000:Generated_Source\PSoC5/COM.c **** 
2001:Generated_Source\PSoC5/COM.c ****                     /* Get number of data elements to transfer for descriptor 0 and 1. */
2002:Generated_Source\PSoC5/COM.c ****                     lengthDescr0 = (1u == COM_DmaEpBurstCnt[epNumber]) ? COM_DmaEpLastBurstEl[epNum
2003:Generated_Source\PSoC5/COM.c ****                     lengthDescr1 = (2u == COM_DmaEpBurstCnt[epNumber]) ? COM_DmaEpLastBurstEl[epNum
2004:Generated_Source\PSoC5/COM.c **** 
2005:Generated_Source\PSoC5/COM.c ****                     /* Mark which descriptor is last one to execute. */
2006:Generated_Source\PSoC5/COM.c ****                     COM_DmaEpLastBurstEl[epNumber] |= (0u != (COM_DmaEpBurstCnt[epNumber] & 0x1u)) 
2007:Generated_Source\PSoC5/COM.c ****                                                                             COM_DMA_DESCR0_MASK : C
2008:Generated_Source\PSoC5/COM.c **** 
2009:Generated_Source\PSoC5/COM.c ****                     /* Restore DMA settings for current transfer. */
2010:Generated_Source\PSoC5/COM.c ****                     COM_CyDmaChDisable(channelNum);
2011:Generated_Source\PSoC5/COM.c **** 
2012:Generated_Source\PSoC5/COM.c ****                     /* Restore destination address for input endpoint. */
2013:Generated_Source\PSoC5/COM.c ****                     COM_CyDmaSetSrcAddress(channelNum, COM_DMA_DESCR0, (void*) ((uint32) COM_DmaEpB
2014:Generated_Source\PSoC5/COM.c ****                     COM_CyDmaSetSrcAddress(channelNum, COM_DMA_DESCR1, (void*) ((uint32) COM_DmaEpB
2015:Generated_Source\PSoC5/COM.c ****                                                                                                    
ARM GAS  C:\Users\LUKASC~1\AppData\Local\Temp\ccb2ZD5o.s 			page 53


2016:Generated_Source\PSoC5/COM.c **** 
2017:Generated_Source\PSoC5/COM.c ****                     /* Set number of elements to transfer. */
2018:Generated_Source\PSoC5/COM.c ****                     COM_CyDmaSetNumDataElements(channelNum, COM_DMA_DESCR0, lengthDescr0);
2019:Generated_Source\PSoC5/COM.c ****                     COM_CyDmaSetNumDataElements(channelNum, COM_DMA_DESCR1, lengthDescr1);
2020:Generated_Source\PSoC5/COM.c **** 
2021:Generated_Source\PSoC5/COM.c ****                     /* Validate descriptor 0 and command to start with it. */
2022:Generated_Source\PSoC5/COM.c ****                     COM_CyDmaValidateDescriptor(channelNum, COM_DMA_DESCR0);
2023:Generated_Source\PSoC5/COM.c ****                     COM_CyDmaSetDescriptor0Next(channelNum);
2024:Generated_Source\PSoC5/COM.c **** 
2025:Generated_Source\PSoC5/COM.c ****                     /* Validate descriptor 1. */
2026:Generated_Source\PSoC5/COM.c ****                     if (COM_DmaEpBurstCnt[epNumber] > 1u)
2027:Generated_Source\PSoC5/COM.c ****                     {
2028:Generated_Source\PSoC5/COM.c ****                         COM_CyDmaValidateDescriptor(channelNum, COM_DMA_DESCR1);
2029:Generated_Source\PSoC5/COM.c ****                     }
2030:Generated_Source\PSoC5/COM.c **** 
2031:Generated_Source\PSoC5/COM.c ****                     /* Adjust burst counter taking to account: 2 valid descriptors and interrupt tr
2032:Generated_Source\PSoC5/COM.c ****                     COM_DmaEpBurstCnt[epNumber] = COM_DMA_GET_BURST_CNT(COM_DmaEpBurstCnt[epNumber]
2033:Generated_Source\PSoC5/COM.c **** 
2034:Generated_Source\PSoC5/COM.c ****                     /* Enable DMA channel: configuration complete. */
2035:Generated_Source\PSoC5/COM.c ****                     COM_CyDmaChEnable(channelNum);
2036:Generated_Source\PSoC5/COM.c **** 
2037:Generated_Source\PSoC5/COM.c ****                 #if !defined (COM_MANUAL_IN_EP_ARM)
2038:Generated_Source\PSoC5/COM.c ****                     /* Set IN data ready to generate DMA request to load data into endpoint buffer.
2039:Generated_Source\PSoC5/COM.c ****                     COM_ARB_EP_BASE.arbEp[epNumber].epCfg |= COM_ARB_EPX_CFG_IN_DATA_RDY;
2040:Generated_Source\PSoC5/COM.c ****                 #endif  /* (COM_MANUAL_IN_EP_ARM) */
2041:Generated_Source\PSoC5/COM.c **** 
2042:Generated_Source\PSoC5/COM.c ****                     /* IN endpoint will be armed in ARB_ISR(source: IN_BUF_FULL) after first DMA tr
2043:Generated_Source\PSoC5/COM.c ****                 }
2044:Generated_Source\PSoC5/COM.c ****                 else
2045:Generated_Source\PSoC5/COM.c ****                 {
2046:Generated_Source\PSoC5/COM.c ****                     /* When zero-length packet: arm IN endpoint directly. */
2047:Generated_Source\PSoC5/COM.c ****                     COM_SIE_EP_BASE.sieEp[epNumber].epCr0 = COM_EP[epNumber].epMode;
2048:Generated_Source\PSoC5/COM.c ****                 }
2049:Generated_Source\PSoC5/COM.c ****             }
2050:Generated_Source\PSoC5/COM.c ****         #endif /* (COM_EP_MANAGEMENT_DMA_AUTO) */
2051:Generated_Source\PSoC5/COM.c ****     #endif /* (COM_EP_MANAGEMENT_MANUAL) */
2052:Generated_Source\PSoC5/COM.c ****     }
2053:Generated_Source\PSoC5/COM.c **** }
2054:Generated_Source\PSoC5/COM.c **** 
2055:Generated_Source\PSoC5/COM.c **** 
2056:Generated_Source\PSoC5/COM.c **** /*******************************************************************************
2057:Generated_Source\PSoC5/COM.c **** * Function Name: COM_ReadOutEP16
2058:Generated_Source\PSoC5/COM.c **** ****************************************************************************//**
2059:Generated_Source\PSoC5/COM.c **** *
2060:Generated_Source\PSoC5/COM.c **** *   This function performs different functionality depending on the Component’s
2061:Generated_Source\PSoC5/COM.c **** *   configured Endpoint Buffer Management. This parameter is defined in the
2062:Generated_Source\PSoC5/COM.c **** *   Descriptor Root in Component Configure window.
2063:Generated_Source\PSoC5/COM.c **** *
2064:Generated_Source\PSoC5/COM.c **** *   *Manual (Static/Dynamic Allocation):*
2065:Generated_Source\PSoC5/COM.c **** *   This function moves the specified number of bytes from endpoint buffer to
2066:Generated_Source\PSoC5/COM.c **** *   system RAM. The number of bytes actually transferred from endpoint buffer to
2067:Generated_Source\PSoC5/COM.c **** *   system RAM is the lesser of the actual number of bytes sent by the host or
2068:Generated_Source\PSoC5/COM.c **** *   the number of bytes requested by the length parameter.
2069:Generated_Source\PSoC5/COM.c **** *
2070:Generated_Source\PSoC5/COM.c **** *   *DMA with Manual Buffer Management:*
2071:Generated_Source\PSoC5/COM.c **** *   Configure DMA to transfer data from endpoint buffer to system RAM. Generate
2072:Generated_Source\PSoC5/COM.c **** *   a DMA request. The firmware must wait until the DMA completes the data
ARM GAS  C:\Users\LUKASC~1\AppData\Local\Temp\ccb2ZD5o.s 			page 54


2073:Generated_Source\PSoC5/COM.c **** *   transfer after calling the COM_ReadOutEP() API. For example,
2074:Generated_Source\PSoC5/COM.c **** *   by checking EPstate:
2075:Generated_Source\PSoC5/COM.c **** *
2076:Generated_Source\PSoC5/COM.c **** *   \snippet /USBFS_sut_02.cydsn/main.c checking EPstatey
2077:Generated_Source\PSoC5/COM.c **** *
2078:Generated_Source\PSoC5/COM.c **** *   The USBFS_EnableOutEP() has to be called to allow host to write data into
2079:Generated_Source\PSoC5/COM.c **** *   the endpoint buffer after DMA has completed transfer data from OUT endpoint
2080:Generated_Source\PSoC5/COM.c **** *   buffer to SRAM.
2081:Generated_Source\PSoC5/COM.c **** *
2082:Generated_Source\PSoC5/COM.c **** *   *DMA with Automatic Buffer Management:*
2083:Generated_Source\PSoC5/COM.c **** *   Configure DMA. This is required only once and automatically generates DMA
2084:Generated_Source\PSoC5/COM.c **** *   requests as data arrives
2085:Generated_Source\PSoC5/COM.c **** *
2086:Generated_Source\PSoC5/COM.c **** *  \param epNumber: Contains the data endpoint number.
2087:Generated_Source\PSoC5/COM.c **** *         Valid values are between 1 and 8.
2088:Generated_Source\PSoC5/COM.c **** *  \param pData: A pointer to a data array into which the data for the endpoint
2089:Generated_Source\PSoC5/COM.c **** *         space is copied. It shall be ensured that this pointer address is
2090:Generated_Source\PSoC5/COM.c **** *         even to ensure the 16-bit transfer is aligned to even address. Else,
2091:Generated_Source\PSoC5/COM.c **** *         a hard fault condition can occur.
2092:Generated_Source\PSoC5/COM.c **** *  \param length: The number of bytes to transfer from the USB Out endpoint and
2093:Generated_Source\PSoC5/COM.c **** *         loads it into data array. Valid values are between 0 and 1023. The
2094:Generated_Source\PSoC5/COM.c **** *         function moves fewer than the requested number of bytes if the host
2095:Generated_Source\PSoC5/COM.c **** *         sends fewer bytes than requested.
2096:Generated_Source\PSoC5/COM.c **** *
2097:Generated_Source\PSoC5/COM.c **** * \return
2098:Generated_Source\PSoC5/COM.c **** *  Number of bytes received, 0 for an invalid endpoint.
2099:Generated_Source\PSoC5/COM.c **** *
2100:Generated_Source\PSoC5/COM.c **** * \reentrant
2101:Generated_Source\PSoC5/COM.c **** *  No.
2102:Generated_Source\PSoC5/COM.c **** *
2103:Generated_Source\PSoC5/COM.c **** *******************************************************************************/
2104:Generated_Source\PSoC5/COM.c **** uint16 COM_ReadOutEP16(uint8 epNumber, uint8 pData[], uint16 length)
2105:Generated_Source\PSoC5/COM.c **** {
2106:Generated_Source\PSoC5/COM.c ****     uint32 adjLength;
2107:Generated_Source\PSoC5/COM.c **** 
2108:Generated_Source\PSoC5/COM.c ****     /* Check array alignment on half-word boundary */
2109:Generated_Source\PSoC5/COM.c ****     CYASSERT(0u == (((uint32) pData) & 0x01u));
2110:Generated_Source\PSoC5/COM.c **** 
2111:Generated_Source\PSoC5/COM.c ****     if ((pData != NULL) && (epNumber > COM_EP0) && (epNumber < COM_MAX_EP))
2112:Generated_Source\PSoC5/COM.c ****     {
2113:Generated_Source\PSoC5/COM.c ****     #if (!COM_EP_MANAGEMENT_DMA_AUTO)
2114:Generated_Source\PSoC5/COM.c ****         /* Adjust requested length to available data. */
2115:Generated_Source\PSoC5/COM.c ****         length = (length > COM_GetEPCount(epNumber)) ? COM_GetEPCount(epNumber) : length;
2116:Generated_Source\PSoC5/COM.c ****     #endif /* (!COM_EP_MANAGEMENT_DMA_AUTO) */
2117:Generated_Source\PSoC5/COM.c **** 
2118:Generated_Source\PSoC5/COM.c ****     /* Adjust requested length: 2 bytes are handled at one data register access. */
2119:Generated_Source\PSoC5/COM.c ****     adjLength =  length + ((uint32)length & 1u);
2120:Generated_Source\PSoC5/COM.c **** 
2121:Generated_Source\PSoC5/COM.c ****     #if (COM_EP_MANAGEMENT_MANUAL)
2122:Generated_Source\PSoC5/COM.c ****         {
2123:Generated_Source\PSoC5/COM.c ****             /* Convert uint8 array to uint16. */
2124:Generated_Source\PSoC5/COM.c ****             uint16 *dataBuf = (uint16 *) pData;
2125:Generated_Source\PSoC5/COM.c **** 
2126:Generated_Source\PSoC5/COM.c ****             /* Copy data using 16-bits arbiter data register. */
2127:Generated_Source\PSoC5/COM.c ****             uint16 i;
2128:Generated_Source\PSoC5/COM.c ****             for (i = 0u; i < (adjLength >> 1u); ++i)
2129:Generated_Source\PSoC5/COM.c ****             {
ARM GAS  C:\Users\LUKASC~1\AppData\Local\Temp\ccb2ZD5o.s 			page 55


2130:Generated_Source\PSoC5/COM.c ****                 dataBuf[i] = (uint16) COM_ARB_EP16_BASE.arbEp[epNumber].rwDr16;
2131:Generated_Source\PSoC5/COM.c ****             }
2132:Generated_Source\PSoC5/COM.c ****         }
2133:Generated_Source\PSoC5/COM.c **** 
2134:Generated_Source\PSoC5/COM.c ****         /* Arm OUT endpoint after data has been read from endpoint buffer. */
2135:Generated_Source\PSoC5/COM.c ****         COM_EnableOutEP(epNumber);
2136:Generated_Source\PSoC5/COM.c ****     #else
2137:Generated_Source\PSoC5/COM.c **** 
2138:Generated_Source\PSoC5/COM.c ****         #if (COM_EP_MANAGEMENT_DMA_MANUAL)
2139:Generated_Source\PSoC5/COM.c ****         {
2140:Generated_Source\PSoC5/COM.c ****             uint32 channelNum = (uint32) COM_DmaChan[epNumber];
2141:Generated_Source\PSoC5/COM.c **** 
2142:Generated_Source\PSoC5/COM.c ****             /* Disable DMA channel: start configuration. */
2143:Generated_Source\PSoC5/COM.c ****             COM_CyDmaChDisable(channelNum);
2144:Generated_Source\PSoC5/COM.c **** 
2145:Generated_Source\PSoC5/COM.c ****             /* Configure source and destination. */
2146:Generated_Source\PSoC5/COM.c ****             COM_CyDmaSetSrcAddress(channelNum, COM_DMA_DESCR0, (void*) &COM_ARB_EP16_BASE.arbEp[epN
2147:Generated_Source\PSoC5/COM.c ****             COM_CyDmaSetDstAddress(channelNum, COM_DMA_DESCR0, (void*) pData);
2148:Generated_Source\PSoC5/COM.c **** 
2149:Generated_Source\PSoC5/COM.c ****             /* Configure DMA descriptor. */
2150:Generated_Source\PSoC5/COM.c ****             COM_CyDmaSetConfiguration(channelNum, COM_DMA_DESCR0, COM_DMA_COMMON_CFG | (uint16)((ad
2151:Generated_Source\PSoC5/COM.c ****                                                     CYDMA_HALFWORD | CYDMA_WORD_ELEMENT | CYDMA_INC
2152:Generated_Source\PSoC5/COM.c **** 
2153:Generated_Source\PSoC5/COM.c ****             /* Validate descriptor to execute on following DMA request. */
2154:Generated_Source\PSoC5/COM.c ****             COM_CyDmaValidateDescriptor(channelNum, COM_DMA_DESCR0);
2155:Generated_Source\PSoC5/COM.c **** 
2156:Generated_Source\PSoC5/COM.c ****             /* Enable DMA channel: configuration complete. */
2157:Generated_Source\PSoC5/COM.c ****             COM_CyDmaChEnable(channelNum);
2158:Generated_Source\PSoC5/COM.c **** 
2159:Generated_Source\PSoC5/COM.c ****             /* Generate DMA request. */
2160:Generated_Source\PSoC5/COM.c ****             COM_ARB_EP_BASE.arbEp[epNumber].epCfg |=  (uint32)  COM_ARB_EPX_CFG_DMA_REQ;
2161:Generated_Source\PSoC5/COM.c ****             COM_ARB_EP_BASE.arbEp[epNumber].epCfg &=  (uint32) ~COM_ARB_EPX_CFG_DMA_REQ;
2162:Generated_Source\PSoC5/COM.c **** 
2163:Generated_Source\PSoC5/COM.c ****             /* OUT endpoint has to be armed again by user when DMA transfers have been completed.
2164:Generated_Source\PSoC5/COM.c ****             * NO_EVENT_PENDING: notifies that data has been copied from endpoint buffer.
2165:Generated_Source\PSoC5/COM.c ****             */
2166:Generated_Source\PSoC5/COM.c ****         }
2167:Generated_Source\PSoC5/COM.c ****         #endif /* (COM_EP_MANAGEMENT_DMA_MANUAL) */
2168:Generated_Source\PSoC5/COM.c **** 
2169:Generated_Source\PSoC5/COM.c ****         #if (COM_EP_MANAGEMENT_DMA_AUTO)
2170:Generated_Source\PSoC5/COM.c ****         {
2171:Generated_Source\PSoC5/COM.c ****             uint32 lengthDescr0, lengthDescr1;
2172:Generated_Source\PSoC5/COM.c ****             uint32 channelNum = (uint32) COM_DmaChan[epNumber];
2173:Generated_Source\PSoC5/COM.c **** 
2174:Generated_Source\PSoC5/COM.c ****             /* Get number of full bursts. */
2175:Generated_Source\PSoC5/COM.c ****             COM_DmaEpBurstCnt[epNumber] = (uint8) (adjLength / COM_DMA_BYTES_PER_BURST);
2176:Generated_Source\PSoC5/COM.c **** 
2177:Generated_Source\PSoC5/COM.c ****             /* Get number of elements in last burst. */
2178:Generated_Source\PSoC5/COM.c ****             COM_DmaEpLastBurstEl[epNumber] = (uint8) (adjLength % COM_DMA_BYTES_PER_BURST);
2179:Generated_Source\PSoC5/COM.c **** 
2180:Generated_Source\PSoC5/COM.c ****             /* Get total number of bursts. */
2181:Generated_Source\PSoC5/COM.c ****             COM_DmaEpBurstCnt[epNumber] += (0u != COM_DmaEpLastBurstEl[epNumber]) ? 1u : 0u;
2182:Generated_Source\PSoC5/COM.c **** 
2183:Generated_Source\PSoC5/COM.c ****             /* Adjust number of data elements transferred in last burst. */
2184:Generated_Source\PSoC5/COM.c ****             COM_DmaEpLastBurstEl[epNumber] = (0u != COM_DmaEpLastBurstEl[epNumber]) ?
2185:Generated_Source\PSoC5/COM.c ****                                                                   ((COM_DmaEpLastBurstEl[epNumber] 
2186:Generated_Source\PSoC5/COM.c ****                                                                    (COM_DMA_HALFWORDS_PER_BURST - 1
ARM GAS  C:\Users\LUKASC~1\AppData\Local\Temp\ccb2ZD5o.s 			page 56


2187:Generated_Source\PSoC5/COM.c **** 
2188:Generated_Source\PSoC5/COM.c ****             /* Get number of data elements to transfer for descriptor 0 and 1. */
2189:Generated_Source\PSoC5/COM.c ****             lengthDescr0 = (1u == COM_DmaEpBurstCnt[epNumber]) ? COM_DmaEpLastBurstEl[epNumber] : (
2190:Generated_Source\PSoC5/COM.c ****             lengthDescr1 = (2u == COM_DmaEpBurstCnt[epNumber]) ? COM_DmaEpLastBurstEl[epNumber] : (
2191:Generated_Source\PSoC5/COM.c **** 
2192:Generated_Source\PSoC5/COM.c ****             /* Mark last descriptor to be executed. */
2193:Generated_Source\PSoC5/COM.c ****             COM_DmaEpLastBurstEl[epNumber] |= (0u != (COM_DmaEpBurstCnt[epNumber] & 0x1u)) ?
2194:Generated_Source\PSoC5/COM.c ****                                                                     COM_DMA_DESCR0_MASK : COM_DMA_D
2195:Generated_Source\PSoC5/COM.c **** 
2196:Generated_Source\PSoC5/COM.c ****             /* Mark if revert number of data elements in descriptor after transfer completion. */
2197:Generated_Source\PSoC5/COM.c ****             COM_DmaEpLastBurstEl[epNumber] |= (COM_DmaEpBurstCnt[epNumber] > 2u) ? COM_DMA_DESCR_RE
2198:Generated_Source\PSoC5/COM.c **** 
2199:Generated_Source\PSoC5/COM.c ****             /* Mark that 16-bits access to data register is performed. */
2200:Generated_Source\PSoC5/COM.c ****             COM_DmaEpLastBurstEl[epNumber] |= COM_DMA_DESCR_16BITS;
2201:Generated_Source\PSoC5/COM.c **** 
2202:Generated_Source\PSoC5/COM.c ****             /* Store address of buffer and burst counter for endpoint. */
2203:Generated_Source\PSoC5/COM.c ****             COM_DmaEpBufferAddrBackup[epNumber] = (uint32) pData;
2204:Generated_Source\PSoC5/COM.c ****             COM_DmaEpBurstCntBackup[epNumber]   = COM_DmaEpBurstCnt[epNumber];
2205:Generated_Source\PSoC5/COM.c **** 
2206:Generated_Source\PSoC5/COM.c ****             /* Adjust burst counter taking to account: 2 valid descriptors and interrupt trigger af
2207:Generated_Source\PSoC5/COM.c ****             COM_DmaEpBurstCnt[epNumber] = COM_DMA_GET_BURST_CNT(COM_DmaEpBurstCnt[epNumber]);
2208:Generated_Source\PSoC5/COM.c **** 
2209:Generated_Source\PSoC5/COM.c ****             /* Disable DMA channel: start configuration. */
2210:Generated_Source\PSoC5/COM.c ****             COM_CyDmaChDisable(channelNum);
2211:Generated_Source\PSoC5/COM.c **** 
2212:Generated_Source\PSoC5/COM.c ****             /* Set destination address. */
2213:Generated_Source\PSoC5/COM.c ****             COM_CyDmaSetSrcAddress(channelNum, COM_DMA_DESCR0, (void*) &COM_ARB_EP16_BASE.arbEp[epN
2214:Generated_Source\PSoC5/COM.c ****             COM_CyDmaSetSrcAddress(channelNum, COM_DMA_DESCR1, (void*) &COM_ARB_EP16_BASE.arbEp[epN
2215:Generated_Source\PSoC5/COM.c **** 
2216:Generated_Source\PSoC5/COM.c ****             COM_CyDmaSetDstAddress(channelNum, COM_DMA_DESCR0, (void*) ((uint32) pData));
2217:Generated_Source\PSoC5/COM.c ****             COM_CyDmaSetDstAddress(channelNum, COM_DMA_DESCR1, (void*) ((uint32) pData + COM_DMA_BY
2218:Generated_Source\PSoC5/COM.c **** 
2219:Generated_Source\PSoC5/COM.c ****             /* Configure DMA descriptor 0. */
2220:Generated_Source\PSoC5/COM.c ****             COM_CyDmaSetConfiguration(channelNum, COM_DMA_DESCR0, COM_DMA_COMMON_CFG  | lengthDescr
2221:Generated_Source\PSoC5/COM.c ****                                                     CYDMA_HALFWORD | CYDMA_WORD_ELEMENT | CYDMA_INC
2222:Generated_Source\PSoC5/COM.c **** 
2223:Generated_Source\PSoC5/COM.c ****             /* Configure DMA descriptor 1. */
2224:Generated_Source\PSoC5/COM.c ****             COM_CyDmaSetConfiguration(channelNum, COM_DMA_DESCR1, COM_DMA_COMMON_CFG  | lengthDescr
2225:Generated_Source\PSoC5/COM.c ****                                                     CYDMA_HALFWORD | CYDMA_WORD_ELEMENT | CYDMA_INC
2226:Generated_Source\PSoC5/COM.c **** 
2227:Generated_Source\PSoC5/COM.c ****             /* Enable interrupt from DMA channel. */
2228:Generated_Source\PSoC5/COM.c ****             COM_CyDmaSetInterruptMask(channelNum);
2229:Generated_Source\PSoC5/COM.c **** 
2230:Generated_Source\PSoC5/COM.c ****             /* Validate DMA descriptor 0 and 1. */
2231:Generated_Source\PSoC5/COM.c ****             COM_CyDmaValidateDescriptor(channelNum, COM_DMA_DESCR0);
2232:Generated_Source\PSoC5/COM.c ****             
2233:Generated_Source\PSoC5/COM.c ****             if (COM_DmaEpBurstCntBackup[epNumber] > 1u)
2234:Generated_Source\PSoC5/COM.c ****             {
2235:Generated_Source\PSoC5/COM.c ****                 COM_CyDmaValidateDescriptor(channelNum, COM_DMA_DESCR1);
2236:Generated_Source\PSoC5/COM.c ****             }
2237:Generated_Source\PSoC5/COM.c **** 
2238:Generated_Source\PSoC5/COM.c ****             /* Enable DMA channel: configuration complete. */
2239:Generated_Source\PSoC5/COM.c ****             COM_CyDmaChEnable(channelNum);
2240:Generated_Source\PSoC5/COM.c **** 
2241:Generated_Source\PSoC5/COM.c ****             /* OUT endpoint has to be armed again by user when DMA transfers have been completed.
2242:Generated_Source\PSoC5/COM.c ****             * NO_EVENT_PENDING: notifies that data has been copied from endpoint buffer.
2243:Generated_Source\PSoC5/COM.c ****             */
ARM GAS  C:\Users\LUKASC~1\AppData\Local\Temp\ccb2ZD5o.s 			page 57


2244:Generated_Source\PSoC5/COM.c ****         }
2245:Generated_Source\PSoC5/COM.c ****         #endif /* (COM_EP_MANAGEMENT_DMA_AUTO) */
2246:Generated_Source\PSoC5/COM.c ****     #endif /* (COM_EP_MANAGEMENT_MANUAL) */
2247:Generated_Source\PSoC5/COM.c ****     }
2248:Generated_Source\PSoC5/COM.c ****     else
2249:Generated_Source\PSoC5/COM.c ****     {
2250:Generated_Source\PSoC5/COM.c ****         length = 0u;
2251:Generated_Source\PSoC5/COM.c ****     }
2252:Generated_Source\PSoC5/COM.c **** 
2253:Generated_Source\PSoC5/COM.c ****     return (length);
2254:Generated_Source\PSoC5/COM.c **** }
2255:Generated_Source\PSoC5/COM.c **** #endif /* (COM_16BITS_EP_ACCESS_ENABLE) */
2256:Generated_Source\PSoC5/COM.c **** 
2257:Generated_Source\PSoC5/COM.c **** 
2258:Generated_Source\PSoC5/COM.c **** /*******************************************************************************
2259:Generated_Source\PSoC5/COM.c **** * Function Name: COM_EnableOutEP
2260:Generated_Source\PSoC5/COM.c **** ****************************************************************************//**
2261:Generated_Source\PSoC5/COM.c **** *
2262:Generated_Source\PSoC5/COM.c **** *  This function enables the specified endpoint for OUT transfers. Do not call
2263:Generated_Source\PSoC5/COM.c **** *  this function for IN endpoints.
2264:Generated_Source\PSoC5/COM.c **** *
2265:Generated_Source\PSoC5/COM.c **** *  \param epNumber: Contains the data endpoint number. Valid values are between
2266:Generated_Source\PSoC5/COM.c **** *  1 and 8.
2267:Generated_Source\PSoC5/COM.c **** *
2268:Generated_Source\PSoC5/COM.c **** * \globalvars
2269:Generated_Source\PSoC5/COM.c **** *
2270:Generated_Source\PSoC5/COM.c **** *  \ref COM_EP[epNumber].apiEpState - set to NO_EVENT_PENDING
2271:Generated_Source\PSoC5/COM.c **** *
2272:Generated_Source\PSoC5/COM.c **** * \reentrant
2273:Generated_Source\PSoC5/COM.c **** *  No.
2274:Generated_Source\PSoC5/COM.c **** *
2275:Generated_Source\PSoC5/COM.c **** *******************************************************************************/
2276:Generated_Source\PSoC5/COM.c **** void COM_EnableOutEP(uint8 epNumber) 
2277:Generated_Source\PSoC5/COM.c **** {
 940              		.loc 1 2277 0
 941              		.cfi_startproc
 942              		@ args = 0, pretend = 0, frame = 0
 943              		@ frame_needed = 0, uses_anonymous_args = 0
 944              		@ link register save eliminated.
 945              	.LVL64:
2278:Generated_Source\PSoC5/COM.c ****     if ((epNumber > COM_EP0) && (epNumber < COM_MAX_EP))
 946              		.loc 1 2278 0
 947 0000 431E     		subs	r3, r0, #1
 948 0002 DBB2     		uxtb	r3, r3
 949 0004 072B     		cmp	r3, #7
 950 0006 0BD8     		bhi	.L61
2279:Generated_Source\PSoC5/COM.c ****     {
2280:Generated_Source\PSoC5/COM.c ****         COM_EP[epNumber].apiEpState = COM_NO_EVENT_PENDING;
 951              		.loc 1 2280 0
 952 0008 4300     		lsls	r3, r0, #1
 953 000a 0344     		add	r3, r3, r0
 954 000c 9B00     		lsls	r3, r3, #2
 955 000e 054A     		ldr	r2, .L63
 956 0010 1344     		add	r3, r3, r2
 957 0012 0022     		movs	r2, #0
 958 0014 5A70     		strb	r2, [r3, #1]
2281:Generated_Source\PSoC5/COM.c **** 
ARM GAS  C:\Users\LUKASC~1\AppData\Local\Temp\ccb2ZD5o.s 			page 58


2282:Generated_Source\PSoC5/COM.c ****         /* Enable OUT endpoint to be written by Host. */
2283:Generated_Source\PSoC5/COM.c ****         COM_SIE_EP_BASE.sieEp[epNumber].epCr0 = COM_EP[epNumber].epMode;
 959              		.loc 1 2283 0
 960 0016 5A79     		ldrb	r2, [r3, #5]	@ zero_extendqisi2
 961 0018 D2B2     		uxtb	r2, r2
 962 001a 0001     		lsls	r0, r0, #4
 963              	.LVL65:
 964 001c 024B     		ldr	r3, .L63+4
 965 001e 1A54     		strb	r2, [r3, r0]
 966              	.L61:
 967 0020 7047     		bx	lr
 968              	.L64:
 969 0022 00BF     		.align	2
 970              	.L63:
 971 0024 00000000 		.word	COM_EP
 972 0028 FE5F0040 		.word	1073766398
 973              		.cfi_endproc
 974              	.LFE13:
 975              		.size	COM_EnableOutEP, .-COM_EnableOutEP
 976              		.section	.text.COM_ReadOutEP,"ax",%progbits
 977              		.align	2
 978              		.global	COM_ReadOutEP
 979              		.thumb
 980              		.thumb_func
 981              		.type	COM_ReadOutEP, %function
 982              	COM_ReadOutEP:
 983              	.LFB12:
1655:Generated_Source\PSoC5/COM.c ****     if ((pData != NULL) && (epNumber > COM_EP0) && (epNumber < COM_MAX_EP))
 984              		.loc 1 1655 0
 985              		.cfi_startproc
 986              		@ args = 0, pretend = 0, frame = 0
 987              		@ frame_needed = 0, uses_anonymous_args = 0
 988              	.LVL66:
 989 0000 70B5     		push	{r4, r5, r6, lr}
 990              		.cfi_def_cfa_offset 16
 991              		.cfi_offset 4, -16
 992              		.cfi_offset 5, -12
 993              		.cfi_offset 6, -8
 994              		.cfi_offset 14, -4
1656:Generated_Source\PSoC5/COM.c ****     {
 995              		.loc 1 1656 0
 996 0002 D9B1     		cbz	r1, .L70
 997 0004 0546     		mov	r5, r0
 998 0006 1446     		mov	r4, r2
 999 0008 0E46     		mov	r6, r1
1656:Generated_Source\PSoC5/COM.c ****     {
 1000              		.loc 1 1656 0 is_stmt 0 discriminator 1
 1001 000a C8B1     		cbz	r0, .L71
1656:Generated_Source\PSoC5/COM.c ****     {
 1002              		.loc 1 1656 0 discriminator 2
 1003 000c 0828     		cmp	r0, #8
 1004 000e 19D8     		bhi	.L72
1660:Generated_Source\PSoC5/COM.c ****     #endif /* (!COM_EP_MANAGEMENT_DMA_AUTO) */
 1005              		.loc 1 1660 0 is_stmt 1
 1006 0010 FFF7FEFF 		bl	COM_GetEPCount
 1007              	.LVL67:
 1008 0014 A042     		cmp	r0, r4
ARM GAS  C:\Users\LUKASC~1\AppData\Local\Temp\ccb2ZD5o.s 			page 59


 1009 0016 03D2     		bcs	.L67
1660:Generated_Source\PSoC5/COM.c ****     #endif /* (!COM_EP_MANAGEMENT_DMA_AUTO) */
 1010              		.loc 1 1660 0 is_stmt 0 discriminator 1
 1011 0018 2846     		mov	r0, r5
 1012 001a FFF7FEFF 		bl	COM_GetEPCount
 1013              	.LVL68:
 1014 001e 0446     		mov	r4, r0
 1015              	.L67:
 1016              	.LVL69:
 1017              	.LBB4:
1667:Generated_Source\PSoC5/COM.c ****             {
 1018              		.loc 1 1667 0 is_stmt 1 discriminator 4
 1019 0020 0023     		movs	r3, #0
 1020 0022 05E0     		b	.L68
 1021              	.LVL70:
 1022              	.L69:
1669:Generated_Source\PSoC5/COM.c ****             }
 1023              		.loc 1 1669 0 discriminator 3
 1024 0024 2901     		lsls	r1, r5, #4
 1025 0026 094A     		ldr	r2, .L74
 1026 0028 525C     		ldrb	r2, [r2, r1]	@ zero_extendqisi2
 1027 002a F254     		strb	r2, [r6, r3]
1667:Generated_Source\PSoC5/COM.c ****             {
 1028              		.loc 1 1667 0 discriminator 3
 1029 002c 0133     		adds	r3, r3, #1
 1030              	.LVL71:
 1031 002e 9BB2     		uxth	r3, r3
 1032              	.LVL72:
 1033              	.L68:
1667:Generated_Source\PSoC5/COM.c ****             {
 1034              		.loc 1 1667 0 is_stmt 0 discriminator 1
 1035 0030 A342     		cmp	r3, r4
 1036 0032 F7D3     		bcc	.L69
 1037              	.LBE4:
1674:Generated_Source\PSoC5/COM.c ****     #else
 1038              		.loc 1 1674 0 is_stmt 1
 1039 0034 2846     		mov	r0, r5
 1040 0036 FFF7FEFF 		bl	COM_EnableOutEP
 1041              	.LVL73:
 1042 003a 04E0     		b	.L66
 1043              	.LVL74:
 1044              	.L70:
1820:Generated_Source\PSoC5/COM.c ****     }
 1045              		.loc 1 1820 0
 1046 003c 0024     		movs	r4, #0
 1047 003e 02E0     		b	.L66
 1048              	.L71:
 1049 0040 0024     		movs	r4, #0
 1050 0042 00E0     		b	.L66
 1051              	.L72:
 1052 0044 0024     		movs	r4, #0
 1053              	.LVL75:
 1054              	.L66:
1824:Generated_Source\PSoC5/COM.c **** 
 1055              		.loc 1 1824 0
 1056 0046 2046     		mov	r0, r4
 1057 0048 70BD     		pop	{r4, r5, r6, pc}
ARM GAS  C:\Users\LUKASC~1\AppData\Local\Temp\ccb2ZD5o.s 			page 60


 1058              	.LVL76:
 1059              	.L75:
 1060 004a 00BF     		.align	2
 1061              	.L74:
 1062 004c 78600040 		.word	1073766520
 1063              		.cfi_endproc
 1064              	.LFE12:
 1065              		.size	COM_ReadOutEP, .-COM_ReadOutEP
 1066              		.section	.text.COM_DisableOutEP,"ax",%progbits
 1067              		.align	2
 1068              		.global	COM_DisableOutEP
 1069              		.thumb
 1070              		.thumb_func
 1071              		.type	COM_DisableOutEP, %function
 1072              	COM_DisableOutEP:
 1073              	.LFB14:
2284:Generated_Source\PSoC5/COM.c ****         
2285:Generated_Source\PSoC5/COM.c ****     }
2286:Generated_Source\PSoC5/COM.c **** }
2287:Generated_Source\PSoC5/COM.c **** 
2288:Generated_Source\PSoC5/COM.c **** 
2289:Generated_Source\PSoC5/COM.c **** /*******************************************************************************
2290:Generated_Source\PSoC5/COM.c **** * Function Name: COM_DisableOutEP
2291:Generated_Source\PSoC5/COM.c **** ****************************************************************************//**
2292:Generated_Source\PSoC5/COM.c **** *
2293:Generated_Source\PSoC5/COM.c **** *  This function disables the specified USBFS OUT endpoint. Do not call this
2294:Generated_Source\PSoC5/COM.c **** *  function for IN endpoints.
2295:Generated_Source\PSoC5/COM.c **** *
2296:Generated_Source\PSoC5/COM.c **** *  \param epNumber: Contains the data endpoint number.
2297:Generated_Source\PSoC5/COM.c **** *            Valid values are between 1 and 8.
2298:Generated_Source\PSoC5/COM.c **** *
2299:Generated_Source\PSoC5/COM.c **** *******************************************************************************/
2300:Generated_Source\PSoC5/COM.c **** void COM_DisableOutEP(uint8 epNumber) 
2301:Generated_Source\PSoC5/COM.c **** {
 1074              		.loc 1 2301 0
 1075              		.cfi_startproc
 1076              		@ args = 0, pretend = 0, frame = 0
 1077              		@ frame_needed = 0, uses_anonymous_args = 0
 1078              		@ link register save eliminated.
 1079              	.LVL77:
2302:Generated_Source\PSoC5/COM.c ****     if ((epNumber > COM_EP0) && (epNumber < COM_MAX_EP))
 1080              		.loc 1 2302 0
 1081 0000 431E     		subs	r3, r0, #1
 1082 0002 DBB2     		uxtb	r3, r3
 1083 0004 072B     		cmp	r3, #7
 1084 0006 03D8     		bhi	.L76
2303:Generated_Source\PSoC5/COM.c ****     {
2304:Generated_Source\PSoC5/COM.c ****         /* Set NAK response for OUT endpoint. */
2305:Generated_Source\PSoC5/COM.c ****         COM_SIE_EP_BASE.sieEp[epNumber].epCr0 = COM_MODE_NAK_OUT;
 1085              		.loc 1 2305 0
 1086 0008 0001     		lsls	r0, r0, #4
 1087              	.LVL78:
 1088 000a 024B     		ldr	r3, .L78
 1089 000c 0822     		movs	r2, #8
 1090 000e 1A54     		strb	r2, [r3, r0]
 1091              	.L76:
 1092 0010 7047     		bx	lr
ARM GAS  C:\Users\LUKASC~1\AppData\Local\Temp\ccb2ZD5o.s 			page 61


 1093              	.L79:
 1094 0012 00BF     		.align	2
 1095              	.L78:
 1096 0014 FE5F0040 		.word	1073766398
 1097              		.cfi_endproc
 1098              	.LFE14:
 1099              		.size	COM_DisableOutEP, .-COM_DisableOutEP
 1100              		.section	.text.COM_Force,"ax",%progbits
 1101              		.align	2
 1102              		.global	COM_Force
 1103              		.thumb
 1104              		.thumb_func
 1105              		.type	COM_Force, %function
 1106              	COM_Force:
 1107              	.LFB15:
2306:Generated_Source\PSoC5/COM.c ****     }
2307:Generated_Source\PSoC5/COM.c **** }
2308:Generated_Source\PSoC5/COM.c **** 
2309:Generated_Source\PSoC5/COM.c **** 
2310:Generated_Source\PSoC5/COM.c **** /*******************************************************************************
2311:Generated_Source\PSoC5/COM.c **** * Function Name: COM_Force
2312:Generated_Source\PSoC5/COM.c **** ****************************************************************************//**
2313:Generated_Source\PSoC5/COM.c **** *
2314:Generated_Source\PSoC5/COM.c **** *  This function forces a USB J, K, or SE0 state on the D+/D– lines. It provides
2315:Generated_Source\PSoC5/COM.c **** *  the necessary mechanism for a USB device application to perform a USB Remote
2316:Generated_Source\PSoC5/COM.c **** *  Wakeup. For more information, see the USB 2.0 Specification for details on
2317:Generated_Source\PSoC5/COM.c **** *  Suspend and Resume.
2318:Generated_Source\PSoC5/COM.c **** *
2319:Generated_Source\PSoC5/COM.c **** *  \param state A byte indicating which of the four bus states to enable.
2320:Generated_Source\PSoC5/COM.c **** *        Symbolic names  and their associated values are listed here:
2321:Generated_Source\PSoC5/COM.c **** *    State                      |Description
2322:Generated_Source\PSoC5/COM.c **** *    ---------------------------|----------------------------------------------
2323:Generated_Source\PSoC5/COM.c **** *    COM_FORCE_J   | Force a J State onto the D+/D– lines
2324:Generated_Source\PSoC5/COM.c **** *    COM_FORCE_K   | Force a K State onto the D+/D– lines
2325:Generated_Source\PSoC5/COM.c **** *    COM_FORCE_SE0 | Force a Single Ended 0 onto the D+/D– lines
2326:Generated_Source\PSoC5/COM.c **** *    COM_FORCE_NONE| Return bus to SIE control
2327:Generated_Source\PSoC5/COM.c **** *
2328:Generated_Source\PSoC5/COM.c **** *
2329:Generated_Source\PSoC5/COM.c **** *******************************************************************************/
2330:Generated_Source\PSoC5/COM.c **** void COM_Force(uint8 bState) 
2331:Generated_Source\PSoC5/COM.c **** {
 1108              		.loc 1 2331 0
 1109              		.cfi_startproc
 1110              		@ args = 0, pretend = 0, frame = 0
 1111              		@ frame_needed = 0, uses_anonymous_args = 0
 1112              		@ link register save eliminated.
 1113              	.LVL79:
2332:Generated_Source\PSoC5/COM.c ****     /* This registers is used only for manual control of SIE (no masking is
2333:Generated_Source\PSoC5/COM.c ****     * needed before write into it).
2334:Generated_Source\PSoC5/COM.c ****     */
2335:Generated_Source\PSoC5/COM.c ****     COM_USBIO_CR0_REG = bState;
 1114              		.loc 1 2335 0
 1115 0000 014B     		ldr	r3, .L81
 1116 0002 1870     		strb	r0, [r3]
 1117 0004 7047     		bx	lr
 1118              	.L82:
 1119 0006 00BF     		.align	2
ARM GAS  C:\Users\LUKASC~1\AppData\Local\Temp\ccb2ZD5o.s 			page 62


 1120              	.L81:
 1121 0008 10600040 		.word	1073766416
 1122              		.cfi_endproc
 1123              	.LFE15:
 1124              		.size	COM_Force, .-COM_Force
 1125              		.section	.text.COM_GetEPAckState,"ax",%progbits
 1126              		.align	2
 1127              		.global	COM_GetEPAckState
 1128              		.thumb
 1129              		.thumb_func
 1130              		.type	COM_GetEPAckState, %function
 1131              	COM_GetEPAckState:
 1132              	.LFB16:
2336:Generated_Source\PSoC5/COM.c **** }
2337:Generated_Source\PSoC5/COM.c **** 
2338:Generated_Source\PSoC5/COM.c **** 
2339:Generated_Source\PSoC5/COM.c **** /*******************************************************************************
2340:Generated_Source\PSoC5/COM.c **** * Function Name: COM_GetEPAckState
2341:Generated_Source\PSoC5/COM.c **** ****************************************************************************//**
2342:Generated_Source\PSoC5/COM.c **** *
2343:Generated_Source\PSoC5/COM.c **** *  This function determines whether an ACK transaction occurred on this endpoint
2344:Generated_Source\PSoC5/COM.c **** *  by reading the ACK bit in the control register of the endpoint. It does not
2345:Generated_Source\PSoC5/COM.c **** *  clear the ACK bit.
2346:Generated_Source\PSoC5/COM.c **** *
2347:Generated_Source\PSoC5/COM.c **** *  \param epNumber Contains the data endpoint number.
2348:Generated_Source\PSoC5/COM.c **** *            Valid values are between 1 and 8.
2349:Generated_Source\PSoC5/COM.c **** *
2350:Generated_Source\PSoC5/COM.c **** *  \return
2351:Generated_Source\PSoC5/COM.c **** *  If an ACKed transaction occurred, this function returns a non-zero value.
2352:Generated_Source\PSoC5/COM.c **** *  Otherwise, it returns zero.
2353:Generated_Source\PSoC5/COM.c **** *
2354:Generated_Source\PSoC5/COM.c **** *******************************************************************************/
2355:Generated_Source\PSoC5/COM.c **** uint8 COM_GetEPAckState(uint8 epNumber) 
2356:Generated_Source\PSoC5/COM.c **** {
 1133              		.loc 1 2356 0
 1134              		.cfi_startproc
 1135              		@ args = 0, pretend = 0, frame = 0
 1136              		@ frame_needed = 0, uses_anonymous_args = 0
 1137              		@ link register save eliminated.
 1138              	.LVL80:
2357:Generated_Source\PSoC5/COM.c ****     uint8 cr = 0u;
2358:Generated_Source\PSoC5/COM.c **** 
2359:Generated_Source\PSoC5/COM.c ****     if ((epNumber > COM_EP0) && (epNumber < COM_MAX_EP))
 1139              		.loc 1 2359 0
 1140 0000 431E     		subs	r3, r0, #1
 1141 0002 DBB2     		uxtb	r3, r3
 1142 0004 072B     		cmp	r3, #7
 1143 0006 06D8     		bhi	.L85
2360:Generated_Source\PSoC5/COM.c ****     {
2361:Generated_Source\PSoC5/COM.c ****         cr = COM_SIE_EP_BASE.sieEp[epNumber].epCr0 & COM_MODE_ACKD;
 1144              		.loc 1 2361 0
 1145 0008 0001     		lsls	r0, r0, #4
 1146              	.LVL81:
 1147 000a 044B     		ldr	r3, .L86
 1148 000c 185C     		ldrb	r0, [r3, r0]	@ zero_extendqisi2
 1149 000e 00F01000 		and	r0, r0, #16
 1150 0012 C0B2     		uxtb	r0, r0
ARM GAS  C:\Users\LUKASC~1\AppData\Local\Temp\ccb2ZD5o.s 			page 63


 1151              	.LVL82:
 1152 0014 7047     		bx	lr
 1153              	.LVL83:
 1154              	.L85:
2357:Generated_Source\PSoC5/COM.c ****     uint8 cr = 0u;
 1155              		.loc 1 2357 0
 1156 0016 0020     		movs	r0, #0
 1157              	.LVL84:
2362:Generated_Source\PSoC5/COM.c ****     }
2363:Generated_Source\PSoC5/COM.c **** 
2364:Generated_Source\PSoC5/COM.c ****     return ((uint8) cr);
2365:Generated_Source\PSoC5/COM.c **** }
 1158              		.loc 1 2365 0
 1159 0018 7047     		bx	lr
 1160              	.L87:
 1161 001a 00BF     		.align	2
 1162              	.L86:
 1163 001c FE5F0040 		.word	1073766398
 1164              		.cfi_endproc
 1165              	.LFE16:
 1166              		.size	COM_GetEPAckState, .-COM_GetEPAckState
 1167              		.section	.text.COM_SetPowerStatus,"ax",%progbits
 1168              		.align	2
 1169              		.global	COM_SetPowerStatus
 1170              		.thumb
 1171              		.thumb_func
 1172              		.type	COM_SetPowerStatus, %function
 1173              	COM_SetPowerStatus:
 1174              	.LFB17:
2366:Generated_Source\PSoC5/COM.c **** 
2367:Generated_Source\PSoC5/COM.c **** 
2368:Generated_Source\PSoC5/COM.c **** /*******************************************************************************
2369:Generated_Source\PSoC5/COM.c **** * Function Name: COM_SetPowerStatus
2370:Generated_Source\PSoC5/COM.c **** ****************************************************************************//**
2371:Generated_Source\PSoC5/COM.c **** *
2372:Generated_Source\PSoC5/COM.c **** *  This function sets the current power status. The device replies to USB
2373:Generated_Source\PSoC5/COM.c **** *  GET_STATUS requests based on this value. This allows the device to properly
2374:Generated_Source\PSoC5/COM.c **** *  report its status for USB Chapter 9 compliance. Devices can change their
2375:Generated_Source\PSoC5/COM.c **** *  power source from self powered to bus powered at any time and report their
2376:Generated_Source\PSoC5/COM.c **** *  current power source as part of the device status. You should call this
2377:Generated_Source\PSoC5/COM.c **** *  function any time your device changes from self powered to bus powered or
2378:Generated_Source\PSoC5/COM.c **** *  vice versa, and set the status appropriately.
2379:Generated_Source\PSoC5/COM.c **** *
2380:Generated_Source\PSoC5/COM.c **** *  \param powerStatus: Contains the desired power status, one for self powered
2381:Generated_Source\PSoC5/COM.c **** *        or zero for bus powered. Symbolic names and their associated values are
2382:Generated_Source\PSoC5/COM.c **** *        given here:
2383:Generated_Source\PSoC5/COM.c **** *  Power Status                                |Description
2384:Generated_Source\PSoC5/COM.c **** *  --------------------------------------------|---------------------------
2385:Generated_Source\PSoC5/COM.c **** *  COM_DEVICE_STATUS_BUS_POWERED  | Set the device to bus powered
2386:Generated_Source\PSoC5/COM.c **** *  COM_DEVICE_STATUS_SELF_POWERED | Set the device to self powered
2387:Generated_Source\PSoC5/COM.c **** *
2388:Generated_Source\PSoC5/COM.c **** * \globalvars
2389:Generated_Source\PSoC5/COM.c **** *
2390:Generated_Source\PSoC5/COM.c **** *  \ref COM_deviceStatus - set power status
2391:Generated_Source\PSoC5/COM.c **** *
2392:Generated_Source\PSoC5/COM.c **** * \reentrant
2393:Generated_Source\PSoC5/COM.c **** *  No.
ARM GAS  C:\Users\LUKASC~1\AppData\Local\Temp\ccb2ZD5o.s 			page 64


2394:Generated_Source\PSoC5/COM.c **** *
2395:Generated_Source\PSoC5/COM.c **** *******************************************************************************/
2396:Generated_Source\PSoC5/COM.c **** void COM_SetPowerStatus(uint8 powerStatus) 
2397:Generated_Source\PSoC5/COM.c **** {
 1175              		.loc 1 2397 0
 1176              		.cfi_startproc
 1177              		@ args = 0, pretend = 0, frame = 0
 1178              		@ frame_needed = 0, uses_anonymous_args = 0
 1179              		@ link register save eliminated.
 1180              	.LVL85:
2398:Generated_Source\PSoC5/COM.c ****     if (powerStatus != COM_DEVICE_STATUS_BUS_POWERED)
 1181              		.loc 1 2398 0
 1182 0000 28B1     		cbz	r0, .L89
2399:Generated_Source\PSoC5/COM.c ****     {
2400:Generated_Source\PSoC5/COM.c ****         COM_deviceStatus |= (uint8)  COM_DEVICE_STATUS_SELF_POWERED;
 1183              		.loc 1 2400 0
 1184 0002 064A     		ldr	r2, .L91
 1185 0004 1378     		ldrb	r3, [r2]	@ zero_extendqisi2
 1186 0006 43F00103 		orr	r3, r3, #1
 1187 000a 1370     		strb	r3, [r2]
 1188 000c 7047     		bx	lr
 1189              	.L89:
2401:Generated_Source\PSoC5/COM.c ****     }
2402:Generated_Source\PSoC5/COM.c ****     else
2403:Generated_Source\PSoC5/COM.c ****     {
2404:Generated_Source\PSoC5/COM.c ****         COM_deviceStatus &= (uint8) ~COM_DEVICE_STATUS_SELF_POWERED;
 1190              		.loc 1 2404 0
 1191 000e 034A     		ldr	r2, .L91
 1192 0010 1378     		ldrb	r3, [r2]	@ zero_extendqisi2
 1193 0012 03F0FE03 		and	r3, r3, #254
 1194 0016 1370     		strb	r3, [r2]
 1195 0018 7047     		bx	lr
 1196              	.L92:
 1197 001a 00BF     		.align	2
 1198              	.L91:
 1199 001c 00000000 		.word	COM_deviceStatus
 1200              		.cfi_endproc
 1201              	.LFE17:
 1202              		.size	COM_SetPowerStatus, .-COM_SetPowerStatus
 1203              		.section	.text.COM_RWUEnabled,"ax",%progbits
 1204              		.align	2
 1205              		.global	COM_RWUEnabled
 1206              		.thumb
 1207              		.thumb_func
 1208              		.type	COM_RWUEnabled, %function
 1209              	COM_RWUEnabled:
 1210              	.LFB18:
2405:Generated_Source\PSoC5/COM.c ****     }
2406:Generated_Source\PSoC5/COM.c **** }
2407:Generated_Source\PSoC5/COM.c **** 
2408:Generated_Source\PSoC5/COM.c **** 
2409:Generated_Source\PSoC5/COM.c **** #if (COM_VBUS_MONITORING_ENABLE)
2410:Generated_Source\PSoC5/COM.c ****     /***************************************************************************
2411:Generated_Source\PSoC5/COM.c ****     * Function Name: COM_VBusPresent
2412:Generated_Source\PSoC5/COM.c ****     ************************************************************************//**
2413:Generated_Source\PSoC5/COM.c ****     *
2414:Generated_Source\PSoC5/COM.c ****     *  Determines VBUS presence for self-powered devices. This function is
ARM GAS  C:\Users\LUKASC~1\AppData\Local\Temp\ccb2ZD5o.s 			page 65


2415:Generated_Source\PSoC5/COM.c ****     *  available when the VBUS Monitoring option is enabled in the Advanced tab.
2416:Generated_Source\PSoC5/COM.c ****     *
2417:Generated_Source\PSoC5/COM.c ****     * \return
2418:Generated_Source\PSoC5/COM.c ****     *  The return value can be the following:
2419:Generated_Source\PSoC5/COM.c ****     *  Return Value | Description
2420:Generated_Source\PSoC5/COM.c ****     *  -------------|-----------------
2421:Generated_Source\PSoC5/COM.c ****     *  1            | VBUS is present
2422:Generated_Source\PSoC5/COM.c ****     *  0            | VBUS is absent
2423:Generated_Source\PSoC5/COM.c ****     *
2424:Generated_Source\PSoC5/COM.c ****     *
2425:Generated_Source\PSoC5/COM.c ****     ***************************************************************************/
2426:Generated_Source\PSoC5/COM.c ****     uint8 COM_VBusPresent(void) 
2427:Generated_Source\PSoC5/COM.c ****     {
2428:Generated_Source\PSoC5/COM.c ****         return ((0u != (COM_VBUS_STATUS_REG & COM_VBUS_VALID)) ? (uint8) 1u : (uint8) 0u);
2429:Generated_Source\PSoC5/COM.c ****     }
2430:Generated_Source\PSoC5/COM.c **** #endif /* (COM_VBUS_MONITORING_ENABLE) */
2431:Generated_Source\PSoC5/COM.c **** 
2432:Generated_Source\PSoC5/COM.c **** 
2433:Generated_Source\PSoC5/COM.c **** /*******************************************************************************
2434:Generated_Source\PSoC5/COM.c **** * Function Name: COM_RWUEnabled
2435:Generated_Source\PSoC5/COM.c **** ****************************************************************************//**
2436:Generated_Source\PSoC5/COM.c **** *
2437:Generated_Source\PSoC5/COM.c **** *  This function returns the current remote wakeup status.
2438:Generated_Source\PSoC5/COM.c **** *  If the device supports remote wakeup, the application should use this
2439:Generated_Source\PSoC5/COM.c **** *  function to determine if remote wakeup was enabled by the host. When the
2440:Generated_Source\PSoC5/COM.c **** *  device is suspended and it determines the conditions to initiate a remote
2441:Generated_Source\PSoC5/COM.c **** *  wakeup are met, the application should use the USBFS_Force() function to
2442:Generated_Source\PSoC5/COM.c **** *  force the appropriate J and K states onto the USB bus, signaling a remote
2443:Generated_Source\PSoC5/COM.c **** *  wakeup.
2444:Generated_Source\PSoC5/COM.c **** *
2445:Generated_Source\PSoC5/COM.c **** *
2446:Generated_Source\PSoC5/COM.c **** * \return
2447:Generated_Source\PSoC5/COM.c **** *  Returns non-zero value if remote wakeup is enabled and zero otherwise.
2448:Generated_Source\PSoC5/COM.c **** *
2449:Generated_Source\PSoC5/COM.c **** * \globalvars
2450:Generated_Source\PSoC5/COM.c **** *  COM_deviceStatus - checked to determine remote status
2451:Generated_Source\PSoC5/COM.c **** *
2452:Generated_Source\PSoC5/COM.c **** *******************************************************************************/
2453:Generated_Source\PSoC5/COM.c **** uint8 COM_RWUEnabled(void) 
2454:Generated_Source\PSoC5/COM.c **** {
 1211              		.loc 1 2454 0
 1212              		.cfi_startproc
 1213              		@ args = 0, pretend = 0, frame = 0
 1214              		@ frame_needed = 0, uses_anonymous_args = 0
 1215              		@ link register save eliminated.
 1216              	.LVL86:
2455:Generated_Source\PSoC5/COM.c ****     uint8 result = COM_FALSE;
2456:Generated_Source\PSoC5/COM.c **** 
2457:Generated_Source\PSoC5/COM.c ****     if (0u != (COM_deviceStatus & COM_DEVICE_STATUS_REMOTE_WAKEUP))
 1217              		.loc 1 2457 0
 1218 0000 044B     		ldr	r3, .L96
 1219 0002 1B78     		ldrb	r3, [r3]	@ zero_extendqisi2
 1220 0004 13F0020F 		tst	r3, #2
 1221 0008 01D1     		bne	.L95
2455:Generated_Source\PSoC5/COM.c ****     uint8 result = COM_FALSE;
 1222              		.loc 1 2455 0
 1223 000a 0020     		movs	r0, #0
ARM GAS  C:\Users\LUKASC~1\AppData\Local\Temp\ccb2ZD5o.s 			page 66


 1224 000c 7047     		bx	lr
 1225              	.L95:
2458:Generated_Source\PSoC5/COM.c ****     {
2459:Generated_Source\PSoC5/COM.c ****         result = COM_TRUE;
 1226              		.loc 1 2459 0
 1227 000e 0120     		movs	r0, #1
 1228              	.LVL87:
2460:Generated_Source\PSoC5/COM.c ****     }
2461:Generated_Source\PSoC5/COM.c **** 
2462:Generated_Source\PSoC5/COM.c ****     return (result);
2463:Generated_Source\PSoC5/COM.c **** }
 1229              		.loc 1 2463 0
 1230 0010 7047     		bx	lr
 1231              	.L97:
 1232 0012 00BF     		.align	2
 1233              	.L96:
 1234 0014 00000000 		.word	COM_deviceStatus
 1235              		.cfi_endproc
 1236              	.LFE18:
 1237              		.size	COM_RWUEnabled, .-COM_RWUEnabled
 1238              		.section	.text.COM_GetDeviceAddress,"ax",%progbits
 1239              		.align	2
 1240              		.global	COM_GetDeviceAddress
 1241              		.thumb
 1242              		.thumb_func
 1243              		.type	COM_GetDeviceAddress, %function
 1244              	COM_GetDeviceAddress:
 1245              	.LFB19:
2464:Generated_Source\PSoC5/COM.c **** 
2465:Generated_Source\PSoC5/COM.c **** 
2466:Generated_Source\PSoC5/COM.c **** /*******************************************************************************
2467:Generated_Source\PSoC5/COM.c **** * Function Name: COM_GetDeviceAddress
2468:Generated_Source\PSoC5/COM.c **** ****************************************************************************//**
2469:Generated_Source\PSoC5/COM.c **** *
2470:Generated_Source\PSoC5/COM.c **** *  This function returns the currently assigned address for the USB device.
2471:Generated_Source\PSoC5/COM.c **** *
2472:Generated_Source\PSoC5/COM.c **** * \return
2473:Generated_Source\PSoC5/COM.c **** *  Returns the currently assigned address.
2474:Generated_Source\PSoC5/COM.c **** *  Returns 0 if the device has not yet been assigned an address.
2475:Generated_Source\PSoC5/COM.c **** *
2476:Generated_Source\PSoC5/COM.c **** *******************************************************************************/
2477:Generated_Source\PSoC5/COM.c **** uint8 COM_GetDeviceAddress(void) 
2478:Generated_Source\PSoC5/COM.c **** {
 1246              		.loc 1 2478 0
 1247              		.cfi_startproc
 1248              		@ args = 0, pretend = 0, frame = 0
 1249              		@ frame_needed = 0, uses_anonymous_args = 0
 1250              		@ link register save eliminated.
2479:Generated_Source\PSoC5/COM.c ****     return (uint8)(COM_CR0_REG & COM_CR0_DEVICE_ADDRESS_MASK);
 1251              		.loc 1 2479 0
 1252 0000 024B     		ldr	r3, .L99
 1253 0002 1878     		ldrb	r0, [r3]	@ zero_extendqisi2
2480:Generated_Source\PSoC5/COM.c **** }
 1254              		.loc 1 2480 0
 1255 0004 00F07F00 		and	r0, r0, #127
 1256 0008 7047     		bx	lr
 1257              	.L100:
ARM GAS  C:\Users\LUKASC~1\AppData\Local\Temp\ccb2ZD5o.s 			page 67


 1258 000a 00BF     		.align	2
 1259              	.L99:
 1260 000c 08600040 		.word	1073766408
 1261              		.cfi_endproc
 1262              	.LFE19:
 1263              		.size	COM_GetDeviceAddress, .-COM_GetDeviceAddress
 1264              		.section	.text.COM_EnableSofInt,"ax",%progbits
 1265              		.align	2
 1266              		.global	COM_EnableSofInt
 1267              		.thumb
 1268              		.thumb_func
 1269              		.type	COM_EnableSofInt, %function
 1270              	COM_EnableSofInt:
 1271              	.LFB20:
2481:Generated_Source\PSoC5/COM.c **** 
2482:Generated_Source\PSoC5/COM.c **** 
2483:Generated_Source\PSoC5/COM.c **** /*******************************************************************************
2484:Generated_Source\PSoC5/COM.c **** * Function Name: COM_EnableSofInt
2485:Generated_Source\PSoC5/COM.c **** ****************************************************************************//**
2486:Generated_Source\PSoC5/COM.c **** *
2487:Generated_Source\PSoC5/COM.c **** *  This function enables interrupt generation when a Start-of-Frame (SOF)
2488:Generated_Source\PSoC5/COM.c **** *  packet is received from the host.
2489:Generated_Source\PSoC5/COM.c **** *
2490:Generated_Source\PSoC5/COM.c **** *******************************************************************************/
2491:Generated_Source\PSoC5/COM.c **** void COM_EnableSofInt(void) 
2492:Generated_Source\PSoC5/COM.c **** {
 1272              		.loc 1 2492 0
 1273              		.cfi_startproc
 1274              		@ args = 0, pretend = 0, frame = 0
 1275              		@ frame_needed = 0, uses_anonymous_args = 0
