Archive member included because of file (symbol)

.\CortexM3\ARM_GCC_493\Debug\Controls.a(cyfitter_cfg.o)
                              .\CortexM3\ARM_GCC_493\Debug\Cm3Start.o (cyfitter_cfg)
.\CortexM3\ARM_GCC_493\Debug\Controls.a(Enter_SW.o)
                              .\CortexM3\ARM_GCC_493\Debug\main.o (Enter_SW_Read)
.\CortexM3\ARM_GCC_493\Debug\Controls.a(Power_LED.o)
                              .\CortexM3\ARM_GCC_493\Debug\main.o (Power_LED_Write)
.\CortexM3\ARM_GCC_493\Debug\Controls.a(D3_LED.o)
                              .\CortexM3\ARM_GCC_493\Debug\main.o (D3_LED_Write)
.\CortexM3\ARM_GCC_493\Debug\Controls.a(Power_SW.o)
                              .\CortexM3\ARM_GCC_493\Debug\main.o (Power_SW_Read)
.\CortexM3\ARM_GCC_493\Debug\Controls.a(Left_SW.o)
                              .\CortexM3\ARM_GCC_493\Debug\main.o (Left_SW_Read)
.\CortexM3\ARM_GCC_493\Debug\Controls.a(Right_SW.o)
                              .\CortexM3\ARM_GCC_493\Debug\main.o (Right_SW_Read)
.\CortexM3\ARM_GCC_493\Debug\Controls.a(Down_SW.o)
                              .\CortexM3\ARM_GCC_493\Debug\main.o (Down_SW_Read)
.\CortexM3\ARM_GCC_493\Debug\Controls.a(D2_LED.o)
                              .\CortexM3\ARM_GCC_493\Debug\main.o (D2_LED_Write)
.\CortexM3\ARM_GCC_493\Debug\Controls.a(Up_SW.o)
                              .\CortexM3\ARM_GCC_493\Debug\main.o (Up_SW_Read)
.\CortexM3\ARM_GCC_493\Debug\Controls.a(Input_1_SW.o)
                              .\CortexM3\ARM_GCC_493\Debug\main.o (Input_1_SW_Read)
.\CortexM3\ARM_GCC_493\Debug\Controls.a(Input_2_SW.o)
                              .\CortexM3\ARM_GCC_493\Debug\main.o (Input_2_SW_Read)
.\CortexM3\ARM_GCC_493\Debug\Controls.a(D1_LED.o)
                              .\CortexM3\ARM_GCC_493\Debug\main.o (D1_LED_Write)
.\CortexM3\ARM_GCC_493\Debug\Controls.a(U1_LED.o)
                              .\CortexM3\ARM_GCC_493\Debug\main.o (U1_LED_Write)
.\CortexM3\ARM_GCC_493\Debug\Controls.a(U2_LED.o)
                              .\CortexM3\ARM_GCC_493\Debug\main.o (U2_LED_Write)
.\CortexM3\ARM_GCC_493\Debug\Controls.a(U3_LED.o)
                              .\CortexM3\ARM_GCC_493\Debug\main.o (U3_LED_Write)
.\CortexM3\ARM_GCC_493\Debug\Controls.a(U4_LED.o)
                              .\CortexM3\ARM_GCC_493\Debug\main.o (U4_LED_Write)
.\CortexM3\ARM_GCC_493\Debug\Controls.a(U5_LED.o)
                              .\CortexM3\ARM_GCC_493\Debug\main.o (U5_LED_Write)
.\CortexM3\ARM_GCC_493\Debug\Controls.a(U6_LED.o)
                              .\CortexM3\ARM_GCC_493\Debug\main.o (U6_LED_Write)
.\CortexM3\ARM_GCC_493\Debug\Controls.a(U7_LED.o)
                              .\CortexM3\ARM_GCC_493\Debug\main.o (U7_LED_Write)
.\CortexM3\ARM_GCC_493\Debug\Controls.a(U8_LED.o)
                              .\CortexM3\ARM_GCC_493\Debug\main.o (U8_LED_Write)
.\CortexM3\ARM_GCC_493\Debug\Controls.a(CyLib.o)
                              .\CortexM3\ARM_GCC_493\Debug\Cm3Start.o (CyHalt)
.\CortexM3\ARM_GCC_493\Debug\Controls.a(cyPm.o)
                              .\CortexM3\ARM_GCC_493\Debug\Controls.a(CyLib.o) (CyPmReadStatus)
.\CortexM3\ARM_GCC_493\Debug\Controls.a(Volume_2.o)
                              .\CortexM3\ARM_GCC_493\Debug\main.o (Volume_2_Write)
.\CortexM3\ARM_GCC_493\Debug\Controls.a(Volume_1.o)
                              .\CortexM3\ARM_GCC_493\Debug\main.o (Volume_1_Write)
.\CortexM3\ARM_GCC_493\Debug\Controls.a(Volume_ADC.o)
                              .\CortexM3\ARM_GCC_493\Debug\main.o (Volume_ADC_Start)
.\CortexM3\ARM_GCC_493\Debug\Controls.a(Volume_ADC_INT.o)
                              .\CortexM3\ARM_GCC_493\Debug\Controls.a(Volume_ADC.o) (Volume_ADC_ISR)
.\CortexM3\ARM_GCC_493\Debug\Controls.a(Volume_ADC_theACLK.o)
                              .\CortexM3\ARM_GCC_493\Debug\Controls.a(Volume_ADC.o) (Volume_ADC_theACLK_SetModeRegister)
.\CortexM3\ARM_GCC_493\Debug\Controls.a(Mute_SW.o)
                              .\CortexM3\ARM_GCC_493\Debug\main.o (Mute_SW_Read)
.\CortexM3\ARM_GCC_493\Debug\Controls.a(i_Up.o)
                              .\CortexM3\ARM_GCC_493\Debug\main.o (i_Up_SetPriority)
.\CortexM3\ARM_GCC_493\Debug\Controls.a(i_Left.o)
                              .\CortexM3\ARM_GCC_493\Debug\main.o (i_Left_SetPriority)
.\CortexM3\ARM_GCC_493\Debug\Controls.a(i_Mute.o)
                              .\CortexM3\ARM_GCC_493\Debug\main.o (i_Mute_SetPriority)
.\CortexM3\ARM_GCC_493\Debug\Controls.a(i_Enter.o)
                              .\CortexM3\ARM_GCC_493\Debug\main.o (i_Enter_SetPriority)
.\CortexM3\ARM_GCC_493\Debug\Controls.a(i_Down.o)
                              .\CortexM3\ARM_GCC_493\Debug\main.o (i_Down_SetPriority)
.\CortexM3\ARM_GCC_493\Debug\Controls.a(i_Right.o)
                              .\CortexM3\ARM_GCC_493\Debug\main.o (i_Right_SetPriority)
.\CortexM3\ARM_GCC_493\Debug\Controls.a(i_Input_1.o)
                              .\CortexM3\ARM_GCC_493\Debug\main.o (i_Input_1_SetPriority)
.\CortexM3\ARM_GCC_493\Debug\Controls.a(i_Power.o)
                              .\CortexM3\ARM_GCC_493\Debug\main.o (i_Power_SetPriority)
.\CortexM3\ARM_GCC_493\Debug\Controls.a(i_Input_2.o)
                              .\CortexM3\ARM_GCC_493\Debug\main.o (i_Input_2_SetPriority)
.\CortexM3\ARM_GCC_493\Debug\Controls.a(Input_Relais_0.o)
                              .\CortexM3\ARM_GCC_493\Debug\main.o (Input_Relais_0_Write)
.\CortexM3\ARM_GCC_493\Debug\Controls.a(Input_Relais_1.o)
                              .\CortexM3\ARM_GCC_493\Debug\main.o (Input_Relais_1_Write)
.\CortexM3\ARM_GCC_493\Debug\Controls.a(Input_Relais_2.o)
                              .\CortexM3\ARM_GCC_493\Debug\main.o (Input_Relais_2_Write)
.\CortexM3\ARM_GCC_493\Debug\Controls.a(Input_Relais_3.o)
                              .\CortexM3\ARM_GCC_493\Debug\main.o (Input_Relais_3_Write)
.\CortexM3\ARM_GCC_493\Debug\Controls.a(Button_Timer.o)
                              .\CortexM3\ARM_GCC_493\Debug\main.o (Button_Timer_Stop)
.\CortexM3\ARM_GCC_493\Debug\Controls.a(Button_Timer_Interrupt.o)
                              .\CortexM3\ARM_GCC_493\Debug\main.o (Button_Timer_Interrupt_SetPriority)
.\CortexM3\ARM_GCC_493\Debug\Controls.a(Input_Relais_4.o)
                              .\CortexM3\ARM_GCC_493\Debug\main.o (Input_Relais_4_Write)
.\CortexM3\ARM_GCC_493\Debug\Controls.a(Input_Relais_5.o)
                              .\CortexM3\ARM_GCC_493\Debug\main.o (Input_Relais_5_Write)
.\CortexM3\ARM_GCC_493\Debug\Controls.a(Input_Relais_6.o)
                              .\CortexM3\ARM_GCC_493\Debug\main.o (Input_Relais_6_Write)
.\CortexM3\ARM_GCC_493\Debug\Controls.a(Input_Relais_7.o)
                              .\CortexM3\ARM_GCC_493\Debug\main.o (Input_Relais_7_Write)
.\CortexM3\ARM_GCC_493\Debug\Controls.a(Protection_IN.o)
                              .\CortexM3\ARM_GCC_493\Debug\main.o (Protection_IN_Write)
.\CortexM3\ARM_GCC_493\Debug\Controls.a(Protection_CLR.o)
                              .\CortexM3\ARM_GCC_493\Debug\main.o (Protection_CLR_Write)
.\CortexM3\ARM_GCC_493\Debug\Controls.a(Protection_CLK.o)
                              .\CortexM3\ARM_GCC_493\Debug\main.o (Protection_CLK_Write)
.\CortexM3\ARM_GCC_493\Debug\Controls.a(USBUART.o)
                              .\CortexM3\ARM_GCC_493\Debug\main.o (USBUART_Start)
.\CortexM3\ARM_GCC_493\Debug\Controls.a(USBUART_cdc.o)
                              .\CortexM3\ARM_GCC_493\Debug\main.o (USBUART_CDC_Init)
.\CortexM3\ARM_GCC_493\Debug\Controls.a(USBUART_drv.o)
                              .\CortexM3\ARM_GCC_493\Debug\Controls.a(USBUART.o) (USBUART_lastPacketSize)
.\CortexM3\ARM_GCC_493\Debug\Controls.a(USBUART_episr.o)
                              .\CortexM3\ARM_GCC_493\Debug\Controls.a(USBUART.o) (USBUART_EP_1_ISR)
.\CortexM3\ARM_GCC_493\Debug\Controls.a(USBUART_hid.o)
                              .\CortexM3\ARM_GCC_493\Debug\Controls.a(USBUART.o) (USBUART_hidProtocol)
.\CortexM3\ARM_GCC_493\Debug\Controls.a(USBUART_pm.o)
                              .\CortexM3\ARM_GCC_493\Debug\Controls.a(USBUART.o) (USBUART_DP_ISR)
.\CortexM3\ARM_GCC_493\Debug\Controls.a(USBUART_std.o)
                              .\CortexM3\ARM_GCC_493\Debug\Controls.a(USBUART_pm.o) (USBUART_ConfigReg)
.\CortexM3\ARM_GCC_493\Debug\Controls.a(USBUART_vnd.o)
                              .\CortexM3\ARM_GCC_493\Debug\Controls.a(USBUART_drv.o) (USBUART_HandleVendorRqst)
.\CortexM3\ARM_GCC_493\Debug\Controls.a(USBUART_Dp.o)
                              .\CortexM3\ARM_GCC_493\Debug\Controls.a(USBUART.o) (USBUART_Dp_ClearInterrupt)
.\CortexM3\ARM_GCC_493\Debug\Controls.a(Volume_Timer.o)
                              .\CortexM3\ARM_GCC_493\Debug\main.o (Volume_Timer_Stop)
.\CortexM3\ARM_GCC_493\Debug\Controls.a(CyBootAsmGnu.o)
                              .\CortexM3\ARM_GCC_493\Debug\Controls.a(cyfitter_cfg.o) (CyDelayCycles)
.\CortexM3\ARM_GCC_493\Debug\Controls.a(CyFlash.o)
                              .\CortexM3\ARM_GCC_493\Debug\Controls.a(cyPm.o) (CyFlash_SetWaitCycles)
.\CortexM3\ARM_GCC_493\Debug\Controls.a(CySpc.o)
                              .\CortexM3\ARM_GCC_493\Debug\Controls.a(CyFlash.o) (CySpcStart)
.\CortexM3\ARM_GCC_493\Debug\Controls.a(USBUART_cls.o)
                              .\CortexM3\ARM_GCC_493\Debug\Controls.a(USBUART_drv.o) (USBUART_DispatchClassRqst)
.\CortexM3\ARM_GCC_493\Debug\Controls.a(USBUART_descr.o)
                              .\CortexM3\ARM_GCC_493\Debug\Controls.a(USBUART_std.o) (USBUART_idSerialNumberStringDescriptor)
c:/program files (x86)/cypress/psoc creator/4.0/psoc creator/import/gnu/arm/4.9.3/bin/../lib/gcc/arm-none-eabi/4.9.3/armv7-m\libgcc.a(_arm_addsubsf3.o)
                              .\CortexM3\ARM_GCC_493\Debug\Controls.a(Volume_ADC.o) (__aeabi_i2f)
c:/program files (x86)/cypress/psoc creator/4.0/psoc creator/import/gnu/arm/4.9.3/bin/../lib/gcc/arm-none-eabi/4.9.3/armv7-m\libgcc.a(_arm_muldivsf3.o)
                              .\CortexM3\ARM_GCC_493\Debug\Controls.a(Volume_ADC.o) (__aeabi_fmul)
c:/program files (x86)/cypress/psoc creator/4.0/psoc creator/import/gnu/arm/4.9.3/bin/../lib/gcc/arm-none-eabi/4.9.3/armv7-m\libgcc.a(_aeabi_ldivmod.o)
                              .\CortexM3\ARM_GCC_493\Debug\Controls.a(Volume_ADC.o) (__aeabi_ldivmod)
c:/program files (x86)/cypress/psoc creator/4.0/psoc creator/import/gnu/arm/4.9.3/bin/../lib/gcc/arm-none-eabi/4.9.3/armv7-m\libgcc.a(bpabi.o)
                              c:/program files (x86)/cypress/psoc creator/4.0/psoc creator/import/gnu/arm/4.9.3/bin/../lib/gcc/arm-none-eabi/4.9.3/armv7-m\libgcc.a(_aeabi_ldivmod.o) (__gnu_ldivmod_helper)
c:/program files (x86)/cypress/psoc creator/4.0/psoc creator/import/gnu/arm/4.9.3/bin/../lib/gcc/arm-none-eabi/4.9.3/armv7-m\libgcc.a(_dvmd_tls.o)
                              c:/program files (x86)/cypress/psoc creator/4.0/psoc creator/import/gnu/arm/4.9.3/bin/../lib/gcc/arm-none-eabi/4.9.3/armv7-m\libgcc.a(_aeabi_ldivmod.o) (__aeabi_ldiv0)
c:/program files (x86)/cypress/psoc creator/4.0/psoc creator/import/gnu/arm/4.9.3/bin/../lib/gcc/arm-none-eabi/4.9.3/armv7-m\libgcc.a(_divdi3.o)
                              c:/program files (x86)/cypress/psoc creator/4.0/psoc creator/import/gnu/arm/4.9.3/bin/../lib/gcc/arm-none-eabi/4.9.3/armv7-m\libgcc.a(bpabi.o) (__divdi3)
c:/program files (x86)/cypress/psoc creator/4.0/psoc creator/import/gnu/arm/4.9.3/bin/../lib/gcc/arm-none-eabi/4.9.3/armv7-m\libgcc.a(_udivdi3.o)
                              c:/program files (x86)/cypress/psoc creator/4.0/psoc creator/import/gnu/arm/4.9.3/bin/../lib/gcc/arm-none-eabi/4.9.3/armv7-m\libgcc.a(bpabi.o) (__udivdi3)
c:/program files (x86)/cypress/psoc creator/4.0/psoc creator/import/gnu/arm/4.9.3/bin/../lib/gcc/arm-none-eabi/4.9.3/../../../../arm-none-eabi/lib/armv7-m\libg_nano.a(lib_a-errno.o)
                              .\CortexM3\ARM_GCC_493\Debug\Cm3Start.o (__errno)
c:/program files (x86)/cypress/psoc creator/4.0/psoc creator/import/gnu/arm/4.9.3/bin/../lib/gcc/arm-none-eabi/4.9.3/../../../../arm-none-eabi/lib/armv7-m\libg_nano.a(lib_a-exit.o)
                              c:/program files (x86)/cypress/psoc creator/4.0/psoc creator/import/gnu/arm/4.9.3/bin/../lib/gcc/arm-none-eabi/4.9.3/../../../../arm-none-eabi/lib/armv7-m/crt0.o (exit)
c:/program files (x86)/cypress/psoc creator/4.0/psoc creator/import/gnu/arm/4.9.3/bin/../lib/gcc/arm-none-eabi/4.9.3/../../../../arm-none-eabi/lib/armv7-m\libg_nano.a(lib_a-impure.o)
                              c:/program files (x86)/cypress/psoc creator/4.0/psoc creator/import/gnu/arm/4.9.3/bin/../lib/gcc/arm-none-eabi/4.9.3/../../../../arm-none-eabi/lib/armv7-m\libg_nano.a(lib_a-exit.o) (_global_impure_ptr)
c:/program files (x86)/cypress/psoc creator/4.0/psoc creator/import/gnu/arm/4.9.3/bin/../lib/gcc/arm-none-eabi/4.9.3/../../../../arm-none-eabi/lib/armv7-m\libg_nano.a(lib_a-init.o)
                              c:/program files (x86)/cypress/psoc creator/4.0/psoc creator/import/gnu/arm/4.9.3/bin/../lib/gcc/arm-none-eabi/4.9.3/../../../../arm-none-eabi/lib/armv7-m/crt0.o (__libc_init_array)
c:/program files (x86)/cypress/psoc creator/4.0/psoc creator/import/gnu/arm/4.9.3/bin/../lib/gcc/arm-none-eabi/4.9.3/../../../../arm-none-eabi/lib/armv7-m\libg_nano.a(lib_a-memcpy.o)
                              .\CortexM3\ARM_GCC_493\Debug\Controls.a(cyfitter_cfg.o) (memcpy)
c:/program files (x86)/cypress/psoc creator/4.0/psoc creator/import/gnu/arm/4.9.3/bin/../lib/gcc/arm-none-eabi/4.9.3/../../../../arm-none-eabi/lib/armv7-m\libg_nano.a(lib_a-memset.o)
                              c:/program files (x86)/cypress/psoc creator/4.0/psoc creator/import/gnu/arm/4.9.3/bin/../lib/gcc/arm-none-eabi/4.9.3/../../../../arm-none-eabi/lib/armv7-m/crt0.o (memset)
c:/program files (x86)/cypress/psoc creator/4.0/psoc creator/import/gnu/arm/4.9.3/bin/../lib/gcc/arm-none-eabi/4.9.3/../../../../arm-none-eabi/lib/armv7-m\libg_nano.a(lib_a-nano-vfprintf_float.o)
                              .\CortexM3\ARM_GCC_493\Debug\main.o (_printf_float)
c:/program files (x86)/cypress/psoc creator/4.0/psoc creator/import/gnu/arm/4.9.3/bin/../lib/gcc/arm-none-eabi/4.9.3/../../../../arm-none-eabi/lib/armv7-m\libg_nano.a(lib_a-nano-vfprintf_i.o)
                              c:/program files (x86)/cypress/psoc creator/4.0/psoc creator/import/gnu/arm/4.9.3/bin/../lib/gcc/arm-none-eabi/4.9.3/../../../../arm-none-eabi/lib/armv7-m\libg_nano.a(lib_a-nano-vfprintf_float.o) (_printf_common)
c:/program files (x86)/cypress/psoc creator/4.0/psoc creator/import/gnu/arm/4.9.3/bin/../lib/gcc/arm-none-eabi/4.9.3/../../../../arm-none-eabi/lib/armv7-m\libg_nano.a(lib_a-s_fpclassify.o)
                              c:/program files (x86)/cypress/psoc creator/4.0/psoc creator/import/gnu/arm/4.9.3/bin/../lib/gcc/arm-none-eabi/4.9.3/../../../../arm-none-eabi/lib/armv7-m\libg_nano.a(lib_a-nano-vfprintf_float.o) (__fpclassifyd)
c:/program files (x86)/cypress/psoc creator/4.0/psoc creator/import/gnu/arm/4.9.3/bin/../lib/gcc/arm-none-eabi/4.9.3/../../../../arm-none-eabi/lib/armv7-m\libg_nano.a(lib_a-strlen.o)
                              c:/program files (x86)/cypress/psoc creator/4.0/psoc creator/import/gnu/arm/4.9.3/bin/../lib/gcc/arm-none-eabi/4.9.3/../../../../arm-none-eabi/lib/armv7-m\libg_nano.a(lib_a-nano-vfprintf_float.o) (strlen)
c:/program files (x86)/cypress/psoc creator/4.0/psoc creator/import/gnu/arm/4.9.3/bin/../lib/gcc/arm-none-eabi/4.9.3/../../../../arm-none-eabi/lib/armv7-m\libg_nano.a(lib_a-dtoa.o)
                              c:/program files (x86)/cypress/psoc creator/4.0/psoc creator/import/gnu/arm/4.9.3/bin/../lib/gcc/arm-none-eabi/4.9.3/../../../../arm-none-eabi/lib/armv7-m\libg_nano.a(lib_a-nano-vfprintf_float.o) (_dtoa_r)
c:/program files (x86)/cypress/psoc creator/4.0/psoc creator/import/gnu/arm/4.9.3/bin/../lib/gcc/arm-none-eabi/4.9.3/../../../../arm-none-eabi/lib/armv7-m\libg_nano.a(lib_a-locale.o)
                              c:/program files (x86)/cypress/psoc creator/4.0/psoc creator/import/gnu/arm/4.9.3/bin/../lib/gcc/arm-none-eabi/4.9.3/../../../../arm-none-eabi/lib/armv7-m\libg_nano.a(lib_a-nano-vfprintf_float.o) (_localeconv_r)
c:/program files (x86)/cypress/psoc creator/4.0/psoc creator/import/gnu/arm/4.9.3/bin/../lib/gcc/arm-none-eabi/4.9.3/../../../../arm-none-eabi/lib/armv7-m\libg_nano.a(lib_a-malloc.o)
                              c:/program files (x86)/cypress/psoc creator/4.0/psoc creator/import/gnu/arm/4.9.3/bin/../lib/gcc/arm-none-eabi/4.9.3/../../../../arm-none-eabi/lib/armv7-m\libg_nano.a(lib_a-dtoa.o) (malloc)
c:/program files (x86)/cypress/psoc creator/4.0/psoc creator/import/gnu/arm/4.9.3/bin/../lib/gcc/arm-none-eabi/4.9.3/../../../../arm-none-eabi/lib/armv7-m\libg_nano.a(lib_a-memchr.o)
                              c:/program files (x86)/cypress/psoc creator/4.0/psoc creator/import/gnu/arm/4.9.3/bin/../lib/gcc/arm-none-eabi/4.9.3/../../../../arm-none-eabi/lib/armv7-m\libg_nano.a(lib_a-nano-vfprintf_i.o) (memchr)
c:/program files (x86)/cypress/psoc creator/4.0/psoc creator/import/gnu/arm/4.9.3/bin/../lib/gcc/arm-none-eabi/4.9.3/../../../../arm-none-eabi/lib/armv7-m\libg_nano.a(lib_a-mprec.o)
                              c:/program files (x86)/cypress/psoc creator/4.0/psoc creator/import/gnu/arm/4.9.3/bin/../lib/gcc/arm-none-eabi/4.9.3/../../../../arm-none-eabi/lib/armv7-m\libg_nano.a(lib_a-dtoa.o) (_Balloc)
c:/program files (x86)/cypress/psoc creator/4.0/psoc creator/import/gnu/arm/4.9.3/bin/../lib/gcc/arm-none-eabi/4.9.3/../../../../arm-none-eabi/lib/armv7-m\libg_nano.a(lib_a-nano-callocr.o)
                              c:/program files (x86)/cypress/psoc creator/4.0/psoc creator/import/gnu/arm/4.9.3/bin/../lib/gcc/arm-none-eabi/4.9.3/../../../../arm-none-eabi/lib/armv7-m\libg_nano.a(lib_a-mprec.o) (_calloc_r)
c:/program files (x86)/cypress/psoc creator/4.0/psoc creator/import/gnu/arm/4.9.3/bin/../lib/gcc/arm-none-eabi/4.9.3/../../../../arm-none-eabi/lib/armv7-m\libg_nano.a(lib_a-nano-freer.o)
                              c:/program files (x86)/cypress/psoc creator/4.0/psoc creator/import/gnu/arm/4.9.3/bin/../lib/gcc/arm-none-eabi/4.9.3/../../../../arm-none-eabi/lib/armv7-m\libg_nano.a(lib_a-malloc.o) (_free_r)
c:/program files (x86)/cypress/psoc creator/4.0/psoc creator/import/gnu/arm/4.9.3/bin/../lib/gcc/arm-none-eabi/4.9.3/../../../../arm-none-eabi/lib/armv7-m\libg_nano.a(lib_a-nano-mallocr.o)
                              c:/program files (x86)/cypress/psoc creator/4.0/psoc creator/import/gnu/arm/4.9.3/bin/../lib/gcc/arm-none-eabi/4.9.3/../../../../arm-none-eabi/lib/armv7-m\libg_nano.a(lib_a-malloc.o) (_malloc_r)
c:/program files (x86)/cypress/psoc creator/4.0/psoc creator/import/gnu/arm/4.9.3/bin/../lib/gcc/arm-none-eabi/4.9.3/../../../../arm-none-eabi/lib/armv7-m\libg_nano.a(lib_a-sbrkr.o)
                              c:/program files (x86)/cypress/psoc creator/4.0/psoc creator/import/gnu/arm/4.9.3/bin/../lib/gcc/arm-none-eabi/4.9.3/../../../../arm-none-eabi/lib/armv7-m\libg_nano.a(lib_a-nano-mallocr.o) (_sbrk_r)
c:/program files (x86)/cypress/psoc creator/4.0/psoc creator/import/gnu/arm/4.9.3/bin/../lib/gcc/arm-none-eabi/4.9.3/../../../../arm-none-eabi/lib/armv7-m\libg_nano.a(lib_a-strcmp.o)
                              c:/program files (x86)/cypress/psoc creator/4.0/psoc creator/import/gnu/arm/4.9.3/bin/../lib/gcc/arm-none-eabi/4.9.3/../../../../arm-none-eabi/lib/armv7-m\libg_nano.a(lib_a-locale.o) (strcmp)
c:/program files (x86)/cypress/psoc creator/4.0/psoc creator/import/gnu/arm/4.9.3/bin/../lib/gcc/arm-none-eabi/4.9.3/../../../../arm-none-eabi/lib/armv7-m\libg_nano.a(lib_a-reent.o)
                              c:/program files (x86)/cypress/psoc creator/4.0/psoc creator/import/gnu/arm/4.9.3/bin/../lib/gcc/arm-none-eabi/4.9.3/../../../../arm-none-eabi/lib/armv7-m\libg_nano.a(lib_a-sbrkr.o) (errno)
c:/program files (x86)/cypress/psoc creator/4.0/psoc creator/import/gnu/arm/4.9.3/bin/../lib/gcc/arm-none-eabi/4.9.3/armv7-m\libgcc.a(_arm_addsubdf3.o)
                              c:/program files (x86)/cypress/psoc creator/4.0/psoc creator/import/gnu/arm/4.9.3/bin/../lib/gcc/arm-none-eabi/4.9.3/../../../../arm-none-eabi/lib/armv7-m\libg_nano.a(lib_a-dtoa.o) (__aeabi_dsub)
c:/program files (x86)/cypress/psoc creator/4.0/psoc creator/import/gnu/arm/4.9.3/bin/../lib/gcc/arm-none-eabi/4.9.3/armv7-m\libgcc.a(_arm_muldivdf3.o)
                              c:/program files (x86)/cypress/psoc creator/4.0/psoc creator/import/gnu/arm/4.9.3/bin/../lib/gcc/arm-none-eabi/4.9.3/../../../../arm-none-eabi/lib/armv7-m\libg_nano.a(lib_a-dtoa.o) (__aeabi_dmul)
c:/program files (x86)/cypress/psoc creator/4.0/psoc creator/import/gnu/arm/4.9.3/bin/../lib/gcc/arm-none-eabi/4.9.3/armv7-m\libgcc.a(_arm_cmpdf2.o)
                              c:/program files (x86)/cypress/psoc creator/4.0/psoc creator/import/gnu/arm/4.9.3/bin/../lib/gcc/arm-none-eabi/4.9.3/../../../../arm-none-eabi/lib/armv7-m\libg_nano.a(lib_a-nano-vfprintf_float.o) (__aeabi_dcmpeq)
c:/program files (x86)/cypress/psoc creator/4.0/psoc creator/import/gnu/arm/4.9.3/bin/../lib/gcc/arm-none-eabi/4.9.3/armv7-m\libgcc.a(_arm_fixdfsi.o)
                              c:/program files (x86)/cypress/psoc creator/4.0/psoc creator/import/gnu/arm/4.9.3/bin/../lib/gcc/arm-none-eabi/4.9.3/../../../../arm-none-eabi/lib/armv7-m\libg_nano.a(lib_a-dtoa.o) (__aeabi_d2iz)

Allocating common symbols
Common symbol       size              file

USBUART_lastPacketSize
                    0x1               .\CortexM3\ARM_GCC_493\Debug\Controls.a(USBUART_drv.o)
USBUART_device      0x1               .\CortexM3\ARM_GCC_493\Debug\Controls.a(USBUART_drv.o)
USBUART_transferByteCount
                    0x2               .\CortexM3\ARM_GCC_493\Debug\Controls.a(USBUART_drv.o)
USBUART_hidProtocol
                    0x2               .\CortexM3\ARM_GCC_493\Debug\Controls.a(USBUART_hid.o)
Volume_ADC_countsPerVolt
                    0x2               .\CortexM3\ARM_GCC_493\Debug\Controls.a(Volume_ADC.o)
USBUART_transferState
                    0x1               .\CortexM3\ARM_GCC_493\Debug\Controls.a(USBUART_drv.o)
errno               0x4               c:/program files (x86)/cypress/psoc creator/4.0/psoc creator/import/gnu/arm/4.9.3/bin/../lib/gcc/arm-none-eabi/4.9.3/../../../../arm-none-eabi/lib/armv7-m\libg_nano.a(lib_a-reent.o)
USBUART_hidIdleTimer
                    0x2               .\CortexM3\ARM_GCC_493\Debug\Controls.a(USBUART_hid.o)
USBUART_interfaceSettingLast
                    0x2               .\CortexM3\ARM_GCC_493\Debug\Controls.a(USBUART_drv.o)
USBUART_linesChanged
                    0x2               .\CortexM3\ARM_GCC_493\Debug\Controls.a(USBUART_cdc.o)
USBUART_currentTD   0xc               .\CortexM3\ARM_GCC_493\Debug\Controls.a(USBUART_drv.o)
USBUART_cdcDataInEp
                    0x2               .\CortexM3\ARM_GCC_493\Debug\Controls.a(USBUART_cdc.o)
Volume_ADC_countsPer10Volt
                    0x4               .\CortexM3\ARM_GCC_493\Debug\Controls.a(Volume_ADC.o)
USBUART_idSerialNumberStringDescriptor
                    0x22              .\CortexM3\ARM_GCC_493\Debug\Controls.a(USBUART_descr.o)
USBUART_cdcCommInInterruptEp
                    0x2               .\CortexM3\ARM_GCC_493\Debug\Controls.a(USBUART_cdc.o)
USBUART_cdcDataOutEp
                    0x2               .\CortexM3\ARM_GCC_493\Debug\Controls.a(USBUART_cdc.o)
USBUART_interfaceNumber
                    0x1               .\CortexM3\ARM_GCC_493\Debug\Controls.a(USBUART_drv.o)
USBUART_interfaceClass
                    0x4               .\CortexM3\ARM_GCC_493\Debug\Controls.a(USBUART_drv.o)
USBUART_configurationChanged
                    0x1               .\CortexM3\ARM_GCC_493\Debug\Controls.a(USBUART_drv.o)
USBUART_ep0Mode     0x1               .\CortexM3\ARM_GCC_493\Debug\Controls.a(USBUART_drv.o)
Volume_ADC_shift    0x2               .\CortexM3\ARM_GCC_493\Debug\Controls.a(Volume_ADC.o)
USBUART_deviceAddress
                    0x1               .\CortexM3\ARM_GCC_493\Debug\Controls.a(USBUART_drv.o)
USBUART_configuration
                    0x1               .\CortexM3\ARM_GCC_493\Debug\Controls.a(USBUART_drv.o)
USBUART_serialStateBitmap
                    0x4               .\CortexM3\ARM_GCC_493\Debug\Controls.a(USBUART_cdc.o)
USBUART_ep0Count    0x1               .\CortexM3\ARM_GCC_493\Debug\Controls.a(USBUART_drv.o)
USBUART_linesControlBitmap
                    0x4               .\CortexM3\ARM_GCC_493\Debug\Controls.a(USBUART_cdc.o)
USBUART_deviceStatus
                    0x1               .\CortexM3\ARM_GCC_493\Debug\Controls.a(USBUART_drv.o)
USBUART_EP          0x6c              .\CortexM3\ARM_GCC_493\Debug\Controls.a(USBUART_drv.o)
USBUART_hidIdleRate
                    0x2               .\CortexM3\ARM_GCC_493\Debug\Controls.a(USBUART_hid.o)
USBUART_interfaceSetting
                    0x2               .\CortexM3\ARM_GCC_493\Debug\Controls.a(USBUART_drv.o)
USBUART_ep0Toggle   0x1               .\CortexM3\ARM_GCC_493\Debug\Controls.a(USBUART_drv.o)
dieTemperature      0x2               .\CortexM3\ARM_GCC_493\Debug\Controls.a(CyFlash.o)
Volume_ADC_offset   0x2               .\CortexM3\ARM_GCC_493\Debug\Controls.a(Volume_ADC.o)
USBUART_interfaceStatus
                    0x2               .\CortexM3\ARM_GCC_493\Debug\Controls.a(USBUART_drv.o)

Discarded input sections

 .text          0x00000000        0x0 c:/program files (x86)/cypress/psoc creator/4.0/psoc creator/import/gnu/arm/4.9.3/bin/../lib/gcc/arm-none-eabi/4.9.3/armv7-m/crti.o
 .data          0x00000000        0x0 c:/program files (x86)/cypress/psoc creator/4.0/psoc creator/import/gnu/arm/4.9.3/bin/../lib/gcc/arm-none-eabi/4.9.3/armv7-m/crti.o
 .bss           0x00000000        0x0 c:/program files (x86)/cypress/psoc creator/4.0/psoc creator/import/gnu/arm/4.9.3/bin/../lib/gcc/arm-none-eabi/4.9.3/armv7-m/crti.o
 .data          0x00000000        0x4 c:/program files (x86)/cypress/psoc creator/4.0/psoc creator/import/gnu/arm/4.9.3/bin/../lib/gcc/arm-none-eabi/4.9.3/armv7-m/crtbegin.o
 .text          0x00000000       0x74 c:/program files (x86)/cypress/psoc creator/4.0/psoc creator/import/gnu/arm/4.9.3/bin/../lib/gcc/arm-none-eabi/4.9.3/../../../../arm-none-eabi/lib/armv7-m/crt0.o
 .data          0x00000000        0x0 c:/program files (x86)/cypress/psoc creator/4.0/psoc creator/import/gnu/arm/4.9.3/bin/../lib/gcc/arm-none-eabi/4.9.3/../../../../arm-none-eabi/lib/armv7-m/crt0.o
 .bss           0x00000000        0x0 c:/program files (x86)/cypress/psoc creator/4.0/psoc creator/import/gnu/arm/4.9.3/bin/../lib/gcc/arm-none-eabi/4.9.3/../../../../arm-none-eabi/lib/armv7-m/crt0.o
 .ARM.extab     0x00000000        0x0 c:/program files (x86)/cypress/psoc creator/4.0/psoc creator/import/gnu/arm/4.9.3/bin/../lib/gcc/arm-none-eabi/4.9.3/../../../../arm-none-eabi/lib/armv7-m/crt0.o
 .ARM.exidx     0x00000000        0x8 c:/program files (x86)/cypress/psoc creator/4.0/psoc creator/import/gnu/arm/4.9.3/bin/../lib/gcc/arm-none-eabi/4.9.3/../../../../arm-none-eabi/lib/armv7-m/crt0.o
 .text          0x00000000        0x0 .\CortexM3\ARM_GCC_493\Debug\main.o
 .text.change_volume
                0x00000000       0x54 .\CortexM3\ARM_GCC_493\Debug\main.o
 .text.NestedErrorHandler
                0x00000000        0xc .\CortexM3\ARM_GCC_493\Debug\main.o
 .text          0x00000000        0x0 .\CortexM3\ARM_GCC_493\Debug\cymetadata.o
 .data          0x00000000        0x0 .\CortexM3\ARM_GCC_493\Debug\cymetadata.o
 .bss           0x00000000        0x0 .\CortexM3\ARM_GCC_493\Debug\cymetadata.o
 .text          0x00000000        0x0 .\CortexM3\ARM_GCC_493\Debug\Cm3Start.o
 .data          0x00000000        0x4 .\CortexM3\ARM_GCC_493\Debug\Cm3Start.o
 .bss           0x00000000        0x0 .\CortexM3\ARM_GCC_493\Debug\Cm3Start.o
 .text._exit    0x00000000        0xc .\CortexM3\ARM_GCC_493\Debug\Cm3Start.o
 .text._sbrk    0x00000000       0x30 .\CortexM3\ARM_GCC_493\Debug\Cm3Start.o
 .text          0x00000000        0x0 .\CortexM3\ARM_GCC_493\Debug\Controls.a(cyfitter_cfg.o)
 .data          0x00000000        0x0 .\CortexM3\ARM_GCC_493\Debug\Controls.a(cyfitter_cfg.o)
 .bss           0x00000000        0x0 .\CortexM3\ARM_GCC_493\Debug\Controls.a(cyfitter_cfg.o)
 .text.SetAnalogRoutingPumps
                0x00000000       0x1c .\CortexM3\ARM_GCC_493\Debug\Controls.a(cyfitter_cfg.o)
 .text          0x00000000        0x0 .\CortexM3\ARM_GCC_493\Debug\Controls.a(Enter_SW.o)
 .data          0x00000000        0x0 .\CortexM3\ARM_GCC_493\Debug\Controls.a(Enter_SW.o)
 .bss           0x00000000        0x0 .\CortexM3\ARM_GCC_493\Debug\Controls.a(Enter_SW.o)
 .text.Enter_SW_Write
                0x00000000       0x18 .\CortexM3\ARM_GCC_493\Debug\Controls.a(Enter_SW.o)
 .text.Enter_SW_SetDriveMode
                0x00000000       0x18 .\CortexM3\ARM_GCC_493\Debug\Controls.a(Enter_SW.o)
 .text.Enter_SW_ReadDataReg
                0x00000000       0x10 .\CortexM3\ARM_GCC_493\Debug\Controls.a(Enter_SW.o)
 .text          0x00000000        0x0 .\CortexM3\ARM_GCC_493\Debug\Controls.a(Power_LED.o)
 .data          0x00000000        0x0 .\CortexM3\ARM_GCC_493\Debug\Controls.a(Power_LED.o)
 .bss           0x00000000        0x0 .\CortexM3\ARM_GCC_493\Debug\Controls.a(Power_LED.o)
 .text.Power_LED_SetDriveMode
                0x00000000       0x18 .\CortexM3\ARM_GCC_493\Debug\Controls.a(Power_LED.o)
 .text.Power_LED_ReadDataReg
                0x00000000       0x10 .\CortexM3\ARM_GCC_493\Debug\Controls.a(Power_LED.o)
 .text          0x00000000        0x0 .\CortexM3\ARM_GCC_493\Debug\Controls.a(D3_LED.o)
 .data          0x00000000        0x0 .\CortexM3\ARM_GCC_493\Debug\Controls.a(D3_LED.o)
 .bss           0x00000000        0x0 .\CortexM3\ARM_GCC_493\Debug\Controls.a(D3_LED.o)
 .text.D3_LED_SetDriveMode
                0x00000000       0x18 .\CortexM3\ARM_GCC_493\Debug\Controls.a(D3_LED.o)
 .text.D3_LED_Read
                0x00000000       0x10 .\CortexM3\ARM_GCC_493\Debug\Controls.a(D3_LED.o)
 .text.D3_LED_ReadDataReg
                0x00000000       0x10 .\CortexM3\ARM_GCC_493\Debug\Controls.a(D3_LED.o)
 .text          0x00000000        0x0 .\CortexM3\ARM_GCC_493\Debug\Controls.a(Power_SW.o)
 .data          0x00000000        0x0 .\CortexM3\ARM_GCC_493\Debug\Controls.a(Power_SW.o)
 .bss           0x00000000        0x0 .\CortexM3\ARM_GCC_493\Debug\Controls.a(Power_SW.o)
 .text.Power_SW_Write
                0x00000000       0x18 .\CortexM3\ARM_GCC_493\Debug\Controls.a(Power_SW.o)
 .text.Power_SW_SetDriveMode
                0x00000000       0x18 .\CortexM3\ARM_GCC_493\Debug\Controls.a(Power_SW.o)
 .text.Power_SW_ReadDataReg
                0x00000000       0x10 .\CortexM3\ARM_GCC_493\Debug\Controls.a(Power_SW.o)
 .text          0x00000000        0x0 .\CortexM3\ARM_GCC_493\Debug\Controls.a(Left_SW.o)
 .data          0x00000000        0x0 .\CortexM3\ARM_GCC_493\Debug\Controls.a(Left_SW.o)
 .bss           0x00000000        0x0 .\CortexM3\ARM_GCC_493\Debug\Controls.a(Left_SW.o)
 .text.Left_SW_Write
                0x00000000       0x18 .\CortexM3\ARM_GCC_493\Debug\Controls.a(Left_SW.o)
 .text.Left_SW_SetDriveMode
                0x00000000       0x18 .\CortexM3\ARM_GCC_493\Debug\Controls.a(Left_SW.o)
 .text.Left_SW_ReadDataReg
                0x00000000       0x10 .\CortexM3\ARM_GCC_493\Debug\Controls.a(Left_SW.o)
 .text          0x00000000        0x0 .\CortexM3\ARM_GCC_493\Debug\Controls.a(Right_SW.o)
 .data          0x00000000        0x0 .\CortexM3\ARM_GCC_493\Debug\Controls.a(Right_SW.o)
 .bss           0x00000000        0x0 .\CortexM3\ARM_GCC_493\Debug\Controls.a(Right_SW.o)
 .text.Right_SW_Write
                0x00000000       0x18 .\CortexM3\ARM_GCC_493\Debug\Controls.a(Right_SW.o)
 .text.Right_SW_SetDriveMode
                0x00000000       0x18 .\CortexM3\ARM_GCC_493\Debug\Controls.a(Right_SW.o)
 .text.Right_SW_ReadDataReg
                0x00000000       0x10 .\CortexM3\ARM_GCC_493\Debug\Controls.a(Right_SW.o)
 .text          0x00000000        0x0 .\CortexM3\ARM_GCC_493\Debug\Controls.a(Down_SW.o)
 .data          0x00000000        0x0 .\CortexM3\ARM_GCC_493\Debug\Controls.a(Down_SW.o)
 .bss           0x00000000        0x0 .\CortexM3\ARM_GCC_493\Debug\Controls.a(Down_SW.o)
 .text.Down_SW_Write
                0x00000000       0x18 .\CortexM3\ARM_GCC_493\Debug\Controls.a(Down_SW.o)
 .text.Down_SW_SetDriveMode
                0x00000000       0x18 .\CortexM3\ARM_GCC_493\Debug\Controls.a(Down_SW.o)
 .text.Down_SW_ReadDataReg
                0x00000000        0xc .\CortexM3\ARM_GCC_493\Debug\Controls.a(Down_SW.o)
 .text          0x00000000        0x0 .\CortexM3\ARM_GCC_493\Debug\Controls.a(D2_LED.o)
 .data          0x00000000        0x0 .\CortexM3\ARM_GCC_493\Debug\Controls.a(D2_LED.o)
 .bss           0x00000000        0x0 .\CortexM3\ARM_GCC_493\Debug\Controls.a(D2_LED.o)
 .text.D2_LED_SetDriveMode
                0x00000000       0x18 .\CortexM3\ARM_GCC_493\Debug\Controls.a(D2_LED.o)
 .text.D2_LED_Read
                0x00000000       0x10 .\CortexM3\ARM_GCC_493\Debug\Controls.a(D2_LED.o)
 .text.D2_LED_ReadDataReg
                0x00000000       0x10 .\CortexM3\ARM_GCC_493\Debug\Controls.a(D2_LED.o)
 .text          0x00000000        0x0 .\CortexM3\ARM_GCC_493\Debug\Controls.a(Up_SW.o)
 .data          0x00000000        0x0 .\CortexM3\ARM_GCC_493\Debug\Controls.a(Up_SW.o)
 .bss           0x00000000        0x0 .\CortexM3\ARM_GCC_493\Debug\Controls.a(Up_SW.o)
 .text.Up_SW_Write
                0x00000000       0x18 .\CortexM3\ARM_GCC_493\Debug\Controls.a(Up_SW.o)
 .text.Up_SW_SetDriveMode
                0x00000000       0x18 .\CortexM3\ARM_GCC_493\Debug\Controls.a(Up_SW.o)
 .text.Up_SW_ReadDataReg
                0x00000000       0x10 .\CortexM3\ARM_GCC_493\Debug\Controls.a(Up_SW.o)
 .text          0x00000000        0x0 .\CortexM3\ARM_GCC_493\Debug\Controls.a(Input_1_SW.o)
 .data          0x00000000        0x0 .\CortexM3\ARM_GCC_493\Debug\Controls.a(Input_1_SW.o)
 .bss           0x00000000        0x0 .\CortexM3\ARM_GCC_493\Debug\Controls.a(Input_1_SW.o)
 .text.Input_1_SW_Write
                0x00000000       0x18 .\CortexM3\ARM_GCC_493\Debug\Controls.a(Input_1_SW.o)
 .text.Input_1_SW_SetDriveMode
                0x00000000       0x18 .\CortexM3\ARM_GCC_493\Debug\Controls.a(Input_1_SW.o)
 .text.Input_1_SW_ReadDataReg
                0x00000000       0x10 .\CortexM3\ARM_GCC_493\Debug\Controls.a(Input_1_SW.o)
 .text          0x00000000        0x0 .\CortexM3\ARM_GCC_493\Debug\Controls.a(Input_2_SW.o)
 .data          0x00000000        0x0 .\CortexM3\ARM_GCC_493\Debug\Controls.a(Input_2_SW.o)
 .bss           0x00000000        0x0 .\CortexM3\ARM_GCC_493\Debug\Controls.a(Input_2_SW.o)
 .text.Input_2_SW_Write
                0x00000000       0x18 .\CortexM3\ARM_GCC_493\Debug\Controls.a(Input_2_SW.o)
 .text.Input_2_SW_SetDriveMode
                0x00000000       0x18 .\CortexM3\ARM_GCC_493\Debug\Controls.a(Input_2_SW.o)
 .text.Input_2_SW_ReadDataReg
                0x00000000       0x10 .\CortexM3\ARM_GCC_493\Debug\Controls.a(Input_2_SW.o)
 .text          0x00000000        0x0 .\CortexM3\ARM_GCC_493\Debug\Controls.a(D1_LED.o)
 .data          0x00000000        0x0 .\CortexM3\ARM_GCC_493\Debug\Controls.a(D1_LED.o)
 .bss           0x00000000        0x0 .\CortexM3\ARM_GCC_493\Debug\Controls.a(D1_LED.o)
 .text.D1_LED_SetDriveMode
                0x00000000       0x18 .\CortexM3\ARM_GCC_493\Debug\Controls.a(D1_LED.o)
 .text.D1_LED_Read
                0x00000000       0x10 .\CortexM3\ARM_GCC_493\Debug\Controls.a(D1_LED.o)
 .text.D1_LED_ReadDataReg
                0x00000000       0x10 .\CortexM3\ARM_GCC_493\Debug\Controls.a(D1_LED.o)
 .text          0x00000000        0x0 .\CortexM3\ARM_GCC_493\Debug\Controls.a(U1_LED.o)
 .data          0x00000000        0x0 .\CortexM3\ARM_GCC_493\Debug\Controls.a(U1_LED.o)
 .bss           0x00000000        0x0 .\CortexM3\ARM_GCC_493\Debug\Controls.a(U1_LED.o)
 .text.U1_LED_SetDriveMode
                0x00000000       0x18 .\CortexM3\ARM_GCC_493\Debug\Controls.a(U1_LED.o)
 .text.U1_LED_Read
                0x00000000       0x10 .\CortexM3\ARM_GCC_493\Debug\Controls.a(U1_LED.o)
 .text.U1_LED_ReadDataReg
                0x00000000       0x10 .\CortexM3\ARM_GCC_493\Debug\Controls.a(U1_LED.o)
 .text          0x00000000        0x0 .\CortexM3\ARM_GCC_493\Debug\Controls.a(U2_LED.o)
 .data          0x00000000        0x0 .\CortexM3\ARM_GCC_493\Debug\Controls.a(U2_LED.o)
 .bss           0x00000000        0x0 .\CortexM3\ARM_GCC_493\Debug\Controls.a(U2_LED.o)
 .text.U2_LED_SetDriveMode
                0x00000000       0x18 .\CortexM3\ARM_GCC_493\Debug\Controls.a(U2_LED.o)
 .text.U2_LED_Read
                0x00000000       0x10 .\CortexM3\ARM_GCC_493\Debug\Controls.a(U2_LED.o)
 .text.U2_LED_ReadDataReg
                0x00000000       0x10 .\CortexM3\ARM_GCC_493\Debug\Controls.a(U2_LED.o)
 .text          0x00000000        0x0 .\CortexM3\ARM_GCC_493\Debug\Controls.a(U3_LED.o)
 .data          0x00000000        0x0 .\CortexM3\ARM_GCC_493\Debug\Controls.a(U3_LED.o)
 .bss           0x00000000        0x0 .\CortexM3\ARM_GCC_493\Debug\Controls.a(U3_LED.o)
 .text.U3_LED_SetDriveMode
                0x00000000       0x18 .\CortexM3\ARM_GCC_493\Debug\Controls.a(U3_LED.o)
 .text.U3_LED_Read
                0x00000000        0xc .\CortexM3\ARM_GCC_493\Debug\Controls.a(U3_LED.o)
 .text.U3_LED_ReadDataReg
                0x00000000        0xc .\CortexM3\ARM_GCC_493\Debug\Controls.a(U3_LED.o)
 .text          0x00000000        0x0 .\CortexM3\ARM_GCC_493\Debug\Controls.a(U4_LED.o)
 .data          0x00000000        0x0 .\CortexM3\ARM_GCC_493\Debug\Controls.a(U4_LED.o)
 .bss           0x00000000        0x0 .\CortexM3\ARM_GCC_493\Debug\Controls.a(U4_LED.o)
 .text.U4_LED_SetDriveMode
                0x00000000       0x18 .\CortexM3\ARM_GCC_493\Debug\Controls.a(U4_LED.o)
 .text.U4_LED_Read
                0x00000000       0x10 .\CortexM3\ARM_GCC_493\Debug\Controls.a(U4_LED.o)
 .text.U4_LED_ReadDataReg
                0x00000000       0x10 .\CortexM3\ARM_GCC_493\Debug\Controls.a(U4_LED.o)
 .text          0x00000000        0x0 .\CortexM3\ARM_GCC_493\Debug\Controls.a(U5_LED.o)
 .data          0x00000000        0x0 .\CortexM3\ARM_GCC_493\Debug\Controls.a(U5_LED.o)
 .bss           0x00000000        0x0 .\CortexM3\ARM_GCC_493\Debug\Controls.a(U5_LED.o)
 .text.U5_LED_SetDriveMode
                0x00000000       0x18 .\CortexM3\ARM_GCC_493\Debug\Controls.a(U5_LED.o)
 .text.U5_LED_Read
                0x00000000       0x10 .\CortexM3\ARM_GCC_493\Debug\Controls.a(U5_LED.o)
 .text.U5_LED_ReadDataReg
                0x00000000       0x10 .\CortexM3\ARM_GCC_493\Debug\Controls.a(U5_LED.o)
 .text          0x00000000        0x0 .\CortexM3\ARM_GCC_493\Debug\Controls.a(U6_LED.o)
 .data          0x00000000        0x0 .\CortexM3\ARM_GCC_493\Debug\Controls.a(U6_LED.o)
 .bss           0x00000000        0x0 .\CortexM3\ARM_GCC_493\Debug\Controls.a(U6_LED.o)
 .text.U6_LED_SetDriveMode
                0x00000000       0x18 .\CortexM3\ARM_GCC_493\Debug\Controls.a(U6_LED.o)
 .text.U6_LED_Read
                0x00000000       0x10 .\CortexM3\ARM_GCC_493\Debug\Controls.a(U6_LED.o)
 .text.U6_LED_ReadDataReg
                0x00000000       0x10 .\CortexM3\ARM_GCC_493\Debug\Controls.a(U6_LED.o)
 .text          0x00000000        0x0 .\CortexM3\ARM_GCC_493\Debug\Controls.a(U7_LED.o)
 .data          0x00000000        0x0 .\CortexM3\ARM_GCC_493\Debug\Controls.a(U7_LED.o)
 .bss           0x00000000        0x0 .\CortexM3\ARM_GCC_493\Debug\Controls.a(U7_LED.o)
 .text.U7_LED_SetDriveMode
                0x00000000       0x18 .\CortexM3\ARM_GCC_493\Debug\Controls.a(U7_LED.o)
 .text.U7_LED_Read
                0x00000000       0x10 .\CortexM3\ARM_GCC_493\Debug\Controls.a(U7_LED.o)
 .text.U7_LED_ReadDataReg
                0x00000000       0x10 .\CortexM3\ARM_GCC_493\Debug\Controls.a(U7_LED.o)
 .text          0x00000000        0x0 .\CortexM3\ARM_GCC_493\Debug\Controls.a(U8_LED.o)
 .data          0x00000000        0x0 .\CortexM3\ARM_GCC_493\Debug\Controls.a(U8_LED.o)
 .bss           0x00000000        0x0 .\CortexM3\ARM_GCC_493\Debug\Controls.a(U8_LED.o)
 .text.U8_LED_SetDriveMode
                0x00000000       0x18 .\CortexM3\ARM_GCC_493\Debug\Controls.a(U8_LED.o)
 .text.U8_LED_Read
                0x00000000       0x10 .\CortexM3\ARM_GCC_493\Debug\Controls.a(U8_LED.o)
 .text.U8_LED_ReadDataReg
                0x00000000       0x10 .\CortexM3\ARM_GCC_493\Debug\Controls.a(U8_LED.o)
 .text          0x00000000        0x0 .\CortexM3\ARM_GCC_493\Debug\Controls.a(CyLib.o)
 .bss           0x00000000       0x1c .\CortexM3\ARM_GCC_493\Debug\Controls.a(CyLib.o)
 .text.CyUSB_PowerOnCheck
                0x00000000       0x48 .\CortexM3\ARM_GCC_493\Debug\Controls.a(CyLib.o)
 .text.CyBusClk_Internal_SetDivider
                0x00000000       0x48 .\CortexM3\ARM_GCC_493\Debug\Controls.a(CyLib.o)
 .text.CyPLL_OUT_Stop
                0x00000000       0x10 .\CortexM3\ARM_GCC_493\Debug\Controls.a(CyLib.o)
 .text.CyIMO_Stop
                0x00000000       0x1c .\CortexM3\ARM_GCC_493\Debug\Controls.a(CyLib.o)
 .text.CyIMO_EnableDoubler
                0x00000000       0x10 .\CortexM3\ARM_GCC_493\Debug\Controls.a(CyLib.o)
 .text.CyIMO_DisableDoubler
                0x00000000       0x10 .\CortexM3\ARM_GCC_493\Debug\Controls.a(CyLib.o)
 .text.CyMasterClk_SetSource
                0x00000000       0x18 .\CortexM3\ARM_GCC_493\Debug\Controls.a(CyLib.o)
 .text.CyMasterClk_SetDivider
                0x00000000        0xc .\CortexM3\ARM_GCC_493\Debug\Controls.a(CyLib.o)
 .text.CyBusClk_SetDivider
                0x00000000       0x70 .\CortexM3\ARM_GCC_493\Debug\Controls.a(CyLib.o)
 .text.CyUsbClk_SetSource
                0x00000000       0x18 .\CortexM3\ARM_GCC_493\Debug\Controls.a(CyLib.o)
 .text.CyILO_Start1K
                0x00000000       0x10 .\CortexM3\ARM_GCC_493\Debug\Controls.a(CyLib.o)
 .text.CyILO_Stop1K
                0x00000000       0x10 .\CortexM3\ARM_GCC_493\Debug\Controls.a(CyLib.o)
 .text.CyILO_Start100K
                0x00000000       0x10 .\CortexM3\ARM_GCC_493\Debug\Controls.a(CyLib.o)
 .text.CyILO_Stop100K
                0x00000000       0x10 .\CortexM3\ARM_GCC_493\Debug\Controls.a(CyLib.o)
 .text.CyPLL_OUT_Start
                0x00000000       0x78 .\CortexM3\ARM_GCC_493\Debug\Controls.a(CyLib.o)
 .text.CyIMO_Start
                0x00000000       0x60 .\CortexM3\ARM_GCC_493\Debug\Controls.a(CyLib.o)
 .text.CyILO_Enable33K
                0x00000000       0x10 .\CortexM3\ARM_GCC_493\Debug\Controls.a(CyLib.o)
 .text.CyILO_Disable33K
                0x00000000       0x10 .\CortexM3\ARM_GCC_493\Debug\Controls.a(CyLib.o)
 .text.CyILO_SetSource
                0x00000000       0x18 .\CortexM3\ARM_GCC_493\Debug\Controls.a(CyLib.o)
 .text.CyILO_SetPowerMode
                0x00000000       0x24 .\CortexM3\ARM_GCC_493\Debug\Controls.a(CyLib.o)
 .text.CyXTAL_32KHZ_Stop
                0x00000000       0x30 .\CortexM3\ARM_GCC_493\Debug\Controls.a(CyLib.o)
 .text.CyXTAL_32KHZ_ReadStatus
                0x00000000       0x10 .\CortexM3\ARM_GCC_493\Debug\Controls.a(CyLib.o)
 .text.CyXTAL_Start
                0x00000000       0xac .\CortexM3\ARM_GCC_493\Debug\Controls.a(CyLib.o)
 .text.CyXTAL_Stop
                0x00000000       0x10 .\CortexM3\ARM_GCC_493\Debug\Controls.a(CyLib.o)
 .text.CyXTAL_EnableErrStatus
                0x00000000       0x10 .\CortexM3\ARM_GCC_493\Debug\Controls.a(CyLib.o)
 .text.CyXTAL_DisableErrStatus
                0x00000000       0x10 .\CortexM3\ARM_GCC_493\Debug\Controls.a(CyLib.o)
 .text.CyXTAL_ReadStatus
                0x00000000       0x18 .\CortexM3\ARM_GCC_493\Debug\Controls.a(CyLib.o)
 .text.CyXTAL_EnableFaultRecovery
                0x00000000       0x10 .\CortexM3\ARM_GCC_493\Debug\Controls.a(CyLib.o)
 .text.CyXTAL_DisableFaultRecovery
                0x00000000       0x10 .\CortexM3\ARM_GCC_493\Debug\Controls.a(CyLib.o)
 .text.CyXTAL_SetStartup
                0x00000000       0x18 .\CortexM3\ARM_GCC_493\Debug\Controls.a(CyLib.o)
 .text.CyXTAL_SetFbVoltage
                0x00000000       0x18 .\CortexM3\ARM_GCC_493\Debug\Controls.a(CyLib.o)
 .text.CyXTAL_SetWdVoltage
                0x00000000       0x18 .\CortexM3\ARM_GCC_493\Debug\Controls.a(CyLib.o)
 .text.CyPLL_OUT_SetPQ
                0x00000000       0x60 .\CortexM3\ARM_GCC_493\Debug\Controls.a(CyLib.o)
 .text.CyPLL_OUT_SetSource
                0x00000000       0x34 .\CortexM3\ARM_GCC_493\Debug\Controls.a(CyLib.o)
 .text.CyIMO_SetTrimValue
                0x00000000       0xcc .\CortexM3\ARM_GCC_493\Debug\Controls.a(CyLib.o)
 .text.CyIMO_SetFreq
                0x00000000       0xf4 .\CortexM3\ARM_GCC_493\Debug\Controls.a(CyLib.o)
 .text.CyIMO_SetSource
                0x00000000       0x58 .\CortexM3\ARM_GCC_493\Debug\Controls.a(CyLib.o)
 .text.CySoftwareReset
                0x00000000       0x10 .\CortexM3\ARM_GCC_493\Debug\Controls.a(CyLib.o)
 .text.CyXTAL_32KHZ_SetPowerMode
                0x00000000       0x84 .\CortexM3\ARM_GCC_493\Debug\Controls.a(CyLib.o)
 .text.CyXTAL_32KHZ_Start
                0x00000000       0x70 .\CortexM3\ARM_GCC_493\Debug\Controls.a(CyLib.o)
 .text.CyDelayFreq
                0x00000000       0x4c .\CortexM3\ARM_GCC_493\Debug\Controls.a(CyLib.o)
 .text.CyWdtStart
                0x00000000       0x40 .\CortexM3\ARM_GCC_493\Debug\Controls.a(CyLib.o)
 .text.CyWdtClear
                0x00000000        0xc .\CortexM3\ARM_GCC_493\Debug\Controls.a(CyLib.o)
 .text.CyVdStickyStatus
                0x00000000       0x2c .\CortexM3\ARM_GCC_493\Debug\Controls.a(CyLib.o)
 .text.CyVdLvDigitEnable
                0x00000000       0x84 .\CortexM3\ARM_GCC_493\Debug\Controls.a(CyLib.o)
 .text.CyVdLvAnalogEnable
                0x00000000       0x80 .\CortexM3\ARM_GCC_493\Debug\Controls.a(CyLib.o)
 .text.CyVdLvDigitDisable
                0x00000000       0x30 .\CortexM3\ARM_GCC_493\Debug\Controls.a(CyLib.o)
 .text.CyVdLvAnalogDisable
                0x00000000       0x28 .\CortexM3\ARM_GCC_493\Debug\Controls.a(CyLib.o)
 .text.CyVdHvAnalogEnable
                0x00000000       0x54 .\CortexM3\ARM_GCC_493\Debug\Controls.a(CyLib.o)
 .text.CyVdHvAnalogDisable
                0x00000000       0x20 .\CortexM3\ARM_GCC_493\Debug\Controls.a(CyLib.o)
 .text.CyVdRealTimeStatus
                0x00000000       0x1c .\CortexM3\ARM_GCC_493\Debug\Controls.a(CyLib.o)
 .text.CyDisableInts
                0x00000000       0x1c .\CortexM3\ARM_GCC_493\Debug\Controls.a(CyLib.o)
 .text.CyEnableInts
                0x00000000       0x18 .\CortexM3\ARM_GCC_493\Debug\Controls.a(CyLib.o)
 .text.CyFlushCache
                0x00000000       0x44 .\CortexM3\ARM_GCC_493\Debug\Controls.a(CyLib.o)
 .text.CyIntSetSysVector
                0x00000000       0x28 .\CortexM3\ARM_GCC_493\Debug\Controls.a(CyLib.o)
 .text.CyIntGetSysVector
                0x00000000       0x20 .\CortexM3\ARM_GCC_493\Debug\Controls.a(CyLib.o)
 .text.CyIntGetVector
                0x00000000       0x24 .\CortexM3\ARM_GCC_493\Debug\Controls.a(CyLib.o)
 .text.CyIntGetPriority
                0x00000000       0x20 .\CortexM3\ARM_GCC_493\Debug\Controls.a(CyLib.o)
 .text.CyIntGetState
                0x00000000       0x24 .\CortexM3\ARM_GCC_493\Debug\Controls.a(CyLib.o)
 .text.CySysTickStop
                0x00000000       0x10 .\CortexM3\ARM_GCC_493\Debug\Controls.a(CyLib.o)
 .text.CySysTickEnableInterrupt
                0x00000000       0x10 .\CortexM3\ARM_GCC_493\Debug\Controls.a(CyLib.o)
 .text.CySysTickEnable
                0x00000000       0x18 .\CortexM3\ARM_GCC_493\Debug\Controls.a(CyLib.o)
 .text.CySysTickDisableInterrupt
                0x00000000       0x10 .\CortexM3\ARM_GCC_493\Debug\Controls.a(CyLib.o)
 .text.CySysTickSetReload
                0x00000000       0x10 .\CortexM3\ARM_GCC_493\Debug\Controls.a(CyLib.o)
 .text.CySysTickGetReload
                0x00000000       0x10 .\CortexM3\ARM_GCC_493\Debug\Controls.a(CyLib.o)
 .text.CySysTickGetValue
                0x00000000       0x10 .\CortexM3\ARM_GCC_493\Debug\Controls.a(CyLib.o)
 .text.CySysTickSetClockSource
                0x00000000       0x20 .\CortexM3\ARM_GCC_493\Debug\Controls.a(CyLib.o)
 .text.CySysTickGetClockSource
                0x00000000       0x10 .\CortexM3\ARM_GCC_493\Debug\Controls.a(CyLib.o)
 .text.CySysTickGetCountFlag
                0x00000000       0x10 .\CortexM3\ARM_GCC_493\Debug\Controls.a(CyLib.o)
 .text.CySysTickServiceCallbacks
                0x00000000       0x28 .\CortexM3\ARM_GCC_493\Debug\Controls.a(CyLib.o)
 .text.CySysTickClear
                0x00000000        0xc .\CortexM3\ARM_GCC_493\Debug\Controls.a(CyLib.o)
 .text.CySysTickInit
                0x00000000       0x58 .\CortexM3\ARM_GCC_493\Debug\Controls.a(CyLib.o)
 .text.CySysTickStart
                0x00000000       0x1c .\CortexM3\ARM_GCC_493\Debug\Controls.a(CyLib.o)
 .text.CySysTickSetCallback
                0x00000000       0x10 .\CortexM3\ARM_GCC_493\Debug\Controls.a(CyLib.o)
 .text.CySysTickGetCallback
                0x00000000       0x10 .\CortexM3\ARM_GCC_493\Debug\Controls.a(CyLib.o)
 .text          0x00000000        0x0 .\CortexM3\ARM_GCC_493\Debug\Controls.a(cyPm.o)
 .data          0x00000000        0x0 .\CortexM3\ARM_GCC_493\Debug\Controls.a(cyPm.o)
 .bss           0x00000000       0x44 .\CortexM3\ARM_GCC_493\Debug\Controls.a(cyPm.o)
 .text.CyPmHibSlpSaveSet
                0x00000000      0x1dc .\CortexM3\ARM_GCC_493\Debug\Controls.a(cyPm.o)
 .text.CyPmHibSlpRestore
                0x00000000       0xd4 .\CortexM3\ARM_GCC_493\Debug\Controls.a(cyPm.o)
 .text.CyPmHviLviSaveDisable
                0x00000000       0xa0 .\CortexM3\ARM_GCC_493\Debug\Controls.a(cyPm.o)
 .text.CyPmHibSaveSet
                0x00000000       0x8c .\CortexM3\ARM_GCC_493\Debug\Controls.a(cyPm.o)
 .text.CyPmHviLviRestore
                0x00000000       0x48 .\CortexM3\ARM_GCC_493\Debug\Controls.a(cyPm.o)
 .text.CyPmHibRestore
                0x00000000       0x58 .\CortexM3\ARM_GCC_493\Debug\Controls.a(cyPm.o)
 .text.CyPmSaveClocks
                0x00000000      0x218 .\CortexM3\ARM_GCC_493\Debug\Controls.a(cyPm.o)
 .text.CyPmRestoreClocks
                0x00000000      0x24c .\CortexM3\ARM_GCC_493\Debug\Controls.a(cyPm.o)
 .text.CyPmAltAct
                0x00000000       0x6c .\CortexM3\ARM_GCC_493\Debug\Controls.a(cyPm.o)
 .text.CyPmSleep
                0x00000000       0xf4 .\CortexM3\ARM_GCC_493\Debug\Controls.a(cyPm.o)
 .text.CyPmHibernateEx
                0x00000000       0xf4 .\CortexM3\ARM_GCC_493\Debug\Controls.a(cyPm.o)
 .text.CyPmHibernate
                0x00000000        0xc .\CortexM3\ARM_GCC_493\Debug\Controls.a(cyPm.o)
 .text.CyPmReadStatus
                0x00000000       0x30 .\CortexM3\ARM_GCC_493\Debug\Controls.a(cyPm.o)
 .text.CyPmCtwSetInterval
                0x00000000       0x5c .\CortexM3\ARM_GCC_493\Debug\Controls.a(cyPm.o)
 .text.CyPmOppsSet
                0x00000000       0x2c .\CortexM3\ARM_GCC_493\Debug\Controls.a(cyPm.o)
 .text.CyPmFtwSetInterval
                0x00000000       0x5c .\CortexM3\ARM_GCC_493\Debug\Controls.a(cyPm.o)
 .rodata        0x00000000       0x10 .\CortexM3\ARM_GCC_493\Debug\Controls.a(cyPm.o)
 .text          0x00000000        0x0 .\CortexM3\ARM_GCC_493\Debug\Controls.a(Volume_2.o)
 .data          0x00000000        0x0 .\CortexM3\ARM_GCC_493\Debug\Controls.a(Volume_2.o)
 .bss           0x00000000        0x0 .\CortexM3\ARM_GCC_493\Debug\Controls.a(Volume_2.o)
 .text.Volume_2_SetDriveMode
                0x00000000       0x18 .\CortexM3\ARM_GCC_493\Debug\Controls.a(Volume_2.o)
 .text.Volume_2_Read
                0x00000000       0x10 .\CortexM3\ARM_GCC_493\Debug\Controls.a(Volume_2.o)
 .text.Volume_2_ReadDataReg
                0x00000000       0x10 .\CortexM3\ARM_GCC_493\Debug\Controls.a(Volume_2.o)
 .text          0x00000000        0x0 .\CortexM3\ARM_GCC_493\Debug\Controls.a(Volume_1.o)
 .data          0x00000000        0x0 .\CortexM3\ARM_GCC_493\Debug\Controls.a(Volume_1.o)
 .bss           0x00000000        0x0 .\CortexM3\ARM_GCC_493\Debug\Controls.a(Volume_1.o)
 .text.Volume_1_SetDriveMode
                0x00000000       0x18 .\CortexM3\ARM_GCC_493\Debug\Controls.a(Volume_1.o)
 .text.Volume_1_Read
                0x00000000       0x10 .\CortexM3\ARM_GCC_493\Debug\Controls.a(Volume_1.o)
 .text.Volume_1_ReadDataReg
                0x00000000       0x10 .\CortexM3\ARM_GCC_493\Debug\Controls.a(Volume_1.o)
 .text          0x00000000        0x0 .\CortexM3\ARM_GCC_493\Debug\Controls.a(Volume_ADC.o)
 .data          0x00000000        0x0 .\CortexM3\ARM_GCC_493\Debug\Controls.a(Volume_ADC.o)
 .text.Volume_ADC_Stop
                0x00000000       0x48 .\CortexM3\ARM_GCC_493\Debug\Controls.a(Volume_ADC.o)
 .text.Volume_ADC_SetPower
                0x00000000       0x18 .\CortexM3\ARM_GCC_493\Debug\Controls.a(Volume_ADC.o)
 .text.Volume_ADC_StopConvert
                0x00000000       0x10 .\CortexM3\ARM_GCC_493\Debug\Controls.a(Volume_ADC.o)
 .text.Volume_ADC_IsEndConversion
                0x00000000       0x24 .\CortexM3\ARM_GCC_493\Debug\Controls.a(Volume_ADC.o)
 .text.Volume_ADC_GetResult16
                0x00000000       0x18 .\CortexM3\ARM_GCC_493\Debug\Controls.a(Volume_ADC.o)
 .text.Volume_ADC_SetOffset
                0x00000000        0xc .\CortexM3\ARM_GCC_493\Debug\Controls.a(Volume_ADC.o)
 .text.Volume_ADC_SetGain
                0x00000000       0x10 .\CortexM3\ARM_GCC_493\Debug\Controls.a(Volume_ADC.o)
 .text.Volume_ADC_SetScaledGain
                0x00000000        0xc .\CortexM3\ARM_GCC_493\Debug\Controls.a(Volume_ADC.o)
 .text.Volume_ADC_CountsTo_mVolts
                0x00000000       0x54 .\CortexM3\ARM_GCC_493\Debug\Controls.a(Volume_ADC.o)
 .text.Volume_ADC_CountsTo_uVolts
                0x00000000       0x48 .\CortexM3\ARM_GCC_493\Debug\Controls.a(Volume_ADC.o)
 .text.Volume_ADC_CountsTo_Volts
                0x00000000       0x50 .\CortexM3\ARM_GCC_493\Debug\Controls.a(Volume_ADC.o)
 .text          0x00000000        0x0 .\CortexM3\ARM_GCC_493\Debug\Controls.a(Volume_ADC_INT.o)
 .data          0x00000000        0x0 .\CortexM3\ARM_GCC_493\Debug\Controls.a(Volume_ADC_INT.o)
 .bss           0x00000000        0x0 .\CortexM3\ARM_GCC_493\Debug\Controls.a(Volume_ADC_INT.o)
 .text          0x00000000        0x0 .\CortexM3\ARM_GCC_493\Debug\Controls.a(Volume_ADC_theACLK.o)
 .data          0x00000000        0x0 .\CortexM3\ARM_GCC_493\Debug\Controls.a(Volume_ADC_theACLK.o)
 .bss           0x00000000        0x0 .\CortexM3\ARM_GCC_493\Debug\Controls.a(Volume_ADC_theACLK.o)
 .text.Volume_ADC_theACLK_Start
                0x00000000       0x1c .\CortexM3\ARM_GCC_493\Debug\Controls.a(Volume_ADC_theACLK.o)
 .text.Volume_ADC_theACLK_Stop
                0x00000000       0x1c .\CortexM3\ARM_GCC_493\Debug\Controls.a(Volume_ADC_theACLK.o)
 .text.Volume_ADC_theACLK_StopBlock
                0x00000000       0x6c .\CortexM3\ARM_GCC_493\Debug\Controls.a(Volume_ADC_theACLK.o)
 .text.Volume_ADC_theACLK_StandbyPower
                0x00000000       0x20 .\CortexM3\ARM_GCC_493\Debug\Controls.a(Volume_ADC_theACLK.o)
 .text.Volume_ADC_theACLK_GetDividerRegister
                0x00000000        0xc .\CortexM3\ARM_GCC_493\Debug\Controls.a(Volume_ADC_theACLK.o)
 .text.Volume_ADC_theACLK_ClearModeRegister
                0x00000000       0x18 .\CortexM3\ARM_GCC_493\Debug\Controls.a(Volume_ADC_theACLK.o)
 .text.Volume_ADC_theACLK_GetModeRegister
                0x00000000       0x10 .\CortexM3\ARM_GCC_493\Debug\Controls.a(Volume_ADC_theACLK.o)
 .text.Volume_ADC_theACLK_GetSourceRegister
                0x00000000       0x10 .\CortexM3\ARM_GCC_493\Debug\Controls.a(Volume_ADC_theACLK.o)
 .text.Volume_ADC_theACLK_SetDividerRegister
                0x00000000       0xd8 .\CortexM3\ARM_GCC_493\Debug\Controls.a(Volume_ADC_theACLK.o)
 .text.Volume_ADC_theACLK_SetSourceRegister
                0x00000000       0x5c .\CortexM3\ARM_GCC_493\Debug\Controls.a(Volume_ADC_theACLK.o)
 .text          0x00000000        0x0 .\CortexM3\ARM_GCC_493\Debug\Controls.a(Mute_SW.o)
 .data          0x00000000        0x0 .\CortexM3\ARM_GCC_493\Debug\Controls.a(Mute_SW.o)
 .bss           0x00000000        0x0 .\CortexM3\ARM_GCC_493\Debug\Controls.a(Mute_SW.o)
 .text.Mute_SW_Write
                0x00000000       0x18 .\CortexM3\ARM_GCC_493\Debug\Controls.a(Mute_SW.o)
 .text.Mute_SW_SetDriveMode
                0x00000000       0x18 .\CortexM3\ARM_GCC_493\Debug\Controls.a(Mute_SW.o)
 .text.Mute_SW_ReadDataReg
                0x00000000       0x10 .\CortexM3\ARM_GCC_493\Debug\Controls.a(Mute_SW.o)
 .text          0x00000000        0x0 .\CortexM3\ARM_GCC_493\Debug\Controls.a(i_Up.o)
 .data          0x00000000        0x0 .\CortexM3\ARM_GCC_493\Debug\Controls.a(i_Up.o)
 .bss           0x00000000        0x0 .\CortexM3\ARM_GCC_493\Debug\Controls.a(i_Up.o)
 .text.i_Up_Interrupt
                0x00000000        0x4 .\CortexM3\ARM_GCC_493\Debug\Controls.a(i_Up.o)
 .text.i_Up_GetVector
                0x00000000        0xc .\CortexM3\ARM_GCC_493\Debug\Controls.a(i_Up.o)
 .text.i_Up_GetPriority
                0x00000000        0xc .\CortexM3\ARM_GCC_493\Debug\Controls.a(i_Up.o)
 .text.i_Up_GetState
                0x00000000       0x18 .\CortexM3\ARM_GCC_493\Debug\Controls.a(i_Up.o)
 .text.i_Up_Start
                0x00000000       0x1c .\CortexM3\ARM_GCC_493\Debug\Controls.a(i_Up.o)
 .text.i_Up_Stop
                0x00000000       0x14 .\CortexM3\ARM_GCC_493\Debug\Controls.a(i_Up.o)
 .text.i_Up_SetPending
                0x00000000       0x10 .\CortexM3\ARM_GCC_493\Debug\Controls.a(i_Up.o)
 .text          0x00000000        0x0 .\CortexM3\ARM_GCC_493\Debug\Controls.a(i_Left.o)
 .data          0x00000000        0x0 .\CortexM3\ARM_GCC_493\Debug\Controls.a(i_Left.o)
 .bss           0x00000000        0x0 .\CortexM3\ARM_GCC_493\Debug\Controls.a(i_Left.o)
 .text.i_Left_Interrupt
                0x00000000        0x4 .\CortexM3\ARM_GCC_493\Debug\Controls.a(i_Left.o)
 .text.i_Left_GetVector
                0x00000000        0xc .\CortexM3\ARM_GCC_493\Debug\Controls.a(i_Left.o)
 .text.i_Left_GetPriority
                0x00000000        0xc .\CortexM3\ARM_GCC_493\Debug\Controls.a(i_Left.o)
 .text.i_Left_GetState
                0x00000000       0x18 .\CortexM3\ARM_GCC_493\Debug\Controls.a(i_Left.o)
 .text.i_Left_Start
                0x00000000       0x1c .\CortexM3\ARM_GCC_493\Debug\Controls.a(i_Left.o)
 .text.i_Left_Stop
                0x00000000       0x14 .\CortexM3\ARM_GCC_493\Debug\Controls.a(i_Left.o)
 .text.i_Left_SetPending
                0x00000000       0x10 .\CortexM3\ARM_GCC_493\Debug\Controls.a(i_Left.o)
 .text          0x00000000        0x0 .\CortexM3\ARM_GCC_493\Debug\Controls.a(i_Mute.o)
 .data          0x00000000        0x0 .\CortexM3\ARM_GCC_493\Debug\Controls.a(i_Mute.o)
 .bss           0x00000000        0x0 .\CortexM3\ARM_GCC_493\Debug\Controls.a(i_Mute.o)
 .text.i_Mute_Interrupt
                0x00000000        0x4 .\CortexM3\ARM_GCC_493\Debug\Controls.a(i_Mute.o)
 .text.i_Mute_GetVector
                0x00000000        0xc .\CortexM3\ARM_GCC_493\Debug\Controls.a(i_Mute.o)
 .text.i_Mute_GetPriority
                0x00000000        0xc .\CortexM3\ARM_GCC_493\Debug\Controls.a(i_Mute.o)
 .text.i_Mute_GetState
                0x00000000       0x18 .\CortexM3\ARM_GCC_493\Debug\Controls.a(i_Mute.o)
 .text.i_Mute_Start
                0x00000000       0x1c .\CortexM3\ARM_GCC_493\Debug\Controls.a(i_Mute.o)
 .text.i_Mute_Stop
                0x00000000       0x14 .\CortexM3\ARM_GCC_493\Debug\Controls.a(i_Mute.o)
 .text.i_Mute_SetPending
                0x00000000       0x10 .\CortexM3\ARM_GCC_493\Debug\Controls.a(i_Mute.o)
 .text          0x00000000        0x0 .\CortexM3\ARM_GCC_493\Debug\Controls.a(i_Enter.o)
 .data          0x00000000        0x0 .\CortexM3\ARM_GCC_493\Debug\Controls.a(i_Enter.o)
 .bss           0x00000000        0x0 .\CortexM3\ARM_GCC_493\Debug\Controls.a(i_Enter.o)
 .text.i_Enter_Interrupt
                0x00000000        0x4 .\CortexM3\ARM_GCC_493\Debug\Controls.a(i_Enter.o)
 .text.i_Enter_GetVector
                0x00000000        0xc .\CortexM3\ARM_GCC_493\Debug\Controls.a(i_Enter.o)
 .text.i_Enter_GetPriority
                0x00000000        0xc .\CortexM3\ARM_GCC_493\Debug\Controls.a(i_Enter.o)
 .text.i_Enter_GetState
                0x00000000       0x18 .\CortexM3\ARM_GCC_493\Debug\Controls.a(i_Enter.o)
 .text.i_Enter_Start
                0x00000000       0x1c .\CortexM3\ARM_GCC_493\Debug\Controls.a(i_Enter.o)
 .text.i_Enter_Stop
                0x00000000       0x14 .\CortexM3\ARM_GCC_493\Debug\Controls.a(i_Enter.o)
 .text.i_Enter_SetPending
                0x00000000        0xc .\CortexM3\ARM_GCC_493\Debug\Controls.a(i_Enter.o)
 .text          0x00000000        0x0 .\CortexM3\ARM_GCC_493\Debug\Controls.a(i_Down.o)
 .data          0x00000000        0x0 .\CortexM3\ARM_GCC_493\Debug\Controls.a(i_Down.o)
 .bss           0x00000000        0x0 .\CortexM3\ARM_GCC_493\Debug\Controls.a(i_Down.o)
 .text.i_Down_Interrupt
                0x00000000        0x4 .\CortexM3\ARM_GCC_493\Debug\Controls.a(i_Down.o)
 .text.i_Down_GetVector
                0x00000000        0xc .\CortexM3\ARM_GCC_493\Debug\Controls.a(i_Down.o)
 .text.i_Down_GetPriority
                0x00000000        0xc .\CortexM3\ARM_GCC_493\Debug\Controls.a(i_Down.o)
 .text.i_Down_GetState
                0x00000000       0x18 .\CortexM3\ARM_GCC_493\Debug\Controls.a(i_Down.o)
 .text.i_Down_Start
                0x00000000       0x1c .\CortexM3\ARM_GCC_493\Debug\Controls.a(i_Down.o)
 .text.i_Down_Stop
                0x00000000       0x14 .\CortexM3\ARM_GCC_493\Debug\Controls.a(i_Down.o)
 .text.i_Down_SetPending
                0x00000000        0xc .\CortexM3\ARM_GCC_493\Debug\Controls.a(i_Down.o)
 .text          0x00000000        0x0 .\CortexM3\ARM_GCC_493\Debug\Controls.a(i_Right.o)
 .data          0x00000000        0x0 .\CortexM3\ARM_GCC_493\Debug\Controls.a(i_Right.o)
 .bss           0x00000000        0x0 .\CortexM3\ARM_GCC_493\Debug\Controls.a(i_Right.o)
 .text.i_Right_Interrupt
                0x00000000        0x4 .\CortexM3\ARM_GCC_493\Debug\Controls.a(i_Right.o)
 .text.i_Right_GetVector
                0x00000000        0xc .\CortexM3\ARM_GCC_493\Debug\Controls.a(i_Right.o)
 .text.i_Right_GetPriority
                0x00000000        0xc .\CortexM3\ARM_GCC_493\Debug\Controls.a(i_Right.o)
 .text.i_Right_GetState
                0x00000000       0x18 .\CortexM3\ARM_GCC_493\Debug\Controls.a(i_Right.o)
 .text.i_Right_Start
                0x00000000       0x1c .\CortexM3\ARM_GCC_493\Debug\Controls.a(i_Right.o)
 .text.i_Right_Stop
                0x00000000       0x14 .\CortexM3\ARM_GCC_493\Debug\Controls.a(i_Right.o)
 .text.i_Right_SetPending
                0x00000000       0x10 .\CortexM3\ARM_GCC_493\Debug\Controls.a(i_Right.o)
 .text          0x00000000        0x0 .\CortexM3\ARM_GCC_493\Debug\Controls.a(i_Input_1.o)
 .data          0x00000000        0x0 .\CortexM3\ARM_GCC_493\Debug\Controls.a(i_Input_1.o)
 .bss           0x00000000        0x0 .\CortexM3\ARM_GCC_493\Debug\Controls.a(i_Input_1.o)
 .text.i_Input_1_Interrupt
                0x00000000        0x4 .\CortexM3\ARM_GCC_493\Debug\Controls.a(i_Input_1.o)
 .text.i_Input_1_GetVector
                0x00000000        0xc .\CortexM3\ARM_GCC_493\Debug\Controls.a(i_Input_1.o)
 .text.i_Input_1_GetPriority
                0x00000000        0xc .\CortexM3\ARM_GCC_493\Debug\Controls.a(i_Input_1.o)
 .text.i_Input_1_GetState
                0x00000000       0x18 .\CortexM3\ARM_GCC_493\Debug\Controls.a(i_Input_1.o)
 .text.i_Input_1_Start
                0x00000000       0x1c .\CortexM3\ARM_GCC_493\Debug\Controls.a(i_Input_1.o)
 .text.i_Input_1_Stop
                0x00000000       0x14 .\CortexM3\ARM_GCC_493\Debug\Controls.a(i_Input_1.o)
 .text.i_Input_1_SetPending
                0x00000000        0xc .\CortexM3\ARM_GCC_493\Debug\Controls.a(i_Input_1.o)
 .text          0x00000000        0x0 .\CortexM3\ARM_GCC_493\Debug\Controls.a(i_Power.o)
 .data          0x00000000        0x0 .\CortexM3\ARM_GCC_493\Debug\Controls.a(i_Power.o)
 .bss           0x00000000        0x0 .\CortexM3\ARM_GCC_493\Debug\Controls.a(i_Power.o)
 .text.i_Power_Interrupt
                0x00000000        0x4 .\CortexM3\ARM_GCC_493\Debug\Controls.a(i_Power.o)
 .text.i_Power_GetVector
                0x00000000        0xc .\CortexM3\ARM_GCC_493\Debug\Controls.a(i_Power.o)
 .text.i_Power_GetPriority
                0x00000000        0xc .\CortexM3\ARM_GCC_493\Debug\Controls.a(i_Power.o)
 .text.i_Power_GetState
                0x00000000       0x18 .\CortexM3\ARM_GCC_493\Debug\Controls.a(i_Power.o)
 .text.i_Power_Start
                0x00000000       0x1c .\CortexM3\ARM_GCC_493\Debug\Controls.a(i_Power.o)
 .text.i_Power_Stop
                0x00000000       0x14 .\CortexM3\ARM_GCC_493\Debug\Controls.a(i_Power.o)
 .text.i_Power_SetPending
                0x00000000       0x10 .\CortexM3\ARM_GCC_493\Debug\Controls.a(i_Power.o)
 .text          0x00000000        0x0 .\CortexM3\ARM_GCC_493\Debug\Controls.a(i_Input_2.o)
 .data          0x00000000        0x0 .\CortexM3\ARM_GCC_493\Debug\Controls.a(i_Input_2.o)
 .bss           0x00000000        0x0 .\CortexM3\ARM_GCC_493\Debug\Controls.a(i_Input_2.o)
 .text.i_Input_2_Interrupt
                0x00000000        0x4 .\CortexM3\ARM_GCC_493\Debug\Controls.a(i_Input_2.o)
 .text.i_Input_2_GetVector
                0x00000000        0xc .\CortexM3\ARM_GCC_493\Debug\Controls.a(i_Input_2.o)
 .text.i_Input_2_GetPriority
                0x00000000        0xc .\CortexM3\ARM_GCC_493\Debug\Controls.a(i_Input_2.o)
 .text.i_Input_2_GetState
                0x00000000       0x18 .\CortexM3\ARM_GCC_493\Debug\Controls.a(i_Input_2.o)
 .text.i_Input_2_Start
                0x00000000       0x1c .\CortexM3\ARM_GCC_493\Debug\Controls.a(i_Input_2.o)
 .text.i_Input_2_Stop
                0x00000000       0x14 .\CortexM3\ARM_GCC_493\Debug\Controls.a(i_Input_2.o)
 .text.i_Input_2_SetPending
                0x00000000       0x10 .\CortexM3\ARM_GCC_493\Debug\Controls.a(i_Input_2.o)
 .text          0x00000000        0x0 .\CortexM3\ARM_GCC_493\Debug\Controls.a(Input_Relais_0.o)
 .data          0x00000000        0x0 .\CortexM3\ARM_GCC_493\Debug\Controls.a(Input_Relais_0.o)
 .bss           0x00000000        0x0 .\CortexM3\ARM_GCC_493\Debug\Controls.a(Input_Relais_0.o)
 .text.Input_Relais_0_SetDriveMode
                0x00000000       0x18 .\CortexM3\ARM_GCC_493\Debug\Controls.a(Input_Relais_0.o)
 .text.Input_Relais_0_Read
                0x00000000        0xc .\CortexM3\ARM_GCC_493\Debug\Controls.a(Input_Relais_0.o)
 .text.Input_Relais_0_ReadDataReg
                0x00000000        0xc .\CortexM3\ARM_GCC_493\Debug\Controls.a(Input_Relais_0.o)
 .text          0x00000000        0x0 .\CortexM3\ARM_GCC_493\Debug\Controls.a(Input_Relais_1.o)
 .data          0x00000000        0x0 .\CortexM3\ARM_GCC_493\Debug\Controls.a(Input_Relais_1.o)
 .bss           0x00000000        0x0 .\CortexM3\ARM_GCC_493\Debug\Controls.a(Input_Relais_1.o)
 .text.Input_Relais_1_SetDriveMode
                0x00000000       0x18 .\CortexM3\ARM_GCC_493\Debug\Controls.a(Input_Relais_1.o)
 .text.Input_Relais_1_Read
                0x00000000       0x10 .\CortexM3\ARM_GCC_493\Debug\Controls.a(Input_Relais_1.o)
 .text.Input_Relais_1_ReadDataReg
                0x00000000       0x10 .\CortexM3\ARM_GCC_493\Debug\Controls.a(Input_Relais_1.o)
 .text          0x00000000        0x0 .\CortexM3\ARM_GCC_493\Debug\Controls.a(Input_Relais_2.o)
 .data          0x00000000        0x0 .\CortexM3\ARM_GCC_493\Debug\Controls.a(Input_Relais_2.o)
 .bss           0x00000000        0x0 .\CortexM3\ARM_GCC_493\Debug\Controls.a(Input_Relais_2.o)
 .text.Input_Relais_2_SetDriveMode
                0x00000000       0x18 .\CortexM3\ARM_GCC_493\Debug\Controls.a(Input_Relais_2.o)
 .text.Input_Relais_2_Read
                0x00000000       0x10 .\CortexM3\ARM_GCC_493\Debug\Controls.a(Input_Relais_2.o)
 .text.Input_Relais_2_ReadDataReg
                0x00000000       0x10 .\CortexM3\ARM_GCC_493\Debug\Controls.a(Input_Relais_2.o)
 .text          0x00000000        0x0 .\CortexM3\ARM_GCC_493\Debug\Controls.a(Input_Relais_3.o)
 .data          0x00000000        0x0 .\CortexM3\ARM_GCC_493\Debug\Controls.a(Input_Relais_3.o)
 .bss           0x00000000        0x0 .\CortexM3\ARM_GCC_493\Debug\Controls.a(Input_Relais_3.o)
 .text.Input_Relais_3_SetDriveMode
                0x00000000       0x18 .\CortexM3\ARM_GCC_493\Debug\Controls.a(Input_Relais_3.o)
 .text.Input_Relais_3_Read
                0x00000000       0x10 .\CortexM3\ARM_GCC_493\Debug\Controls.a(Input_Relais_3.o)
 .text.Input_Relais_3_ReadDataReg
                0x00000000       0x10 .\CortexM3\ARM_GCC_493\Debug\Controls.a(Input_Relais_3.o)
 .text          0x00000000        0x0 .\CortexM3\ARM_GCC_493\Debug\Controls.a(Button_Timer.o)
 .data          0x00000000        0x0 .\CortexM3\ARM_GCC_493\Debug\Controls.a(Button_Timer.o)
 .text.Button_Timer_SoftwareCapture
                0x00000000        0xc .\CortexM3\ARM_GCC_493\Debug\Controls.a(Button_Timer.o)
 .text.Button_Timer_ReadStatusRegister
                0x00000000        0xc .\CortexM3\ARM_GCC_493\Debug\Controls.a(Button_Timer.o)
 .text.Button_Timer_ReadControlRegister
                0x00000000        0xc .\CortexM3\ARM_GCC_493\Debug\Controls.a(Button_Timer.o)
 .text.Button_Timer_WriteControlRegister
                0x00000000        0xc .\CortexM3\ARM_GCC_493\Debug\Controls.a(Button_Timer.o)
 .text.Button_Timer_ReadPeriod
                0x00000000        0xc .\CortexM3\ARM_GCC_493\Debug\Controls.a(Button_Timer.o)
 .text.Button_Timer_ReadCapture
                0x00000000        0xc .\CortexM3\ARM_GCC_493\Debug\Controls.a(Button_Timer.o)
 .text.Button_Timer_ReadCounter
                0x00000000       0x14 .\CortexM3\ARM_GCC_493\Debug\Controls.a(Button_Timer.o)
 .text          0x00000000        0x0 .\CortexM3\ARM_GCC_493\Debug\Controls.a(Button_Timer_Interrupt.o)
 .data          0x00000000        0x0 .\CortexM3\ARM_GCC_493\Debug\Controls.a(Button_Timer_Interrupt.o)
 .bss           0x00000000        0x0 .\CortexM3\ARM_GCC_493\Debug\Controls.a(Button_Timer_Interrupt.o)
 .text.Button_Timer_Interrupt_Interrupt
                0x00000000        0x4 .\CortexM3\ARM_GCC_493\Debug\Controls.a(Button_Timer_Interrupt.o)
 .text.Button_Timer_Interrupt_GetVector
                0x00000000        0xc .\CortexM3\ARM_GCC_493\Debug\Controls.a(Button_Timer_Interrupt.o)
 .text.Button_Timer_Interrupt_GetPriority
                0x00000000        0xc .\CortexM3\ARM_GCC_493\Debug\Controls.a(Button_Timer_Interrupt.o)
 .text.Button_Timer_Interrupt_GetState
                0x00000000       0x10 .\CortexM3\ARM_GCC_493\Debug\Controls.a(Button_Timer_Interrupt.o)
 .text.Button_Timer_Interrupt_Start
                0x00000000       0x1c .\CortexM3\ARM_GCC_493\Debug\Controls.a(Button_Timer_Interrupt.o)
 .text.Button_Timer_Interrupt_Stop
                0x00000000       0x14 .\CortexM3\ARM_GCC_493\Debug\Controls.a(Button_Timer_Interrupt.o)
 .text.Button_Timer_Interrupt_SetPending
                0x00000000        0xc .\CortexM3\ARM_GCC_493\Debug\Controls.a(Button_Timer_Interrupt.o)
 .text          0x00000000        0x0 .\CortexM3\ARM_GCC_493\Debug\Controls.a(Input_Relais_4.o)
 .data          0x00000000        0x0 .\CortexM3\ARM_GCC_493\Debug\Controls.a(Input_Relais_4.o)
 .bss           0x00000000        0x0 .\CortexM3\ARM_GCC_493\Debug\Controls.a(Input_Relais_4.o)
 .text.Input_Relais_4_SetDriveMode
                0x00000000       0x18 .\CortexM3\ARM_GCC_493\Debug\Controls.a(Input_Relais_4.o)
 .text.Input_Relais_4_Read
                0x00000000       0x10 .\CortexM3\ARM_GCC_493\Debug\Controls.a(Input_Relais_4.o)
 .text.Input_Relais_4_ReadDataReg
                0x00000000       0x10 .\CortexM3\ARM_GCC_493\Debug\Controls.a(Input_Relais_4.o)
 .text          0x00000000        0x0 .\CortexM3\ARM_GCC_493\Debug\Controls.a(Input_Relais_5.o)
 .data          0x00000000        0x0 .\CortexM3\ARM_GCC_493\Debug\Controls.a(Input_Relais_5.o)
 .bss           0x00000000        0x0 .\CortexM3\ARM_GCC_493\Debug\Controls.a(Input_Relais_5.o)
 .text.Input_Relais_5_SetDriveMode
                0x00000000       0x18 .\CortexM3\ARM_GCC_493\Debug\Controls.a(Input_Relais_5.o)
 .text.Input_Relais_5_Read
                0x00000000       0x10 .\CortexM3\ARM_GCC_493\Debug\Controls.a(Input_Relais_5.o)
 .text.Input_Relais_5_ReadDataReg
                0x00000000       0x10 .\CortexM3\ARM_GCC_493\Debug\Controls.a(Input_Relais_5.o)
 .text          0x00000000        0x0 .\CortexM3\ARM_GCC_493\Debug\Controls.a(Input_Relais_6.o)
 .data          0x00000000        0x0 .\CortexM3\ARM_GCC_493\Debug\Controls.a(Input_Relais_6.o)
 .bss           0x00000000        0x0 .\CortexM3\ARM_GCC_493\Debug\Controls.a(Input_Relais_6.o)
 .text.Input_Relais_6_SetDriveMode
                0x00000000       0x18 .\CortexM3\ARM_GCC_493\Debug\Controls.a(Input_Relais_6.o)
 .text.Input_Relais_6_Read
                0x00000000       0x10 .\CortexM3\ARM_GCC_493\Debug\Controls.a(Input_Relais_6.o)
 .text.Input_Relais_6_ReadDataReg
                0x00000000       0x10 .\CortexM3\ARM_GCC_493\Debug\Controls.a(Input_Relais_6.o)
 .text          0x00000000        0x0 .\CortexM3\ARM_GCC_493\Debug\Controls.a(Input_Relais_7.o)
 .data          0x00000000        0x0 .\CortexM3\ARM_GCC_493\Debug\Controls.a(Input_Relais_7.o)
 .bss           0x00000000        0x0 .\CortexM3\ARM_GCC_493\Debug\Controls.a(Input_Relais_7.o)
 .text.Input_Relais_7_SetDriveMode
                0x00000000       0x18 .\CortexM3\ARM_GCC_493\Debug\Controls.a(Input_Relais_7.o)
 .text.Input_Relais_7_Read
                0x00000000       0x10 .\CortexM3\ARM_GCC_493\Debug\Controls.a(Input_Relais_7.o)
 .text.Input_Relais_7_ReadDataReg
                0x00000000       0x10 .\CortexM3\ARM_GCC_493\Debug\Controls.a(Input_Relais_7.o)
 .text          0x00000000        0x0 .\CortexM3\ARM_GCC_493\Debug\Controls.a(Protection_IN.o)
 .data          0x00000000        0x0 .\CortexM3\ARM_GCC_493\Debug\Controls.a(Protection_IN.o)
 .bss           0x00000000        0x0 .\CortexM3\ARM_GCC_493\Debug\Controls.a(Protection_IN.o)
 .text.Protection_IN_SetDriveMode
                0x00000000       0x18 .\CortexM3\ARM_GCC_493\Debug\Controls.a(Protection_IN.o)
 .text.Protection_IN_Read
                0x00000000       0x10 .\CortexM3\ARM_GCC_493\Debug\Controls.a(Protection_IN.o)
 .text.Protection_IN_ReadDataReg
                0x00000000       0x10 .\CortexM3\ARM_GCC_493\Debug\Controls.a(Protection_IN.o)
 .text          0x00000000        0x0 .\CortexM3\ARM_GCC_493\Debug\Controls.a(Protection_CLR.o)
 .data          0x00000000        0x0 .\CortexM3\ARM_GCC_493\Debug\Controls.a(Protection_CLR.o)
 .bss           0x00000000        0x0 .\CortexM3\ARM_GCC_493\Debug\Controls.a(Protection_CLR.o)
 .text.Protection_CLR_SetDriveMode
                0x00000000       0x18 .\CortexM3\ARM_GCC_493\Debug\Controls.a(Protection_CLR.o)
 .text.Protection_CLR_Read
                0x00000000       0x10 .\CortexM3\ARM_GCC_493\Debug\Controls.a(Protection_CLR.o)
 .text.Protection_CLR_ReadDataReg
                0x00000000       0x10 .\CortexM3\ARM_GCC_493\Debug\Controls.a(Protection_CLR.o)
 .text          0x00000000        0x0 .\CortexM3\ARM_GCC_493\Debug\Controls.a(Protection_CLK.o)
 .data          0x00000000        0x0 .\CortexM3\ARM_GCC_493\Debug\Controls.a(Protection_CLK.o)
 .bss           0x00000000        0x0 .\CortexM3\ARM_GCC_493\Debug\Controls.a(Protection_CLK.o)
 .text.Protection_CLK_SetDriveMode
                0x00000000       0x18 .\CortexM3\ARM_GCC_493\Debug\Controls.a(Protection_CLK.o)
 .text.Protection_CLK_Read
                0x00000000       0x10 .\CortexM3\ARM_GCC_493\Debug\Controls.a(Protection_CLK.o)
 .text.Protection_CLK_ReadDataReg
                0x00000000       0x10 .\CortexM3\ARM_GCC_493\Debug\Controls.a(Protection_CLK.o)
 .text          0x00000000        0x0 .\CortexM3\ARM_GCC_493\Debug\Controls.a(USBUART.o)
 .data          0x00000000        0x0 .\CortexM3\ARM_GCC_493\Debug\Controls.a(USBUART.o)
 .text.USBUART_Stop
                0x00000000       0xb8 .\CortexM3\ARM_GCC_493\Debug\Controls.a(USBUART.o)
 .text.USBUART_CheckActivity
                0x00000000       0x20 .\CortexM3\ARM_GCC_493\Debug\Controls.a(USBUART.o)
 .text.USBUART_GetInterfaceSetting
                0x00000000        0xc .\CortexM3\ARM_GCC_493\Debug\Controls.a(USBUART.o)
 .text.USBUART_DisableOutEP
                0x00000000       0x18 .\CortexM3\ARM_GCC_493\Debug\Controls.a(USBUART.o)
 .text.USBUART_Force
                0x00000000        0xc .\CortexM3\ARM_GCC_493\Debug\Controls.a(USBUART.o)
 .text.USBUART_GetEPAckState
                0x00000000       0x20 .\CortexM3\ARM_GCC_493\Debug\Controls.a(USBUART.o)
 .text.USBUART_SetPowerStatus
                0x00000000       0x20 .\CortexM3\ARM_GCC_493\Debug\Controls.a(USBUART.o)
 .text.USBUART_RWUEnabled
                0x00000000       0x18 .\CortexM3\ARM_GCC_493\Debug\Controls.a(USBUART.o)
 .text.USBUART_GetDeviceAddress
                0x00000000       0x10 .\CortexM3\ARM_GCC_493\Debug\Controls.a(USBUART.o)
 .text.USBUART_EnableSofInt
                0x00000000       0x10 .\CortexM3\ARM_GCC_493\Debug\Controls.a(USBUART.o)
 .text.USBUART_DisableSofInt
                0x00000000       0x10 .\CortexM3\ARM_GCC_493\Debug\Controls.a(USBUART.o)
 .text          0x00000000        0x0 .\CortexM3\ARM_GCC_493\Debug\Controls.a(USBUART_cdc.o)
 .text.USBUART_PutCRLF
                0x00000000       0x30 .\CortexM3\ARM_GCC_493\Debug\Controls.a(USBUART_cdc.o)
 .text.USBUART_GetCount
                0x00000000       0x34 .\CortexM3\ARM_GCC_493\Debug\Controls.a(USBUART_cdc.o)
 .text.USBUART_GetData
                0x00000000       0x20 .\CortexM3\ARM_GCC_493\Debug\Controls.a(USBUART_cdc.o)
 .text.USBUART_GetChar
                0x00000000       0x28 .\CortexM3\ARM_GCC_493\Debug\Controls.a(USBUART_cdc.o)
 .text.USBUART_IsLineChanged
                0x00000000       0x38 .\CortexM3\ARM_GCC_493\Debug\Controls.a(USBUART_cdc.o)
 .text.USBUART_GetDTERate
                0x00000000       0x30 .\CortexM3\ARM_GCC_493\Debug\Controls.a(USBUART_cdc.o)
 .text.USBUART_GetCharFormat
                0x00000000       0x18 .\CortexM3\ARM_GCC_493\Debug\Controls.a(USBUART_cdc.o)
 .text.USBUART_GetParityType
                0x00000000       0x18 .\CortexM3\ARM_GCC_493\Debug\Controls.a(USBUART_cdc.o)
 .text.USBUART_GetDataBits
                0x00000000       0x18 .\CortexM3\ARM_GCC_493\Debug\Controls.a(USBUART_cdc.o)
 .text.USBUART_GetLineControl
                0x00000000       0x18 .\CortexM3\ARM_GCC_493\Debug\Controls.a(USBUART_cdc.o)
 .text.USBUART_SendSerialState
                0x00000000       0x64 .\CortexM3\ARM_GCC_493\Debug\Controls.a(USBUART_cdc.o)
 .text.USBUART_GetSerialState
                0x00000000       0x18 .\CortexM3\ARM_GCC_493\Debug\Controls.a(USBUART_cdc.o)
 .text.USBUART_NotificationIsReady
                0x00000000       0x24 .\CortexM3\ARM_GCC_493\Debug\Controls.a(USBUART_cdc.o)
 .text.USBUART_SetComPort
                0x00000000       0x18 .\CortexM3\ARM_GCC_493\Debug\Controls.a(USBUART_cdc.o)
 .text.USBUART_GetComPort
                0x00000000        0xc .\CortexM3\ARM_GCC_493\Debug\Controls.a(USBUART_cdc.o)
 .rodata        0x00000000        0x4 .\CortexM3\ARM_GCC_493\Debug\Controls.a(USBUART_cdc.o)
 .text          0x00000000        0x0 .\CortexM3\ARM_GCC_493\Debug\Controls.a(USBUART_drv.o)
 .data          0x00000000        0x0 .\CortexM3\ARM_GCC_493\Debug\Controls.a(USBUART_drv.o)
 .bss           0x00000000        0x0 .\CortexM3\ARM_GCC_493\Debug\Controls.a(USBUART_drv.o)
 .text          0x00000000        0x0 .\CortexM3\ARM_GCC_493\Debug\Controls.a(USBUART_episr.o)
 .data          0x00000000        0x0 .\CortexM3\ARM_GCC_493\Debug\Controls.a(USBUART_episr.o)
 .bss           0x00000000        0x0 .\CortexM3\ARM_GCC_493\Debug\Controls.a(USBUART_episr.o)
 .text          0x00000000        0x0 .\CortexM3\ARM_GCC_493\Debug\Controls.a(USBUART_hid.o)
 .data          0x00000000        0x0 .\CortexM3\ARM_GCC_493\Debug\Controls.a(USBUART_hid.o)
 .bss           0x00000000        0x0 .\CortexM3\ARM_GCC_493\Debug\Controls.a(USBUART_hid.o)
 .text.USBUART_UpdateHIDTimer
                0x00000000       0x3c .\CortexM3\ARM_GCC_493\Debug\Controls.a(USBUART_hid.o)
 .text.USBUART_GetProtocol
                0x00000000        0xc .\CortexM3\ARM_GCC_493\Debug\Controls.a(USBUART_hid.o)
 .text          0x00000000        0x0 .\CortexM3\ARM_GCC_493\Debug\Controls.a(USBUART_pm.o)
 .data          0x00000000        0x0 .\CortexM3\ARM_GCC_493\Debug\Controls.a(USBUART_pm.o)
 .bss           0x00000000        0x4 .\CortexM3\ARM_GCC_493\Debug\Controls.a(USBUART_pm.o)
 .text.USBUART_SaveConfig
                0x00000000        0x4 .\CortexM3\ARM_GCC_493\Debug\Controls.a(USBUART_pm.o)
 .text.USBUART_RestoreConfig
                0x00000000       0x1c .\CortexM3\ARM_GCC_493\Debug\Controls.a(USBUART_pm.o)
 .text.USBUART_Suspend
                0x00000000       0xc8 .\CortexM3\ARM_GCC_493\Debug\Controls.a(USBUART_pm.o)
 .text.USBUART_Resume
                0x00000000       0xbc .\CortexM3\ARM_GCC_493\Debug\Controls.a(USBUART_pm.o)
 .text          0x00000000        0x0 .\CortexM3\ARM_GCC_493\Debug\Controls.a(USBUART_std.o)
 .data          0x00000000        0x0 .\CortexM3\ARM_GCC_493\Debug\Controls.a(USBUART_std.o)
 .text.USBUART_EpStateInit
                0x00000000       0x40 .\CortexM3\ARM_GCC_493\Debug\Controls.a(USBUART_std.o)
 .text.USBUART_TerminateEP
                0x00000000       0x4c .\CortexM3\ARM_GCC_493\Debug\Controls.a(USBUART_std.o)
 .text          0x00000000        0x0 .\CortexM3\ARM_GCC_493\Debug\Controls.a(USBUART_vnd.o)
 .data          0x00000000        0x0 .\CortexM3\ARM_GCC_493\Debug\Controls.a(USBUART_vnd.o)
 .bss           0x00000000        0x0 .\CortexM3\ARM_GCC_493\Debug\Controls.a(USBUART_vnd.o)
 .text          0x00000000        0x0 .\CortexM3\ARM_GCC_493\Debug\Controls.a(USBUART_Dp.o)
 .data          0x00000000        0x0 .\CortexM3\ARM_GCC_493\Debug\Controls.a(USBUART_Dp.o)
 .bss           0x00000000        0x0 .\CortexM3\ARM_GCC_493\Debug\Controls.a(USBUART_Dp.o)
 .text.USBUART_Dp_Write
                0x00000000       0x18 .\CortexM3\ARM_GCC_493\Debug\Controls.a(USBUART_Dp.o)
 .text.USBUART_Dp_SetDriveMode
                0x00000000       0x18 .\CortexM3\ARM_GCC_493\Debug\Controls.a(USBUART_Dp.o)
 .text.USBUART_Dp_Read
                0x00000000       0x10 .\CortexM3\ARM_GCC_493\Debug\Controls.a(USBUART_Dp.o)
 .text.USBUART_Dp_ReadDataReg
                0x00000000       0x10 .\CortexM3\ARM_GCC_493\Debug\Controls.a(USBUART_Dp.o)
 .text.USBUART_Dp_SetInterruptMode
                0x00000000       0x14 .\CortexM3\ARM_GCC_493\Debug\Controls.a(USBUART_Dp.o)
 .text          0x00000000        0x0 .\CortexM3\ARM_GCC_493\Debug\Controls.a(Volume_Timer.o)
 .data          0x00000000        0x0 .\CortexM3\ARM_GCC_493\Debug\Controls.a(Volume_Timer.o)
 .text.Volume_Timer_SoftwareCapture
                0x00000000        0xc .\CortexM3\ARM_GCC_493\Debug\Controls.a(Volume_Timer.o)
 .text.Volume_Timer_ReadControlRegister
                0x00000000        0xc .\CortexM3\ARM_GCC_493\Debug\Controls.a(Volume_Timer.o)
 .text.Volume_Timer_WriteControlRegister
                0x00000000        0xc .\CortexM3\ARM_GCC_493\Debug\Controls.a(Volume_Timer.o)
 .text.Volume_Timer_ReadPeriod
                0x00000000        0xc .\CortexM3\ARM_GCC_493\Debug\Controls.a(Volume_Timer.o)
 .data          0x00000000        0x0 .\CortexM3\ARM_GCC_493\Debug\Controls.a(CyBootAsmGnu.o)
 .bss           0x00000000        0x0 .\CortexM3\ARM_GCC_493\Debug\Controls.a(CyBootAsmGnu.o)
 .text          0x00000000        0x0 .\CortexM3\ARM_GCC_493\Debug\Controls.a(CyFlash.o)
 .data          0x00000000        0x0 .\CortexM3\ARM_GCC_493\Debug\Controls.a(CyFlash.o)
 .bss           0x00000000        0x4 .\CortexM3\ARM_GCC_493\Debug\Controls.a(CyFlash.o)
 .text.CyFlashGetSpcAlgorithm
                0x00000000       0x4c .\CortexM3\ARM_GCC_493\Debug\Controls.a(CyFlash.o)
 .text.CySetTempInt
                0x00000000       0x60 .\CortexM3\ARM_GCC_493\Debug\Controls.a(CyFlash.o)
 .text.CyFlash_Start
                0x00000000       0x54 .\CortexM3\ARM_GCC_493\Debug\Controls.a(CyFlash.o)
 .text.CyFlash_Stop
                0x00000000       0x24 .\CortexM3\ARM_GCC_493\Debug\Controls.a(CyFlash.o)
 .text.CySetTemp
                0x00000000       0x14 .\CortexM3\ARM_GCC_493\Debug\Controls.a(CyFlash.o)
 .text.CySetFlashEEBuffer
                0x00000000       0x28 .\CortexM3\ARM_GCC_493\Debug\Controls.a(CyFlash.o)
 .text.CyWriteRowFull
                0x00000000       0xf8 .\CortexM3\ARM_GCC_493\Debug\Controls.a(CyFlash.o)
 .text.CyWriteRowData
                0x00000000       0x14 .\CortexM3\ARM_GCC_493\Debug\Controls.a(CyFlash.o)
 .text.CyFlash_SetWaitCycles
                0x00000000       0x7c .\CortexM3\ARM_GCC_493\Debug\Controls.a(CyFlash.o)
 .text.CyEEPROM_Start
                0x00000000       0x54 .\CortexM3\ARM_GCC_493\Debug\Controls.a(CyFlash.o)
 .text.CyEEPROM_Stop
                0x00000000       0x24 .\CortexM3\ARM_GCC_493\Debug\Controls.a(CyFlash.o)
 .text.CyEEPROM_ReadReserve
                0x00000000       0x1c .\CortexM3\ARM_GCC_493\Debug\Controls.a(CyFlash.o)
 .text.CyEEPROM_ReadRelease
                0x00000000       0x10 .\CortexM3\ARM_GCC_493\Debug\Controls.a(CyFlash.o)
 COMMON         0x00000000        0x2 .\CortexM3\ARM_GCC_493\Debug\Controls.a(CyFlash.o)
 .text          0x00000000        0x0 .\CortexM3\ARM_GCC_493\Debug\Controls.a(CySpc.o)
 .data          0x00000000        0x0 .\CortexM3\ARM_GCC_493\Debug\Controls.a(CySpc.o)
 .bss           0x00000000        0x8 .\CortexM3\ARM_GCC_493\Debug\Controls.a(CySpc.o)
 .text.CySpcStart
                0x00000000       0x24 .\CortexM3\ARM_GCC_493\Debug\Controls.a(CySpc.o)
 .text.CySpcStop
                0x00000000       0x24 .\CortexM3\ARM_GCC_493\Debug\Controls.a(CySpc.o)
 .text.CySpcReadData
                0x00000000       0x34 .\CortexM3\ARM_GCC_493\Debug\Controls.a(CySpc.o)
 .text.CySpcLoadMultiByte
                0x00000000       0x78 .\CortexM3\ARM_GCC_493\Debug\Controls.a(CySpc.o)
 .text.CySpcLoadRow
                0x00000000       0x54 .\CortexM3\ARM_GCC_493\Debug\Controls.a(CySpc.o)
 .text.CySpcLoadRowFull
                0x00000000       0x80 .\CortexM3\ARM_GCC_493\Debug\Controls.a(CySpc.o)
 .text.CySpcWriteRow
                0x00000000       0x4c .\CortexM3\ARM_GCC_493\Debug\Controls.a(CySpc.o)
 .text.CySpcEraseSector
                0x00000000       0x3c .\CortexM3\ARM_GCC_493\Debug\Controls.a(CySpc.o)
 .text.CySpcGetTemp
                0x00000000       0x3c .\CortexM3\ARM_GCC_493\Debug\Controls.a(CySpc.o)
 .text.CySpcLock
                0x00000000       0x4c .\CortexM3\ARM_GCC_493\Debug\Controls.a(CySpc.o)
 .text.CySpcUnlock
                0x00000000       0x38 .\CortexM3\ARM_GCC_493\Debug\Controls.a(CySpc.o)
 .text.CySpcGetAlgorithm
                0x00000000       0x28 .\CortexM3\ARM_GCC_493\Debug\Controls.a(CySpc.o)
 .text          0x00000000        0x0 .\CortexM3\ARM_GCC_493\Debug\Controls.a(USBUART_cls.o)
 .data          0x00000000        0x0 .\CortexM3\ARM_GCC_493\Debug\Controls.a(USBUART_cls.o)
 .bss           0x00000000        0x0 .\CortexM3\ARM_GCC_493\Debug\Controls.a(USBUART_cls.o)
 .text          0x00000000        0x0 .\CortexM3\ARM_GCC_493\Debug\Controls.a(USBUART_descr.o)
 .data          0x00000000        0x0 .\CortexM3\ARM_GCC_493\Debug\Controls.a(USBUART_descr.o)
 .bss           0x00000000        0x0 .\CortexM3\ARM_GCC_493\Debug\Controls.a(USBUART_descr.o)
 .text          0x00000000      0x21c c:/program files (x86)/cypress/psoc creator/4.0/psoc creator/import/gnu/arm/4.9.3/bin/../lib/gcc/arm-none-eabi/4.9.3/armv7-m\libgcc.a(_arm_addsubsf3.o)
 .data          0x00000000        0x0 c:/program files (x86)/cypress/psoc creator/4.0/psoc creator/import/gnu/arm/4.9.3/bin/../lib/gcc/arm-none-eabi/4.9.3/armv7-m\libgcc.a(_arm_addsubsf3.o)
 .bss           0x00000000        0x0 c:/program files (x86)/cypress/psoc creator/4.0/psoc creator/import/gnu/arm/4.9.3/bin/../lib/gcc/arm-none-eabi/4.9.3/armv7-m\libgcc.a(_arm_addsubsf3.o)
 .text          0x00000000      0x2a0 c:/program files (x86)/cypress/psoc creator/4.0/psoc creator/import/gnu/arm/4.9.3/bin/../lib/gcc/arm-none-eabi/4.9.3/armv7-m\libgcc.a(_arm_muldivsf3.o)
 .data          0x00000000        0x0 c:/program files (x86)/cypress/psoc creator/4.0/psoc creator/import/gnu/arm/4.9.3/bin/../lib/gcc/arm-none-eabi/4.9.3/armv7-m\libgcc.a(_arm_muldivsf3.o)
 .bss           0x00000000        0x0 c:/program files (x86)/cypress/psoc creator/4.0/psoc creator/import/gnu/arm/4.9.3/bin/../lib/gcc/arm-none-eabi/4.9.3/armv7-m\libgcc.a(_arm_muldivsf3.o)
 .text          0x00000000       0x38 c:/program files (x86)/cypress/psoc creator/4.0/psoc creator/import/gnu/arm/4.9.3/bin/../lib/gcc/arm-none-eabi/4.9.3/armv7-m\libgcc.a(_aeabi_ldivmod.o)
 .data          0x00000000        0x0 c:/program files (x86)/cypress/psoc creator/4.0/psoc creator/import/gnu/arm/4.9.3/bin/../lib/gcc/arm-none-eabi/4.9.3/armv7-m\libgcc.a(_aeabi_ldivmod.o)
 .bss           0x00000000        0x0 c:/program files (x86)/cypress/psoc creator/4.0/psoc creator/import/gnu/arm/4.9.3/bin/../lib/gcc/arm-none-eabi/4.9.3/armv7-m\libgcc.a(_aeabi_ldivmod.o)
 .text          0x00000000       0x60 c:/program files (x86)/cypress/psoc creator/4.0/psoc creator/import/gnu/arm/4.9.3/bin/../lib/gcc/arm-none-eabi/4.9.3/armv7-m\libgcc.a(bpabi.o)
 .data          0x00000000        0x0 c:/program files (x86)/cypress/psoc creator/4.0/psoc creator/import/gnu/arm/4.9.3/bin/../lib/gcc/arm-none-eabi/4.9.3/armv7-m\libgcc.a(bpabi.o)
 .bss           0x00000000        0x0 c:/program files (x86)/cypress/psoc creator/4.0/psoc creator/import/gnu/arm/4.9.3/bin/../lib/gcc/arm-none-eabi/4.9.3/armv7-m\libgcc.a(bpabi.o)
 .text          0x00000000        0x4 c:/program files (x86)/cypress/psoc creator/4.0/psoc creator/import/gnu/arm/4.9.3/bin/../lib/gcc/arm-none-eabi/4.9.3/armv7-m\libgcc.a(_dvmd_tls.o)
 .data          0x00000000        0x0 c:/program files (x86)/cypress/psoc creator/4.0/psoc creator/import/gnu/arm/4.9.3/bin/../lib/gcc/arm-none-eabi/4.9.3/armv7-m\libgcc.a(_dvmd_tls.o)
 .bss           0x00000000        0x0 c:/program files (x86)/cypress/psoc creator/4.0/psoc creator/import/gnu/arm/4.9.3/bin/../lib/gcc/arm-none-eabi/4.9.3/armv7-m\libgcc.a(_dvmd_tls.o)
 .text          0x00000000      0x2ac c:/program files (x86)/cypress/psoc creator/4.0/psoc creator/import/gnu/arm/4.9.3/bin/../lib/gcc/arm-none-eabi/4.9.3/armv7-m\libgcc.a(_divdi3.o)
 .data          0x00000000        0x0 c:/program files (x86)/cypress/psoc creator/4.0/psoc creator/import/gnu/arm/4.9.3/bin/../lib/gcc/arm-none-eabi/4.9.3/armv7-m\libgcc.a(_divdi3.o)
 .bss           0x00000000        0x0 c:/program files (x86)/cypress/psoc creator/4.0/psoc creator/import/gnu/arm/4.9.3/bin/../lib/gcc/arm-none-eabi/4.9.3/armv7-m\libgcc.a(_divdi3.o)
 .ARM.extab     0x00000000        0x0 c:/program files (x86)/cypress/psoc creator/4.0/psoc creator/import/gnu/arm/4.9.3/bin/../lib/gcc/arm-none-eabi/4.9.3/armv7-m\libgcc.a(_divdi3.o)
 .ARM.exidx     0x00000000        0x8 c:/program files (x86)/cypress/psoc creator/4.0/psoc creator/import/gnu/arm/4.9.3/bin/../lib/gcc/arm-none-eabi/4.9.3/armv7-m\libgcc.a(_divdi3.o)
 .text          0x00000000      0x270 c:/program files (x86)/cypress/psoc creator/4.0/psoc creator/import/gnu/arm/4.9.3/bin/../lib/gcc/arm-none-eabi/4.9.3/armv7-m\libgcc.a(_udivdi3.o)
 .data          0x00000000        0x0 c:/program files (x86)/cypress/psoc creator/4.0/psoc creator/import/gnu/arm/4.9.3/bin/../lib/gcc/arm-none-eabi/4.9.3/armv7-m\libgcc.a(_udivdi3.o)
 .bss           0x00000000        0x0 c:/program files (x86)/cypress/psoc creator/4.0/psoc creator/import/gnu/arm/4.9.3/bin/../lib/gcc/arm-none-eabi/4.9.3/armv7-m\libgcc.a(_udivdi3.o)
 .ARM.extab     0x00000000        0x0 c:/program files (x86)/cypress/psoc creator/4.0/psoc creator/import/gnu/arm/4.9.3/bin/../lib/gcc/arm-none-eabi/4.9.3/armv7-m\libgcc.a(_udivdi3.o)
 .ARM.exidx     0x00000000        0x8 c:/program files (x86)/cypress/psoc creator/4.0/psoc creator/import/gnu/arm/4.9.3/bin/../lib/gcc/arm-none-eabi/4.9.3/armv7-m\libgcc.a(_udivdi3.o)
 .text          0x00000000        0x0 c:/program files (x86)/cypress/psoc creator/4.0/psoc creator/import/gnu/arm/4.9.3/bin/../lib/gcc/arm-none-eabi/4.9.3/../../../../arm-none-eabi/lib/armv7-m\libg_nano.a(lib_a-errno.o)
 .data          0x00000000        0x0 c:/program files (x86)/cypress/psoc creator/4.0/psoc creator/import/gnu/arm/4.9.3/bin/../lib/gcc/arm-none-eabi/4.9.3/../../../../arm-none-eabi/lib/armv7-m\libg_nano.a(lib_a-errno.o)
 .bss           0x00000000        0x0 c:/program files (x86)/cypress/psoc creator/4.0/psoc creator/import/gnu/arm/4.9.3/bin/../lib/gcc/arm-none-eabi/4.9.3/../../../../arm-none-eabi/lib/armv7-m\libg_nano.a(lib_a-errno.o)
 .text          0x00000000        0x0 c:/program files (x86)/cypress/psoc creator/4.0/psoc creator/import/gnu/arm/4.9.3/bin/../lib/gcc/arm-none-eabi/4.9.3/../../../../arm-none-eabi/lib/armv7-m\libg_nano.a(lib_a-exit.o)
 .data          0x00000000        0x0 c:/program files (x86)/cypress/psoc creator/4.0/psoc creator/import/gnu/arm/4.9.3/bin/../lib/gcc/arm-none-eabi/4.9.3/../../../../arm-none-eabi/lib/armv7-m\libg_nano.a(lib_a-exit.o)
 .bss           0x00000000        0x0 c:/program files (x86)/cypress/psoc creator/4.0/psoc creator/import/gnu/arm/4.9.3/bin/../lib/gcc/arm-none-eabi/4.9.3/../../../../arm-none-eabi/lib/armv7-m\libg_nano.a(lib_a-exit.o)
 .text.exit     0x00000000       0x28 c:/program files (x86)/cypress/psoc creator/4.0/psoc creator/import/gnu/arm/4.9.3/bin/../lib/gcc/arm-none-eabi/4.9.3/../../../../arm-none-eabi/lib/armv7-m\libg_nano.a(lib_a-exit.o)
 .text          0x00000000        0x0 c:/program files (x86)/cypress/psoc creator/4.0/psoc creator/import/gnu/arm/4.9.3/bin/../lib/gcc/arm-none-eabi/4.9.3/../../../../arm-none-eabi/lib/armv7-m\libg_nano.a(lib_a-impure.o)
 .data          0x00000000        0x0 c:/program files (x86)/cypress/psoc creator/4.0/psoc creator/import/gnu/arm/4.9.3/bin/../lib/gcc/arm-none-eabi/4.9.3/../../../../arm-none-eabi/lib/armv7-m\libg_nano.a(lib_a-impure.o)
 .bss           0x00000000        0x0 c:/program files (x86)/cypress/psoc creator/4.0/psoc creator/import/gnu/arm/4.9.3/bin/../lib/gcc/arm-none-eabi/4.9.3/../../../../arm-none-eabi/lib/armv7-m\libg_nano.a(lib_a-impure.o)
 .rodata._global_impure_ptr
                0x00000000        0x4 c:/program files (x86)/cypress/psoc creator/4.0/psoc creator/import/gnu/arm/4.9.3/bin/../lib/gcc/arm-none-eabi/4.9.3/../../../../arm-none-eabi/lib/armv7-m\libg_nano.a(lib_a-impure.o)
 .text          0x00000000        0x0 c:/program files (x86)/cypress/psoc creator/4.0/psoc creator/import/gnu/arm/4.9.3/bin/../lib/gcc/arm-none-eabi/4.9.3/../../../../arm-none-eabi/lib/armv7-m\libg_nano.a(lib_a-init.o)
 .data          0x00000000        0x0 c:/program files (x86)/cypress/psoc creator/4.0/psoc creator/import/gnu/arm/4.9.3/bin/../lib/gcc/arm-none-eabi/4.9.3/../../../../arm-none-eabi/lib/armv7-m\libg_nano.a(lib_a-init.o)
 .bss           0x00000000        0x0 c:/program files (x86)/cypress/psoc creator/4.0/psoc creator/import/gnu/arm/4.9.3/bin/../lib/gcc/arm-none-eabi/4.9.3/../../../../arm-none-eabi/lib/armv7-m\libg_nano.a(lib_a-init.o)
 .text          0x00000000        0x0 c:/program files (x86)/cypress/psoc creator/4.0/psoc creator/import/gnu/arm/4.9.3/bin/../lib/gcc/arm-none-eabi/4.9.3/../../../../arm-none-eabi/lib/armv7-m\libg_nano.a(lib_a-memcpy.o)
 .data          0x00000000        0x0 c:/program files (x86)/cypress/psoc creator/4.0/psoc creator/import/gnu/arm/4.9.3/bin/../lib/gcc/arm-none-eabi/4.9.3/../../../../arm-none-eabi/lib/armv7-m\libg_nano.a(lib_a-memcpy.o)
 .bss           0x00000000        0x0 c:/program files (x86)/cypress/psoc creator/4.0/psoc creator/import/gnu/arm/4.9.3/bin/../lib/gcc/arm-none-eabi/4.9.3/../../../../arm-none-eabi/lib/armv7-m\libg_nano.a(lib_a-memcpy.o)
 .text          0x00000000        0x0 c:/program files (x86)/cypress/psoc creator/4.0/psoc creator/import/gnu/arm/4.9.3/bin/../lib/gcc/arm-none-eabi/4.9.3/../../../../arm-none-eabi/lib/armv7-m\libg_nano.a(lib_a-memset.o)
 .data          0x00000000        0x0 c:/program files (x86)/cypress/psoc creator/4.0/psoc creator/import/gnu/arm/4.9.3/bin/../lib/gcc/arm-none-eabi/4.9.3/../../../../arm-none-eabi/lib/armv7-m\libg_nano.a(lib_a-memset.o)
 .bss           0x00000000        0x0 c:/program files (x86)/cypress/psoc creator/4.0/psoc creator/import/gnu/arm/4.9.3/bin/../lib/gcc/arm-none-eabi/4.9.3/../../../../arm-none-eabi/lib/armv7-m\libg_nano.a(lib_a-memset.o)
 .text          0x00000000        0x0 c:/program files (x86)/cypress/psoc creator/4.0/psoc creator/import/gnu/arm/4.9.3/bin/../lib/gcc/arm-none-eabi/4.9.3/../../../../arm-none-eabi/lib/armv7-m\libg_nano.a(lib_a-nano-vfprintf_float.o)
 .data          0x00000000        0x0 c:/program files (x86)/cypress/psoc creator/4.0/psoc creator/import/gnu/arm/4.9.3/bin/../lib/gcc/arm-none-eabi/4.9.3/../../../../arm-none-eabi/lib/armv7-m\libg_nano.a(lib_a-nano-vfprintf_float.o)
 .bss           0x00000000        0x0 c:/program files (x86)/cypress/psoc creator/4.0/psoc creator/import/gnu/arm/4.9.3/bin/../lib/gcc/arm-none-eabi/4.9.3/../../../../arm-none-eabi/lib/armv7-m\libg_nano.a(lib_a-nano-vfprintf_float.o)
 .text.__cvt    0x00000000       0xbc c:/program files (x86)/cypress/psoc creator/4.0/psoc creator/import/gnu/arm/4.9.3/bin/../lib/gcc/arm-none-eabi/4.9.3/../../../../arm-none-eabi/lib/armv7-m\libg_nano.a(lib_a-nano-vfprintf_float.o)
 .text.__exponent
                0x00000000       0x62 c:/program files (x86)/cypress/psoc creator/4.0/psoc creator/import/gnu/arm/4.9.3/bin/../lib/gcc/arm-none-eabi/4.9.3/../../../../arm-none-eabi/lib/armv7-m\libg_nano.a(lib_a-nano-vfprintf_float.o)
 .text._printf_float
                0x00000000      0x48c c:/program files (x86)/cypress/psoc creator/4.0/psoc creator/import/gnu/arm/4.9.3/bin/../lib/gcc/arm-none-eabi/4.9.3/../../../../arm-none-eabi/lib/armv7-m\libg_nano.a(lib_a-nano-vfprintf_float.o)
 .rodata.str1.1
                0x00000000       0x12 c:/program files (x86)/cypress/psoc creator/4.0/psoc creator/import/gnu/arm/4.9.3/bin/../lib/gcc/arm-none-eabi/4.9.3/../../../../arm-none-eabi/lib/armv7-m\libg_nano.a(lib_a-nano-vfprintf_float.o)
 .text          0x00000000        0x0 c:/program files (x86)/cypress/psoc creator/4.0/psoc creator/import/gnu/arm/4.9.3/bin/../lib/gcc/arm-none-eabi/4.9.3/../../../../arm-none-eabi/lib/armv7-m\libg_nano.a(lib_a-nano-vfprintf_i.o)
 .data          0x00000000        0x0 c:/program files (x86)/cypress/psoc creator/4.0/psoc creator/import/gnu/arm/4.9.3/bin/../lib/gcc/arm-none-eabi/4.9.3/../../../../arm-none-eabi/lib/armv7-m\libg_nano.a(lib_a-nano-vfprintf_i.o)
 .bss           0x00000000        0x0 c:/program files (x86)/cypress/psoc creator/4.0/psoc creator/import/gnu/arm/4.9.3/bin/../lib/gcc/arm-none-eabi/4.9.3/../../../../arm-none-eabi/lib/armv7-m\libg_nano.a(lib_a-nano-vfprintf_i.o)
 .text._printf_common
                0x00000000       0xea c:/program files (x86)/cypress/psoc creator/4.0/psoc creator/import/gnu/arm/4.9.3/bin/../lib/gcc/arm-none-eabi/4.9.3/../../../../arm-none-eabi/lib/armv7-m\libg_nano.a(lib_a-nano-vfprintf_i.o)
 .text._printf_i
                0x00000000      0x240 c:/program files (x86)/cypress/psoc creator/4.0/psoc creator/import/gnu/arm/4.9.3/bin/../lib/gcc/arm-none-eabi/4.9.3/../../../../arm-none-eabi/lib/armv7-m\libg_nano.a(lib_a-nano-vfprintf_i.o)
 .rodata.str1.1
                0x00000000       0x22 c:/program files (x86)/cypress/psoc creator/4.0/psoc creator/import/gnu/arm/4.9.3/bin/../lib/gcc/arm-none-eabi/4.9.3/../../../../arm-none-eabi/lib/armv7-m\libg_nano.a(lib_a-nano-vfprintf_i.o)
 .text          0x00000000        0x0 c:/program files (x86)/cypress/psoc creator/4.0/psoc creator/import/gnu/arm/4.9.3/bin/../lib/gcc/arm-none-eabi/4.9.3/../../../../arm-none-eabi/lib/armv7-m\libg_nano.a(lib_a-s_fpclassify.o)
 .data          0x00000000        0x0 c:/program files (x86)/cypress/psoc creator/4.0/psoc creator/import/gnu/arm/4.9.3/bin/../lib/gcc/arm-none-eabi/4.9.3/../../../../arm-none-eabi/lib/armv7-m\libg_nano.a(lib_a-s_fpclassify.o)
 .bss           0x00000000        0x0 c:/program files (x86)/cypress/psoc creator/4.0/psoc creator/import/gnu/arm/4.9.3/bin/../lib/gcc/arm-none-eabi/4.9.3/../../../../arm-none-eabi/lib/armv7-m\libg_nano.a(lib_a-s_fpclassify.o)
 .text.__fpclassifyd
                0x00000000       0x50 c:/program files (x86)/cypress/psoc creator/4.0/psoc creator/import/gnu/arm/4.9.3/bin/../lib/gcc/arm-none-eabi/4.9.3/../../../../arm-none-eabi/lib/armv7-m\libg_nano.a(lib_a-s_fpclassify.o)
 .text          0x00000000        0x0 c:/program files (x86)/cypress/psoc creator/4.0/psoc creator/import/gnu/arm/4.9.3/bin/../lib/gcc/arm-none-eabi/4.9.3/../../../../arm-none-eabi/lib/armv7-m\libg_nano.a(lib_a-strlen.o)
 .data          0x00000000        0x0 c:/program files (x86)/cypress/psoc creator/4.0/psoc creator/import/gnu/arm/4.9.3/bin/../lib/gcc/arm-none-eabi/4.9.3/../../../../arm-none-eabi/lib/armv7-m\libg_nano.a(lib_a-strlen.o)
 .bss           0x00000000        0x0 c:/program files (x86)/cypress/psoc creator/4.0/psoc creator/import/gnu/arm/4.9.3/bin/../lib/gcc/arm-none-eabi/4.9.3/../../../../arm-none-eabi/lib/armv7-m\libg_nano.a(lib_a-strlen.o)
 .text.strlen   0x00000000       0x10 c:/program files (x86)/cypress/psoc creator/4.0/psoc creator/import/gnu/arm/4.9.3/bin/../lib/gcc/arm-none-eabi/4.9.3/../../../../arm-none-eabi/lib/armv7-m\libg_nano.a(lib_a-strlen.o)
 .text          0x00000000        0x0 c:/program files (x86)/cypress/psoc creator/4.0/psoc creator/import/gnu/arm/4.9.3/bin/../lib/gcc/arm-none-eabi/4.9.3/../../../../arm-none-eabi/lib/armv7-m\libg_nano.a(lib_a-dtoa.o)
 .data          0x00000000        0x0 c:/program files (x86)/cypress/psoc creator/4.0/psoc creator/import/gnu/arm/4.9.3/bin/../lib/gcc/arm-none-eabi/4.9.3/../../../../arm-none-eabi/lib/armv7-m\libg_nano.a(lib_a-dtoa.o)
 .bss           0x00000000        0x0 c:/program files (x86)/cypress/psoc creator/4.0/psoc creator/import/gnu/arm/4.9.3/bin/../lib/gcc/arm-none-eabi/4.9.3/../../../../arm-none-eabi/lib/armv7-m\libg_nano.a(lib_a-dtoa.o)
 .text.quorem   0x00000000      0x114 c:/program files (x86)/cypress/psoc creator/4.0/psoc creator/import/gnu/arm/4.9.3/bin/../lib/gcc/arm-none-eabi/4.9.3/../../../../arm-none-eabi/lib/armv7-m\libg_nano.a(lib_a-dtoa.o)
 .text._dtoa_r  0x00000000      0xb78 c:/program files (x86)/cypress/psoc creator/4.0/psoc creator/import/gnu/arm/4.9.3/bin/../lib/gcc/arm-none-eabi/4.9.3/../../../../arm-none-eabi/lib/armv7-m\libg_nano.a(lib_a-dtoa.o)
 .rodata.str1.1
                0x00000000        0xf c:/program files (x86)/cypress/psoc creator/4.0/psoc creator/import/gnu/arm/4.9.3/bin/../lib/gcc/arm-none-eabi/4.9.3/../../../../arm-none-eabi/lib/armv7-m\libg_nano.a(lib_a-dtoa.o)
 .text          0x00000000        0x0 c:/program files (x86)/cypress/psoc creator/4.0/psoc creator/import/gnu/arm/4.9.3/bin/../lib/gcc/arm-none-eabi/4.9.3/../../../../arm-none-eabi/lib/armv7-m\libg_nano.a(lib_a-locale.o)
 .data          0x00000000        0x0 c:/program files (x86)/cypress/psoc creator/4.0/psoc creator/import/gnu/arm/4.9.3/bin/../lib/gcc/arm-none-eabi/4.9.3/../../../../arm-none-eabi/lib/armv7-m\libg_nano.a(lib_a-locale.o)
 .bss           0x00000000        0x0 c:/program files (x86)/cypress/psoc creator/4.0/psoc creator/import/gnu/arm/4.9.3/bin/../lib/gcc/arm-none-eabi/4.9.3/../../../../arm-none-eabi/lib/armv7-m\libg_nano.a(lib_a-locale.o)
 .text._setlocale_r
                0x00000000       0x40 c:/program files (x86)/cypress/psoc creator/4.0/psoc creator/import/gnu/arm/4.9.3/bin/../lib/gcc/arm-none-eabi/4.9.3/../../../../arm-none-eabi/lib/armv7-m\libg_nano.a(lib_a-locale.o)
 .text.__locale_charset
                0x00000000        0x8 c:/program files (x86)/cypress/psoc creator/4.0/psoc creator/import/gnu/arm/4.9.3/bin/../lib/gcc/arm-none-eabi/4.9.3/../../../../arm-none-eabi/lib/armv7-m\libg_nano.a(lib_a-locale.o)
 .text.__locale_mb_cur_max
                0x00000000        0xc c:/program files (x86)/cypress/psoc creator/4.0/psoc creator/import/gnu/arm/4.9.3/bin/../lib/gcc/arm-none-eabi/4.9.3/../../../../arm-none-eabi/lib/armv7-m\libg_nano.a(lib_a-locale.o)
 .text.__locale_msgcharset
                0x00000000        0x8 c:/program files (x86)/cypress/psoc creator/4.0/psoc creator/import/gnu/arm/4.9.3/bin/../lib/gcc/arm-none-eabi/4.9.3/../../../../arm-none-eabi/lib/armv7-m\libg_nano.a(lib_a-locale.o)
 .text.__locale_cjk_lang
                0x00000000        0x4 c:/program files (x86)/cypress/psoc creator/4.0/psoc creator/import/gnu/arm/4.9.3/bin/../lib/gcc/arm-none-eabi/4.9.3/../../../../arm-none-eabi/lib/armv7-m\libg_nano.a(lib_a-locale.o)
 .text._localeconv_r
                0x00000000        0x8 c:/program files (x86)/cypress/psoc creator/4.0/psoc creator/import/gnu/arm/4.9.3/bin/../lib/gcc/arm-none-eabi/4.9.3/../../../../arm-none-eabi/lib/armv7-m\libg_nano.a(lib_a-locale.o)
 .text.setlocale
                0x00000000       0x14 c:/program files (x86)/cypress/psoc creator/4.0/psoc creator/import/gnu/arm/4.9.3/bin/../lib/gcc/arm-none-eabi/4.9.3/../../../../arm-none-eabi/lib/armv7-m\libg_nano.a(lib_a-locale.o)
 .text.localeconv
                0x00000000        0x8 c:/program files (x86)/cypress/psoc creator/4.0/psoc creator/import/gnu/arm/4.9.3/bin/../lib/gcc/arm-none-eabi/4.9.3/../../../../arm-none-eabi/lib/armv7-m\libg_nano.a(lib_a-locale.o)
 .data.lc_message_charset
                0x00000000       0x20 c:/program files (x86)/cypress/psoc creator/4.0/psoc creator/import/gnu/arm/4.9.3/bin/../lib/gcc/arm-none-eabi/4.9.3/../../../../arm-none-eabi/lib/armv7-m\libg_nano.a(lib_a-locale.o)
 .bss._PathLocale
                0x00000000        0x4 c:/program files (x86)/cypress/psoc creator/4.0/psoc creator/import/gnu/arm/4.9.3/bin/../lib/gcc/arm-none-eabi/4.9.3/../../../../arm-none-eabi/lib/armv7-m\libg_nano.a(lib_a-locale.o)
 .bss.__nlocale_changed
                0x00000000        0x4 c:/program files (x86)/cypress/psoc creator/4.0/psoc creator/import/gnu/arm/4.9.3/bin/../lib/gcc/arm-none-eabi/4.9.3/../../../../arm-none-eabi/lib/armv7-m\libg_nano.a(lib_a-locale.o)
 .bss.__mlocale_changed
                0x00000000        0x4 c:/program files (x86)/cypress/psoc creator/4.0/psoc creator/import/gnu/arm/4.9.3/bin/../lib/gcc/arm-none-eabi/4.9.3/../../../../arm-none-eabi/lib/armv7-m\libg_nano.a(lib_a-locale.o)
 .data.lconv    0x00000000       0x38 c:/program files (x86)/cypress/psoc creator/4.0/psoc creator/import/gnu/arm/4.9.3/bin/../lib/gcc/arm-none-eabi/4.9.3/../../../../arm-none-eabi/lib/armv7-m\libg_nano.a(lib_a-locale.o)
 .rodata.str1.1
                0x00000000        0xb c:/program files (x86)/cypress/psoc creator/4.0/psoc creator/import/gnu/arm/4.9.3/bin/../lib/gcc/arm-none-eabi/4.9.3/../../../../arm-none-eabi/lib/armv7-m\libg_nano.a(lib_a-locale.o)
 .data.lc_ctype_charset
                0x00000000       0x20 c:/program files (x86)/cypress/psoc creator/4.0/psoc creator/import/gnu/arm/4.9.3/bin/../lib/gcc/arm-none-eabi/4.9.3/../../../../arm-none-eabi/lib/armv7-m\libg_nano.a(lib_a-locale.o)
 .data.__mb_cur_max
                0x00000000        0x4 c:/program files (x86)/cypress/psoc creator/4.0/psoc creator/import/gnu/arm/4.9.3/bin/../lib/gcc/arm-none-eabi/4.9.3/../../../../arm-none-eabi/lib/armv7-m\libg_nano.a(lib_a-locale.o)
 .text          0x00000000        0x0 c:/program files (x86)/cypress/psoc creator/4.0/psoc creator/import/gnu/arm/4.9.3/bin/../lib/gcc/arm-none-eabi/4.9.3/../../../../arm-none-eabi/lib/armv7-m\libg_nano.a(lib_a-malloc.o)
 .data          0x00000000        0x0 c:/program files (x86)/cypress/psoc creator/4.0/psoc creator/import/gnu/arm/4.9.3/bin/../lib/gcc/arm-none-eabi/4.9.3/../../../../arm-none-eabi/lib/armv7-m\libg_nano.a(lib_a-malloc.o)
 .bss           0x00000000        0x0 c:/program files (x86)/cypress/psoc creator/4.0/psoc creator/import/gnu/arm/4.9.3/bin/../lib/gcc/arm-none-eabi/4.9.3/../../../../arm-none-eabi/lib/armv7-m\libg_nano.a(lib_a-malloc.o)
 .text.malloc   0x00000000       0x10 c:/program files (x86)/cypress/psoc creator/4.0/psoc creator/import/gnu/arm/4.9.3/bin/../lib/gcc/arm-none-eabi/4.9.3/../../../../arm-none-eabi/lib/armv7-m\libg_nano.a(lib_a-malloc.o)
 .text.free     0x00000000       0x10 c:/program files (x86)/cypress/psoc creator/4.0/psoc creator/import/gnu/arm/4.9.3/bin/../lib/gcc/arm-none-eabi/4.9.3/../../../../arm-none-eabi/lib/armv7-m\libg_nano.a(lib_a-malloc.o)
 .text          0x00000000        0x0 c:/program files (x86)/cypress/psoc creator/4.0/psoc creator/import/gnu/arm/4.9.3/bin/../lib/gcc/arm-none-eabi/4.9.3/../../../../arm-none-eabi/lib/armv7-m\libg_nano.a(lib_a-memchr.o)
 .data          0x00000000        0x0 c:/program files (x86)/cypress/psoc creator/4.0/psoc creator/import/gnu/arm/4.9.3/bin/../lib/gcc/arm-none-eabi/4.9.3/../../../../arm-none-eabi/lib/armv7-m\libg_nano.a(lib_a-memchr.o)
 .bss           0x00000000        0x0 c:/program files (x86)/cypress/psoc creator/4.0/psoc creator/import/gnu/arm/4.9.3/bin/../lib/gcc/arm-none-eabi/4.9.3/../../../../arm-none-eabi/lib/armv7-m\libg_nano.a(lib_a-memchr.o)
 .text.memchr   0x00000000       0x1c c:/program files (x86)/cypress/psoc creator/4.0/psoc creator/import/gnu/arm/4.9.3/bin/../lib/gcc/arm-none-eabi/4.9.3/../../../../arm-none-eabi/lib/armv7-m\libg_nano.a(lib_a-memchr.o)
 .text          0x00000000        0x0 c:/program files (x86)/cypress/psoc creator/4.0/psoc creator/import/gnu/arm/4.9.3/bin/../lib/gcc/arm-none-eabi/4.9.3/../../../../arm-none-eabi/lib/armv7-m\libg_nano.a(lib_a-mprec.o)
 .data          0x00000000        0x0 c:/program files (x86)/cypress/psoc creator/4.0/psoc creator/import/gnu/arm/4.9.3/bin/../lib/gcc/arm-none-eabi/4.9.3/../../../../arm-none-eabi/lib/armv7-m\libg_nano.a(lib_a-mprec.o)
 .bss           0x00000000        0x0 c:/program files (x86)/cypress/psoc creator/4.0/psoc creator/import/gnu/arm/4.9.3/bin/../lib/gcc/arm-none-eabi/4.9.3/../../../../arm-none-eabi/lib/armv7-m\libg_nano.a(lib_a-mprec.o)
 .text._Balloc  0x00000000       0x6a c:/program files (x86)/cypress/psoc creator/4.0/psoc creator/import/gnu/arm/4.9.3/bin/../lib/gcc/arm-none-eabi/4.9.3/../../../../arm-none-eabi/lib/armv7-m\libg_nano.a(lib_a-mprec.o)
 .text._Bfree   0x00000000       0x2e c:/program files (x86)/cypress/psoc creator/4.0/psoc creator/import/gnu/arm/4.9.3/bin/../lib/gcc/arm-none-eabi/4.9.3/../../../../arm-none-eabi/lib/armv7-m\libg_nano.a(lib_a-mprec.o)
 .text.__multadd
                0x00000000       0x7c c:/program files (x86)/cypress/psoc creator/4.0/psoc creator/import/gnu/arm/4.9.3/bin/../lib/gcc/arm-none-eabi/4.9.3/../../../../arm-none-eabi/lib/armv7-m\libg_nano.a(lib_a-mprec.o)
 .text.__s2b    0x00000000       0x80 c:/program files (x86)/cypress/psoc creator/4.0/psoc creator/import/gnu/arm/4.9.3/bin/../lib/gcc/arm-none-eabi/4.9.3/../../../../arm-none-eabi/lib/armv7-m\libg_nano.a(lib_a-mprec.o)
 .text.__hi0bits
                0x00000000       0x40 c:/program files (x86)/cypress/psoc creator/4.0/psoc creator/import/gnu/arm/4.9.3/bin/../lib/gcc/arm-none-eabi/4.9.3/../../../../arm-none-eabi/lib/armv7-m\libg_nano.a(lib_a-mprec.o)
 .text.__lo0bits
                0x00000000       0x5a c:/program files (x86)/cypress/psoc creator/4.0/psoc creator/import/gnu/arm/4.9.3/bin/../lib/gcc/arm-none-eabi/4.9.3/../../../../arm-none-eabi/lib/armv7-m\libg_nano.a(lib_a-mprec.o)
 .text.__i2b    0x00000000       0x12 c:/program files (x86)/cypress/psoc creator/4.0/psoc creator/import/gnu/arm/4.9.3/bin/../lib/gcc/arm-none-eabi/4.9.3/../../../../arm-none-eabi/lib/armv7-m\libg_nano.a(lib_a-mprec.o)
 .text.__multiply
                0x00000000      0x120 c:/program files (x86)/cypress/psoc creator/4.0/psoc creator/import/gnu/arm/4.9.3/bin/../lib/gcc/arm-none-eabi/4.9.3/../../../../arm-none-eabi/lib/armv7-m\libg_nano.a(lib_a-mprec.o)
 .text.__pow5mult
                0x00000000       0x9c c:/program files (x86)/cypress/psoc creator/4.0/psoc creator/import/gnu/arm/4.9.3/bin/../lib/gcc/arm-none-eabi/4.9.3/../../../../arm-none-eabi/lib/armv7-m\libg_nano.a(lib_a-mprec.o)
 .text.__lshift
                0x00000000       0xa6 c:/program files (x86)/cypress/psoc creator/4.0/psoc creator/import/gnu/arm/4.9.3/bin/../lib/gcc/arm-none-eabi/4.9.3/../../../../arm-none-eabi/lib/armv7-m\libg_nano.a(lib_a-mprec.o)
 .text.__mcmp   0x00000000       0x38 c:/program files (x86)/cypress/psoc creator/4.0/psoc creator/import/gnu/arm/4.9.3/bin/../lib/gcc/arm-none-eabi/4.9.3/../../../../arm-none-eabi/lib/armv7-m\libg_nano.a(lib_a-mprec.o)
 .text.__mdiff  0x00000000       0xbe c:/program files (x86)/cypress/psoc creator/4.0/psoc creator/import/gnu/arm/4.9.3/bin/../lib/gcc/arm-none-eabi/4.9.3/../../../../arm-none-eabi/lib/armv7-m\libg_nano.a(lib_a-mprec.o)
 .text.__ulp    0x00000000       0x48 c:/program files (x86)/cypress/psoc creator/4.0/psoc creator/import/gnu/arm/4.9.3/bin/../lib/gcc/arm-none-eabi/4.9.3/../../../../arm-none-eabi/lib/armv7-m\libg_nano.a(lib_a-mprec.o)
 .text.__b2d    0x00000000       0x9e c:/program files (x86)/cypress/psoc creator/4.0/psoc creator/import/gnu/arm/4.9.3/bin/../lib/gcc/arm-none-eabi/4.9.3/../../../../arm-none-eabi/lib/armv7-m\libg_nano.a(lib_a-mprec.o)
 .text.__d2b    0x00000000       0xa4 c:/program files (x86)/cypress/psoc creator/4.0/psoc creator/import/gnu/arm/4.9.3/bin/../lib/gcc/arm-none-eabi/4.9.3/../../../../arm-none-eabi/lib/armv7-m\libg_nano.a(lib_a-mprec.o)
 .text.__ratio  0x00000000       0x50 c:/program files (x86)/cypress/psoc creator/4.0/psoc creator/import/gnu/arm/4.9.3/bin/../lib/gcc/arm-none-eabi/4.9.3/../../../../arm-none-eabi/lib/armv7-m\libg_nano.a(lib_a-mprec.o)
 .text._mprec_log10
                0x00000000       0x34 c:/program files (x86)/cypress/psoc creator/4.0/psoc creator/import/gnu/arm/4.9.3/bin/../lib/gcc/arm-none-eabi/4.9.3/../../../../arm-none-eabi/lib/armv7-m\libg_nano.a(lib_a-mprec.o)
 .text.__copybits
                0x00000000       0x34 c:/program files (x86)/cypress/psoc creator/4.0/psoc creator/import/gnu/arm/4.9.3/bin/../lib/gcc/arm-none-eabi/4.9.3/../../../../arm-none-eabi/lib/armv7-m\libg_nano.a(lib_a-mprec.o)
 .text.__any_on
                0x00000000       0x44 c:/program files (x86)/cypress/psoc creator/4.0/psoc creator/import/gnu/arm/4.9.3/bin/../lib/gcc/arm-none-eabi/4.9.3/../../../../arm-none-eabi/lib/armv7-m\libg_nano.a(lib_a-mprec.o)
 .rodata.__mprec_tens
                0x00000000       0xc8 c:/program files (x86)/cypress/psoc creator/4.0/psoc creator/import/gnu/arm/4.9.3/bin/../lib/gcc/arm-none-eabi/4.9.3/../../../../arm-none-eabi/lib/armv7-m\libg_nano.a(lib_a-mprec.o)
 .rodata.__mprec_bigtens
                0x00000000       0x28 c:/program files (x86)/cypress/psoc creator/4.0/psoc creator/import/gnu/arm/4.9.3/bin/../lib/gcc/arm-none-eabi/4.9.3/../../../../arm-none-eabi/lib/armv7-m\libg_nano.a(lib_a-mprec.o)
 .rodata.p05.5308
                0x00000000        0xc c:/program files (x86)/cypress/psoc creator/4.0/psoc creator/import/gnu/arm/4.9.3/bin/../lib/gcc/arm-none-eabi/4.9.3/../../../../arm-none-eabi/lib/armv7-m\libg_nano.a(lib_a-mprec.o)
 .rodata.__mprec_tinytens
                0x00000000       0x28 c:/program files (x86)/cypress/psoc creator/4.0/psoc creator/import/gnu/arm/4.9.3/bin/../lib/gcc/arm-none-eabi/4.9.3/../../../../arm-none-eabi/lib/armv7-m\libg_nano.a(lib_a-mprec.o)
 .text          0x00000000        0x0 c:/program files (x86)/cypress/psoc creator/4.0/psoc creator/import/gnu/arm/4.9.3/bin/../lib/gcc/arm-none-eabi/4.9.3/../../../../arm-none-eabi/lib/armv7-m\libg_nano.a(lib_a-nano-callocr.o)
 .data          0x00000000        0x0 c:/program files (x86)/cypress/psoc creator/4.0/psoc creator/import/gnu/arm/4.9.3/bin/../lib/gcc/arm-none-eabi/4.9.3/../../../../arm-none-eabi/lib/armv7-m\libg_nano.a(lib_a-nano-callocr.o)
 .bss           0x00000000        0x0 c:/program files (x86)/cypress/psoc creator/4.0/psoc creator/import/gnu/arm/4.9.3/bin/../lib/gcc/arm-none-eabi/4.9.3/../../../../arm-none-eabi/lib/armv7-m\libg_nano.a(lib_a-nano-callocr.o)
 .text._calloc_r
                0x00000000       0x1c c:/program files (x86)/cypress/psoc creator/4.0/psoc creator/import/gnu/arm/4.9.3/bin/../lib/gcc/arm-none-eabi/4.9.3/../../../../arm-none-eabi/lib/armv7-m\libg_nano.a(lib_a-nano-callocr.o)
 .text          0x00000000        0x0 c:/program files (x86)/cypress/psoc creator/4.0/psoc creator/import/gnu/arm/4.9.3/bin/../lib/gcc/arm-none-eabi/4.9.3/../../../../arm-none-eabi/lib/armv7-m\libg_nano.a(lib_a-nano-freer.o)
 .data          0x00000000        0x0 c:/program files (x86)/cypress/psoc creator/4.0/psoc creator/import/gnu/arm/4.9.3/bin/../lib/gcc/arm-none-eabi/4.9.3/../../../../arm-none-eabi/lib/armv7-m\libg_nano.a(lib_a-nano-freer.o)
 .bss           0x00000000        0x0 c:/program files (x86)/cypress/psoc creator/4.0/psoc creator/import/gnu/arm/4.9.3/bin/../lib/gcc/arm-none-eabi/4.9.3/../../../../arm-none-eabi/lib/armv7-m\libg_nano.a(lib_a-nano-freer.o)
 .text._free_r  0x00000000       0x88 c:/program files (x86)/cypress/psoc creator/4.0/psoc creator/import/gnu/arm/4.9.3/bin/../lib/gcc/arm-none-eabi/4.9.3/../../../../arm-none-eabi/lib/armv7-m\libg_nano.a(lib_a-nano-freer.o)
 .text          0x00000000        0x0 c:/program files (x86)/cypress/psoc creator/4.0/psoc creator/import/gnu/arm/4.9.3/bin/../lib/gcc/arm-none-eabi/4.9.3/../../../../arm-none-eabi/lib/armv7-m\libg_nano.a(lib_a-nano-mallocr.o)
 .data          0x00000000        0x0 c:/program files (x86)/cypress/psoc creator/4.0/psoc creator/import/gnu/arm/4.9.3/bin/../lib/gcc/arm-none-eabi/4.9.3/../../../../arm-none-eabi/lib/armv7-m\libg_nano.a(lib_a-nano-mallocr.o)
 .bss           0x00000000        0x0 c:/program files (x86)/cypress/psoc creator/4.0/psoc creator/import/gnu/arm/4.9.3/bin/../lib/gcc/arm-none-eabi/4.9.3/../../../../arm-none-eabi/lib/armv7-m\libg_nano.a(lib_a-nano-mallocr.o)
 .text._malloc_r
                0x00000000       0xac c:/program files (x86)/cypress/psoc creator/4.0/psoc creator/import/gnu/arm/4.9.3/bin/../lib/gcc/arm-none-eabi/4.9.3/../../../../arm-none-eabi/lib/armv7-m\libg_nano.a(lib_a-nano-mallocr.o)
 .bss.__malloc_sbrk_start
                0x00000000        0x4 c:/program files (x86)/cypress/psoc creator/4.0/psoc creator/import/gnu/arm/4.9.3/bin/../lib/gcc/arm-none-eabi/4.9.3/../../../../arm-none-eabi/lib/armv7-m\libg_nano.a(lib_a-nano-mallocr.o)
 .bss.__malloc_free_list
                0x00000000        0x4 c:/program files (x86)/cypress/psoc creator/4.0/psoc creator/import/gnu/arm/4.9.3/bin/../lib/gcc/arm-none-eabi/4.9.3/../../../../arm-none-eabi/lib/armv7-m\libg_nano.a(lib_a-nano-mallocr.o)
 .text          0x00000000        0x0 c:/program files (x86)/cypress/psoc creator/4.0/psoc creator/import/gnu/arm/4.9.3/bin/../lib/gcc/arm-none-eabi/4.9.3/../../../../arm-none-eabi/lib/armv7-m\libg_nano.a(lib_a-sbrkr.o)
 .data          0x00000000        0x0 c:/program files (x86)/cypress/psoc creator/4.0/psoc creator/import/gnu/arm/4.9.3/bin/../lib/gcc/arm-none-eabi/4.9.3/../../../../arm-none-eabi/lib/armv7-m\libg_nano.a(lib_a-sbrkr.o)
 .bss           0x00000000        0x0 c:/program files (x86)/cypress/psoc creator/4.0/psoc creator/import/gnu/arm/4.9.3/bin/../lib/gcc/arm-none-eabi/4.9.3/../../../../arm-none-eabi/lib/armv7-m\libg_nano.a(lib_a-sbrkr.o)
 .text._sbrk_r  0x00000000       0x20 c:/program files (x86)/cypress/psoc creator/4.0/psoc creator/import/gnu/arm/4.9.3/bin/../lib/gcc/arm-none-eabi/4.9.3/../../../../arm-none-eabi/lib/armv7-m\libg_nano.a(lib_a-sbrkr.o)
 .text          0x00000000       0x14 c:/program files (x86)/cypress/psoc creator/4.0/psoc creator/import/gnu/arm/4.9.3/bin/../lib/gcc/arm-none-eabi/4.9.3/../../../../arm-none-eabi/lib/armv7-m\libg_nano.a(lib_a-strcmp.o)
 .data          0x00000000        0x0 c:/program files (x86)/cypress/psoc creator/4.0/psoc creator/import/gnu/arm/4.9.3/bin/../lib/gcc/arm-none-eabi/4.9.3/../../../../arm-none-eabi/lib/armv7-m\libg_nano.a(lib_a-strcmp.o)
 .bss           0x00000000        0x0 c:/program files (x86)/cypress/psoc creator/4.0/psoc creator/import/gnu/arm/4.9.3/bin/../lib/gcc/arm-none-eabi/4.9.3/../../../../arm-none-eabi/lib/armv7-m\libg_nano.a(lib_a-strcmp.o)
 .text          0x00000000        0x0 c:/program files (x86)/cypress/psoc creator/4.0/psoc creator/import/gnu/arm/4.9.3/bin/../lib/gcc/arm-none-eabi/4.9.3/../../../../arm-none-eabi/lib/armv7-m\libg_nano.a(lib_a-reent.o)
 .data          0x00000000        0x0 c:/program files (x86)/cypress/psoc creator/4.0/psoc creator/import/gnu/arm/4.9.3/bin/../lib/gcc/arm-none-eabi/4.9.3/../../../../arm-none-eabi/lib/armv7-m\libg_nano.a(lib_a-reent.o)
 .bss           0x00000000        0x0 c:/program files (x86)/cypress/psoc creator/4.0/psoc creator/import/gnu/arm/4.9.3/bin/../lib/gcc/arm-none-eabi/4.9.3/../../../../arm-none-eabi/lib/armv7-m\libg_nano.a(lib_a-reent.o)
 .text.cleanup_glue
                0x00000000       0x1a c:/program files (x86)/cypress/psoc creator/4.0/psoc creator/import/gnu/arm/4.9.3/bin/../lib/gcc/arm-none-eabi/4.9.3/../../../../arm-none-eabi/lib/armv7-m\libg_nano.a(lib_a-reent.o)
 .text._reclaim_reent
                0x00000000       0xb4 c:/program files (x86)/cypress/psoc creator/4.0/psoc creator/import/gnu/arm/4.9.3/bin/../lib/gcc/arm-none-eabi/4.9.3/../../../../arm-none-eabi/lib/armv7-m\libg_nano.a(lib_a-reent.o)
 COMMON         0x00000000        0x4 c:/program files (x86)/cypress/psoc creator/4.0/psoc creator/import/gnu/arm/4.9.3/bin/../lib/gcc/arm-none-eabi/4.9.3/../../../../arm-none-eabi/lib/armv7-m\libg_nano.a(lib_a-reent.o)
 .text          0x00000000      0x370 c:/program files (x86)/cypress/psoc creator/4.0/psoc creator/import/gnu/arm/4.9.3/bin/../lib/gcc/arm-none-eabi/4.9.3/armv7-m\libgcc.a(_arm_addsubdf3.o)
 .data          0x00000000        0x0 c:/program files (x86)/cypress/psoc creator/4.0/psoc creator/import/gnu/arm/4.9.3/bin/../lib/gcc/arm-none-eabi/4.9.3/armv7-m\libgcc.a(_arm_addsubdf3.o)
 .bss           0x00000000        0x0 c:/program files (x86)/cypress/psoc creator/4.0/psoc creator/import/gnu/arm/4.9.3/bin/../lib/gcc/arm-none-eabi/4.9.3/armv7-m\libgcc.a(_arm_addsubdf3.o)
 .text          0x00000000      0x424 c:/program files (x86)/cypress/psoc creator/4.0/psoc creator/import/gnu/arm/4.9.3/bin/../lib/gcc/arm-none-eabi/4.9.3/armv7-m\libgcc.a(_arm_muldivdf3.o)
 .data          0x00000000        0x0 c:/program files (x86)/cypress/psoc creator/4.0/psoc creator/import/gnu/arm/4.9.3/bin/../lib/gcc/arm-none-eabi/4.9.3/armv7-m\libgcc.a(_arm_muldivdf3.o)
 .bss           0x00000000        0x0 c:/program files (x86)/cypress/psoc creator/4.0/psoc creator/import/gnu/arm/4.9.3/bin/../lib/gcc/arm-none-eabi/4.9.3/armv7-m\libgcc.a(_arm_muldivdf3.o)
 .text          0x00000000      0x110 c:/program files (x86)/cypress/psoc creator/4.0/psoc creator/import/gnu/arm/4.9.3/bin/../lib/gcc/arm-none-eabi/4.9.3/armv7-m\libgcc.a(_arm_cmpdf2.o)
 .data          0x00000000        0x0 c:/program files (x86)/cypress/psoc creator/4.0/psoc creator/import/gnu/arm/4.9.3/bin/../lib/gcc/arm-none-eabi/4.9.3/armv7-m\libgcc.a(_arm_cmpdf2.o)
 .bss           0x00000000        0x0 c:/program files (x86)/cypress/psoc creator/4.0/psoc creator/import/gnu/arm/4.9.3/bin/../lib/gcc/arm-none-eabi/4.9.3/armv7-m\libgcc.a(_arm_cmpdf2.o)
 .text          0x00000000       0x50 c:/program files (x86)/cypress/psoc creator/4.0/psoc creator/import/gnu/arm/4.9.3/bin/../lib/gcc/arm-none-eabi/4.9.3/armv7-m\libgcc.a(_arm_fixdfsi.o)
 .data          0x00000000        0x0 c:/program files (x86)/cypress/psoc creator/4.0/psoc creator/import/gnu/arm/4.9.3/bin/../lib/gcc/arm-none-eabi/4.9.3/armv7-m\libgcc.a(_arm_fixdfsi.o)
 .bss           0x00000000        0x0 c:/program files (x86)/cypress/psoc creator/4.0/psoc creator/import/gnu/arm/4.9.3/bin/../lib/gcc/arm-none-eabi/4.9.3/armv7-m\libgcc.a(_arm_fixdfsi.o)
 .text          0x00000000        0x0 c:/program files (x86)/cypress/psoc creator/4.0/psoc creator/import/gnu/arm/4.9.3/bin/../lib/gcc/arm-none-eabi/4.9.3/armv7-m/crtend.o
 .data          0x00000000        0x0 c:/program files (x86)/cypress/psoc creator/4.0/psoc creator/import/gnu/arm/4.9.3/bin/../lib/gcc/arm-none-eabi/4.9.3/armv7-m/crtend.o
 .bss           0x00000000        0x0 c:/program files (x86)/cypress/psoc creator/4.0/psoc creator/import/gnu/arm/4.9.3/bin/../lib/gcc/arm-none-eabi/4.9.3/armv7-m/crtend.o
 .text          0x00000000        0x0 c:/program files (x86)/cypress/psoc creator/4.0/psoc creator/import/gnu/arm/4.9.3/bin/../lib/gcc/arm-none-eabi/4.9.3/armv7-m/crtn.o
 .data          0x00000000        0x0 c:/program files (x86)/cypress/psoc creator/4.0/psoc creator/import/gnu/arm/4.9.3/bin/../lib/gcc/arm-none-eabi/4.9.3/armv7-m/crtn.o
 .bss           0x00000000        0x0 c:/program files (x86)/cypress/psoc creator/4.0/psoc creator/import/gnu/arm/4.9.3/bin/../lib/gcc/arm-none-eabi/4.9.3/armv7-m/crtn.o

Memory Configuration

Name             Origin             Length             Attributes
rom              0x00000000         0x00040000         xr
ram              0x1fff8000         0x00010000         xrw
*default*        0x00000000         0xffffffff

Linker script and memory map

LOAD c:/program files (x86)/cypress/psoc creator/4.0/psoc creator/import/gnu/arm/4.9.3/bin/../lib/gcc/arm-none-eabi/4.9.3/armv7-m/crti.o
LOAD c:/program files (x86)/cypress/psoc creator/4.0/psoc creator/import/gnu/arm/4.9.3/bin/../lib/gcc/arm-none-eabi/4.9.3/armv7-m/crtbegin.o
LOAD c:/program files (x86)/cypress/psoc creator/4.0/psoc creator/import/gnu/arm/4.9.3/bin/../lib/gcc/arm-none-eabi/4.9.3/../../../../arm-none-eabi/lib/armv7-m/crt0.o
START GROUP
LOAD .\CortexM3\ARM_GCC_493\Debug\main.o
LOAD .\CortexM3\ARM_GCC_493\Debug\cymetadata.o
LOAD .\CortexM3\ARM_GCC_493\Debug\Cm3Start.o
LOAD .\CortexM3\ARM_GCC_493\Debug\Controls.a
LOAD C:\Program Files (x86)\Cypress\PSoC Creator\4.0\PSoC Creator\psoc\content\cycomponentlibrary\CyComponentLibrary.cylib\CortexM3\ARM_GCC_493\Debug\CyComponentLibrary.a
END GROUP
START GROUP
LOAD c:/program files (x86)/cypress/psoc creator/4.0/psoc creator/import/gnu/arm/4.9.3/bin/../lib/gcc/arm-none-eabi/4.9.3/armv7-m\libgcc.a
LOAD c:/program files (x86)/cypress/psoc creator/4.0/psoc creator/import/gnu/arm/4.9.3/bin/../lib/gcc/arm-none-eabi/4.9.3/../../../../arm-none-eabi/lib/armv7-m\libg_nano.a
LOAD c:/program files (x86)/cypress/psoc creator/4.0/psoc creator/import/gnu/arm/4.9.3/bin/../lib/gcc/arm-none-eabi/4.9.3/../../../../arm-none-eabi/lib/armv7-m\libc_nano.a
END GROUP
START GROUP
LOAD c:/program files (x86)/cypress/psoc creator/4.0/psoc creator/import/gnu/arm/4.9.3/bin/../lib/gcc/arm-none-eabi/4.9.3/armv7-m\libgcc.a
LOAD c:/program files (x86)/cypress/psoc creator/4.0/psoc creator/import/gnu/arm/4.9.3/bin/../lib/gcc/arm-none-eabi/4.9.3/../../../../arm-none-eabi/lib/armv7-m\libc_nano.a
END GROUP
LOAD c:/program files (x86)/cypress/psoc creator/4.0/psoc creator/import/gnu/arm/4.9.3/bin/../lib/gcc/arm-none-eabi/4.9.3/armv7-m/crtend.o
LOAD c:/program files (x86)/cypress/psoc creator/4.0/psoc creator/import/gnu/arm/4.9.3/bin/../lib/gcc/arm-none-eabi/4.9.3/armv7-m/crtn.o
START GROUP
LOAD c:/program files (x86)/cypress/psoc creator/4.0/psoc creator/import/gnu/arm/4.9.3/bin/../lib/gcc/arm-none-eabi/4.9.3/armv7-m\libgcc.a
LOAD c:/program files (x86)/cypress/psoc creator/4.0/psoc creator/import/gnu/arm/4.9.3/bin/../lib/gcc/arm-none-eabi/4.9.3/../../../../arm-none-eabi/lib/armv7-m\libc.a
LOAD c:/program files (x86)/cypress/psoc creator/4.0/psoc creator/import/gnu/arm/4.9.3/bin/../lib/gcc/arm-none-eabi/4.9.3/../../../../arm-none-eabi/lib/armv7-m\libnosys.a
END GROUP
                0x00000000                CY_APPL_ORIGIN = 0x0
                0x00000100                CY_FLASH_ROW_SIZE = 0x100
                0x00000020                CY_ECC_ROW_SIZE = 0x20
                0x00000000                CY_EE_IN_BTLDR = 0x0
                0x00000000                CY_APPL_LOADABLE = 0x0
                0x00000800                CY_EE_SIZE = 0x800
                0x00000001                CY_APPL_NUM = 0x1
                0x00000001                CY_APPL_MAX = 0x1
                0x00000040                CY_METADATA_SIZE = 0x40
                0x00000000                CY_APPL_LOADABLE = 0x0
                0x00000000                CY_CHECKSUM_EXCLUDE_SIZE = ALIGN (0x0, CY_FLASH_ROW_SIZE)
                0x1fff82e0                PROVIDE (__cy_heap_start, _end)
                0x00000001                PROVIDE (__cy_region_num, ((__cy_regions_end - __cy_regions) / 0x10))
                0x20008000                PROVIDE (__cy_stack, (ORIGIN (ram) + 0x10000))
                0x20007800                PROVIDE (__cy_heap_end, (__cy_stack - 0x800))

.cybootloader   0x00000000        0x0
 *(.cybootloader)
                0x00000000                appl1_start = CY_APPL_ORIGIN?CY_APPL_ORIGIN:ALIGN (CY_FLASH_ROW_SIZE)
                0x0001ff00                appl2_start = (appl1_start + ALIGN ((((0x40000 - appl1_start) - (0x2 * CY_FLASH_ROW_SIZE)) / 0x2), CY_FLASH_ROW_SIZE))
                0x00000000                appl_start = (CY_APPL_NUM == 0x1)?appl1_start:appl2_start
                0x00000000                ecc_offset = ((appl_start / CY_FLASH_ROW_SIZE) * CY_ECC_ROW_SIZE)
                0x00000000                ee_offset = (CY_APPL_LOADABLE && ! (CY_EE_IN_BTLDR))?((CY_EE_SIZE / CY_APPL_MAX) * (CY_APPL_NUM - 0x1)):0x0
                0x00000800                ee_size = (CY_APPL_LOADABLE && ! (CY_EE_IN_BTLDR))?(CY_EE_SIZE / CY_APPL_MAX):CY_EE_SIZE
                0x00000000                PROVIDE (CY_ECC_OFFSET, ecc_offset)

.text           0x00000000     0x2f76
 CREATE_OBJECT_SYMBOLS
                0x00000000                PROVIDE (__cy_interrupt_vector, RomVectors)
 *(.romvectors)
 .romvectors    0x00000000       0x10 .\CortexM3\ARM_GCC_493\Debug\Cm3Start.o
                0x00000000                RomVectors
                0x00000001                ASSERT ((. != __cy_interrupt_vector), No interrupt vector)
                0x00000001                ASSERT (CY_APPL_ORIGIN?(SIZEOF (.cybootloader) <= CY_APPL_ORIGIN):0x1, Wrong image location)
                0x00000010                PROVIDE (__cy_reset, Reset)
 *(.text.Reset)
 .text.Reset    0x00000010       0x18 .\CortexM3\ARM_GCC_493\Debug\Cm3Start.o
                0x00000010                Reset
                0x00000001                ASSERT ((. != __cy_reset), No reset code)
 *(.dma_init)
                0x00000001                ASSERT ((((appl_start + .) <= 0x10000) || 0x1), DMA Init must be within the first 64k of flash)
 *(.text .text.* .gnu.linkonce.t.*)
 .text          0x00000028       0x5c c:/program files (x86)/cypress/psoc creator/4.0/psoc creator/import/gnu/arm/4.9.3/bin/../lib/gcc/arm-none-eabi/4.9.3/armv7-m/crtbegin.o
 .text.Power_Handler
                0x00000084       0x40 .\CortexM3\ARM_GCC_493\Debug\main.o
                0x00000084                Power_Handler
 .text.Right_Handler
                0x000000c4       0x2c .\CortexM3\ARM_GCC_493\Debug\main.o
                0x000000c4                Right_Handler
 .text.Left_Handler
                0x000000f0       0x20 .\CortexM3\ARM_GCC_493\Debug\main.o
                0x000000f0                Left_Handler
 .text.Button_Timer_Handler
                0x00000110       0x4c .\CortexM3\ARM_GCC_493\Debug\main.o
                0x00000110                Button_Timer_Handler
 .text.protection_clear
                0x0000015c       0x14 .\CortexM3\ARM_GCC_493\Debug\main.o
                0x0000015c                protection_clear
 .text.protection_set
                0x00000170       0x3c .\CortexM3\ARM_GCC_493\Debug\main.o
                0x00000170                protection_set
 .text.volume_zero
                0x000001ac       0x40 .\CortexM3\ARM_GCC_493\Debug\main.o
                0x000001ac                volume_zero
 .text.E_Handler
                0x000001ec       0x28 .\CortexM3\ARM_GCC_493\Debug\main.o
                0x000001ec                E_Handler
 .text.set_volume
                0x00000214       0x34 .\CortexM3\ARM_GCC_493\Debug\main.o
                0x00000214                set_volume
 .text.Up_Handler
                0x00000248       0x28 .\CortexM3\ARM_GCC_493\Debug\main.o
                0x00000248                Up_Handler
 .text.get_volume
                0x00000270       0x44 .\CortexM3\ARM_GCC_493\Debug\main.o
                0x00000270                get_volume
 .text.Down_Handler
                0x000002b4       0x28 .\CortexM3\ARM_GCC_493\Debug\main.o
                0x000002b4                Down_Handler
 .text.set_input
                0x000002dc       0xc8 .\CortexM3\ARM_GCC_493\Debug\main.o
                0x000002dc                set_input
 .text.main     0x000003a4      0x28c .\CortexM3\ARM_GCC_493\Debug\main.o
                0x000003a4                main
 .text.Input_2_Handler
                0x00000630       0x48 .\CortexM3\ARM_GCC_493\Debug\main.o
                0x00000630                Input_2_Handler
 .text.Input_1_Handler
                0x00000678       0x44 .\CortexM3\ARM_GCC_493\Debug\main.o
                0x00000678                Input_1_Handler
 .text.Mute_Handler
                0x000006bc       0x48 .\CortexM3\ARM_GCC_493\Debug\main.o
                0x000006bc                Mute_Handler
 .text.IntDefaultHandler
                0x00000704       0x10 .\CortexM3\ARM_GCC_493\Debug\Cm3Start.o
                0x00000704                IntDefaultHandler
 .text.Start_c  0x00000714       0x4c .\CortexM3\ARM_GCC_493\Debug\Cm3Start.o
                0x00000714                Start_c
 .text.initialize_psoc
                0x00000760       0x74 .\CortexM3\ARM_GCC_493\Debug\Cm3Start.o
                0x00000760                initialize_psoc
 .text.CyClockStartupError
                0x000007d4        0x4 .\CortexM3\ARM_GCC_493\Debug\Controls.a(cyfitter_cfg.o)
 .text.cfg_write_bytes32
                0x000007d8       0x34 .\CortexM3\ARM_GCC_493\Debug\Controls.a(cyfitter_cfg.o)
 .text.CYMEMZERO
                0x0000080c        0xc .\CortexM3\ARM_GCC_493\Debug\Controls.a(cyfitter_cfg.o)
 .text.ClockSetup
                0x00000818       0xd8 .\CortexM3\ARM_GCC_493\Debug\Controls.a(cyfitter_cfg.o)
 .text.AnalogSetDefault
                0x000008f0       0x74 .\CortexM3\ARM_GCC_493\Debug\Controls.a(cyfitter_cfg.o)
 .text.CYCONFIGCPY
                0x00000964        0x8 .\CortexM3\ARM_GCC_493\Debug\Controls.a(cyfitter_cfg.o)
 .text.cyfitter_cfg
                0x0000096c      0x13c .\CortexM3\ARM_GCC_493\Debug\Controls.a(cyfitter_cfg.o)
                0x0000096c                cyfitter_cfg
 .text.Enter_SW_Read
                0x00000aa8       0x10 .\CortexM3\ARM_GCC_493\Debug\Controls.a(Enter_SW.o)
                0x00000aa8                Enter_SW_Read
 .text.Power_LED_Write
                0x00000ab8       0x18 .\CortexM3\ARM_GCC_493\Debug\Controls.a(Power_LED.o)
                0x00000ab8                Power_LED_Write
 .text.Power_LED_Read
                0x00000ad0       0x10 .\CortexM3\ARM_GCC_493\Debug\Controls.a(Power_LED.o)
                0x00000ad0                Power_LED_Read
 .text.D3_LED_Write
                0x00000ae0       0x18 .\CortexM3\ARM_GCC_493\Debug\Controls.a(D3_LED.o)
                0x00000ae0                D3_LED_Write
 .text.Power_SW_Read
                0x00000af8       0x10 .\CortexM3\ARM_GCC_493\Debug\Controls.a(Power_SW.o)
                0x00000af8                Power_SW_Read
 .text.Left_SW_Read
                0x00000b08       0x10 .\CortexM3\ARM_GCC_493\Debug\Controls.a(Left_SW.o)
                0x00000b08                Left_SW_Read
 .text.Right_SW_Read
                0x00000b18       0x10 .\CortexM3\ARM_GCC_493\Debug\Controls.a(Right_SW.o)
                0x00000b18                Right_SW_Read
 .text.Down_SW_Read
                0x00000b28        0xc .\CortexM3\ARM_GCC_493\Debug\Controls.a(Down_SW.o)
                0x00000b28                Down_SW_Read
 .text.D2_LED_Write
                0x00000b34       0x18 .\CortexM3\ARM_GCC_493\Debug\Controls.a(D2_LED.o)
                0x00000b34                D2_LED_Write
 .text.Up_SW_Read
                0x00000b4c       0x10 .\CortexM3\ARM_GCC_493\Debug\Controls.a(Up_SW.o)
                0x00000b4c                Up_SW_Read
 .text.Input_1_SW_Read
                0x00000b5c       0x10 .\CortexM3\ARM_GCC_493\Debug\Controls.a(Input_1_SW.o)
                0x00000b5c                Input_1_SW_Read
 .text.Input_2_SW_Read
                0x00000b6c       0x10 .\CortexM3\ARM_GCC_493\Debug\Controls.a(Input_2_SW.o)
                0x00000b6c                Input_2_SW_Read
 .text.D1_LED_Write
                0x00000b7c       0x18 .\CortexM3\ARM_GCC_493\Debug\Controls.a(D1_LED.o)
                0x00000b7c                D1_LED_Write
 .text.U1_LED_Write
                0x00000b94       0x18 .\CortexM3\ARM_GCC_493\Debug\Controls.a(U1_LED.o)
                0x00000b94                U1_LED_Write
 .text.U2_LED_Write
                0x00000bac       0x18 .\CortexM3\ARM_GCC_493\Debug\Controls.a(U2_LED.o)
                0x00000bac                U2_LED_Write
 .text.U3_LED_Write
                0x00000bc4       0x18 .\CortexM3\ARM_GCC_493\Debug\Controls.a(U3_LED.o)
                0x00000bc4                U3_LED_Write
 .text.U4_LED_Write
                0x00000bdc       0x18 .\CortexM3\ARM_GCC_493\Debug\Controls.a(U4_LED.o)
                0x00000bdc                U4_LED_Write
 .text.U5_LED_Write
                0x00000bf4       0x18 .\CortexM3\ARM_GCC_493\Debug\Controls.a(U5_LED.o)
                0x00000bf4                U5_LED_Write
 .text.U6_LED_Write
                0x00000c0c       0x18 .\CortexM3\ARM_GCC_493\Debug\Controls.a(U6_LED.o)
                0x00000c0c                U6_LED_Write
 .text.U7_LED_Write
                0x00000c24       0x18 .\CortexM3\ARM_GCC_493\Debug\Controls.a(U7_LED.o)
                0x00000c24                U7_LED_Write
 .text.U8_LED_Write
                0x00000c3c       0x18 .\CortexM3\ARM_GCC_493\Debug\Controls.a(U8_LED.o)
                0x00000c3c                U8_LED_Write
 .text.CyHalt   0x00000c54        0x4 .\CortexM3\ARM_GCC_493\Debug\Controls.a(CyLib.o)
                0x00000c54                CyHalt
 .text.CyDelay  0x00000c58       0x2c .\CortexM3\ARM_GCC_493\Debug\Controls.a(CyLib.o)
                0x00000c58                CyDelay
 .text.CyDelayUs
                0x00000c84       0x14 .\CortexM3\ARM_GCC_493\Debug\Controls.a(CyLib.o)
                0x00000c84                CyDelayUs
 .text.CyIntSetVector
                0x00000c98       0x28 .\CortexM3\ARM_GCC_493\Debug\Controls.a(CyLib.o)
                0x00000c98                CyIntSetVector
 .text.CyIntSetPriority
                0x00000cc0       0x30 .\CortexM3\ARM_GCC_493\Debug\Controls.a(CyLib.o)
                0x00000cc0                CyIntSetPriority
 .text.CyGetUniqueId
                0x00000cf0       0x70 .\CortexM3\ARM_GCC_493\Debug\Controls.a(CyLib.o)
                0x00000cf0                CyGetUniqueId
 .text.Volume_2_Write
                0x00000d60       0x18 .\CortexM3\ARM_GCC_493\Debug\Controls.a(Volume_2.o)
                0x00000d60                Volume_2_Write
 .text.Volume_1_Write
                0x00000d78       0x18 .\CortexM3\ARM_GCC_493\Debug\Controls.a(Volume_1.o)
                0x00000d78                Volume_1_Write
 .text.Volume_ADC_CalcGain
                0x00000d90       0x5c .\CortexM3\ARM_GCC_493\Debug\Controls.a(Volume_ADC.o)
 .text.Volume_ADC_Enable
                0x00000dec       0x94 .\CortexM3\ARM_GCC_493\Debug\Controls.a(Volume_ADC.o)
                0x00000dec                Volume_ADC_Enable
 .text.Volume_ADC_SetResolution
                0x00000e80       0x38 .\CortexM3\ARM_GCC_493\Debug\Controls.a(Volume_ADC.o)
                0x00000e80                Volume_ADC_SetResolution
 .text.Volume_ADC_Init
                0x00000eb8       0x3c .\CortexM3\ARM_GCC_493\Debug\Controls.a(Volume_ADC.o)
                0x00000eb8                Volume_ADC_Init
 .text.Volume_ADC_Start
                0x00000ef4       0x1c .\CortexM3\ARM_GCC_493\Debug\Controls.a(Volume_ADC.o)
                0x00000ef4                Volume_ADC_Start
 .text.Volume_ADC_StartConvert
                0x00000f10       0x10 .\CortexM3\ARM_GCC_493\Debug\Controls.a(Volume_ADC.o)
                0x00000f10                Volume_ADC_StartConvert
 .text.Volume_ADC_GetResult8
                0x00000f20       0x18 .\CortexM3\ARM_GCC_493\Debug\Controls.a(Volume_ADC.o)
                0x00000f20                Volume_ADC_GetResult8
 .text.Volume_ADC_ISR
                0x00000f38        0x4 .\CortexM3\ARM_GCC_493\Debug\Controls.a(Volume_ADC_INT.o)
                0x00000f38                Volume_ADC_ISR
 .text.Volume_ADC_theACLK_SetModeRegister
                0x00000f3c       0x14 .\CortexM3\ARM_GCC_493\Debug\Controls.a(Volume_ADC_theACLK.o)
                0x00000f3c                Volume_ADC_theACLK_SetModeRegister
 .text.Mute_SW_Read
                0x00000f50       0x10 .\CortexM3\ARM_GCC_493\Debug\Controls.a(Mute_SW.o)
                0x00000f50                Mute_SW_Read
 .text.i_Up_SetVector
                0x00000f60        0xc .\CortexM3\ARM_GCC_493\Debug\Controls.a(i_Up.o)
                0x00000f60                i_Up_SetVector
 .text.i_Up_SetPriority
                0x00000f6c       0x10 .\CortexM3\ARM_GCC_493\Debug\Controls.a(i_Up.o)
                0x00000f6c                i_Up_SetPriority
 .text.i_Up_Enable
                0x00000f7c       0x10 .\CortexM3\ARM_GCC_493\Debug\Controls.a(i_Up.o)
                0x00000f7c                i_Up_Enable
 .text.i_Up_Disable
                0x00000f8c       0x10 .\CortexM3\ARM_GCC_493\Debug\Controls.a(i_Up.o)
                0x00000f8c                i_Up_Disable
 .text.i_Up_StartEx
                0x00000f9c       0x1c .\CortexM3\ARM_GCC_493\Debug\Controls.a(i_Up.o)
                0x00000f9c                i_Up_StartEx
 .text.i_Up_ClearPending
                0x00000fb8       0x10 .\CortexM3\ARM_GCC_493\Debug\Controls.a(i_Up.o)
                0x00000fb8                i_Up_ClearPending
 .text.i_Left_SetVector
                0x00000fc8        0xc .\CortexM3\ARM_GCC_493\Debug\Controls.a(i_Left.o)
                0x00000fc8                i_Left_SetVector
 .text.i_Left_SetPriority
                0x00000fd4       0x10 .\CortexM3\ARM_GCC_493\Debug\Controls.a(i_Left.o)
                0x00000fd4                i_Left_SetPriority
 .text.i_Left_Enable
                0x00000fe4       0x10 .\CortexM3\ARM_GCC_493\Debug\Controls.a(i_Left.o)
                0x00000fe4                i_Left_Enable
 .text.i_Left_Disable
                0x00000ff4       0x10 .\CortexM3\ARM_GCC_493\Debug\Controls.a(i_Left.o)
                0x00000ff4                i_Left_Disable
 .text.i_Left_StartEx
                0x00001004       0x1c .\CortexM3\ARM_GCC_493\Debug\Controls.a(i_Left.o)
                0x00001004                i_Left_StartEx
 .text.i_Left_ClearPending
                0x00001020       0x10 .\CortexM3\ARM_GCC_493\Debug\Controls.a(i_Left.o)
                0x00001020                i_Left_ClearPending
 .text.i_Mute_SetVector
                0x00001030        0xc .\CortexM3\ARM_GCC_493\Debug\Controls.a(i_Mute.o)
                0x00001030                i_Mute_SetVector
 .text.i_Mute_SetPriority
                0x0000103c       0x10 .\CortexM3\ARM_GCC_493\Debug\Controls.a(i_Mute.o)
                0x0000103c                i_Mute_SetPriority
 .text.i_Mute_Enable
                0x0000104c       0x10 .\CortexM3\ARM_GCC_493\Debug\Controls.a(i_Mute.o)
                0x0000104c                i_Mute_Enable
 .text.i_Mute_Disable
                0x0000105c       0x10 .\CortexM3\ARM_GCC_493\Debug\Controls.a(i_Mute.o)
                0x0000105c                i_Mute_Disable
 .text.i_Mute_StartEx
                0x0000106c       0x1c .\CortexM3\ARM_GCC_493\Debug\Controls.a(i_Mute.o)
                0x0000106c                i_Mute_StartEx
 .text.i_Mute_ClearPending
                0x00001088       0x10 .\CortexM3\ARM_GCC_493\Debug\Controls.a(i_Mute.o)
                0x00001088                i_Mute_ClearPending
 .text.i_Enter_SetVector
                0x00001098        0xc .\CortexM3\ARM_GCC_493\Debug\Controls.a(i_Enter.o)
                0x00001098                i_Enter_SetVector
 .text.i_Enter_SetPriority
                0x000010a4       0x10 .\CortexM3\ARM_GCC_493\Debug\Controls.a(i_Enter.o)
                0x000010a4                i_Enter_SetPriority
 .text.i_Enter_Enable
                0x000010b4        0xc .\CortexM3\ARM_GCC_493\Debug\Controls.a(i_Enter.o)
                0x000010b4                i_Enter_Enable
 .text.i_Enter_Disable
                0x000010c0        0xc .\CortexM3\ARM_GCC_493\Debug\Controls.a(i_Enter.o)
                0x000010c0                i_Enter_Disable
 .text.i_Enter_StartEx
                0x000010cc       0x1c .\CortexM3\ARM_GCC_493\Debug\Controls.a(i_Enter.o)
                0x000010cc                i_Enter_StartEx
 .text.i_Enter_ClearPending
                0x000010e8        0xc .\CortexM3\ARM_GCC_493\Debug\Controls.a(i_Enter.o)
                0x000010e8                i_Enter_ClearPending
 .text.i_Down_SetVector
                0x000010f4        0xc .\CortexM3\ARM_GCC_493\Debug\Controls.a(i_Down.o)
                0x000010f4                i_Down_SetVector
 .text.i_Down_SetPriority
                0x00001100       0x10 .\CortexM3\ARM_GCC_493\Debug\Controls.a(i_Down.o)
                0x00001100                i_Down_SetPriority
 .text.i_Down_Enable
                0x00001110        0xc .\CortexM3\ARM_GCC_493\Debug\Controls.a(i_Down.o)
                0x00001110                i_Down_Enable
 .text.i_Down_Disable
                0x0000111c        0xc .\CortexM3\ARM_GCC_493\Debug\Controls.a(i_Down.o)
                0x0000111c                i_Down_Disable
 .text.i_Down_StartEx
                0x00001128       0x1c .\CortexM3\ARM_GCC_493\Debug\Controls.a(i_Down.o)
                0x00001128                i_Down_StartEx
 .text.i_Down_ClearPending
                0x00001144        0xc .\CortexM3\ARM_GCC_493\Debug\Controls.a(i_Down.o)
                0x00001144                i_Down_ClearPending
 .text.i_Right_SetVector
                0x00001150        0xc .\CortexM3\ARM_GCC_493\Debug\Controls.a(i_Right.o)
                0x00001150                i_Right_SetVector
 .text.i_Right_SetPriority
                0x0000115c       0x10 .\CortexM3\ARM_GCC_493\Debug\Controls.a(i_Right.o)
                0x0000115c                i_Right_SetPriority
 .text.i_Right_Enable
                0x0000116c       0x10 .\CortexM3\ARM_GCC_493\Debug\Controls.a(i_Right.o)
                0x0000116c                i_Right_Enable
 .text.i_Right_Disable
                0x0000117c       0x10 .\CortexM3\ARM_GCC_493\Debug\Controls.a(i_Right.o)
                0x0000117c                i_Right_Disable
 .text.i_Right_StartEx
                0x0000118c       0x1c .\CortexM3\ARM_GCC_493\Debug\Controls.a(i_Right.o)
                0x0000118c                i_Right_StartEx
 .text.i_Right_ClearPending
                0x000011a8       0x10 .\CortexM3\ARM_GCC_493\Debug\Controls.a(i_Right.o)
                0x000011a8                i_Right_ClearPending
 .text.i_Input_1_SetVector
                0x000011b8        0xc .\CortexM3\ARM_GCC_493\Debug\Controls.a(i_Input_1.o)
                0x000011b8                i_Input_1_SetVector
 .text.i_Input_1_SetPriority
                0x000011c4       0x10 .\CortexM3\ARM_GCC_493\Debug\Controls.a(i_Input_1.o)
                0x000011c4                i_Input_1_SetPriority
 .text.i_Input_1_Enable
                0x000011d4        0xc .\CortexM3\ARM_GCC_493\Debug\Controls.a(i_Input_1.o)
                0x000011d4                i_Input_1_Enable
 .text.i_Input_1_Disable
                0x000011e0        0xc .\CortexM3\ARM_GCC_493\Debug\Controls.a(i_Input_1.o)
                0x000011e0                i_Input_1_Disable
 .text.i_Input_1_StartEx
                0x000011ec       0x1c .\CortexM3\ARM_GCC_493\Debug\Controls.a(i_Input_1.o)
                0x000011ec                i_Input_1_StartEx
 .text.i_Input_1_ClearPending
                0x00001208        0xc .\CortexM3\ARM_GCC_493\Debug\Controls.a(i_Input_1.o)
                0x00001208                i_Input_1_ClearPending
 .text.i_Power_SetVector
                0x00001214        0xc .\CortexM3\ARM_GCC_493\Debug\Controls.a(i_Power.o)
                0x00001214                i_Power_SetVector
 .text.i_Power_SetPriority
                0x00001220       0x10 .\CortexM3\ARM_GCC_493\Debug\Controls.a(i_Power.o)
                0x00001220                i_Power_SetPriority
 .text.i_Power_Enable
                0x00001230       0x10 .\CortexM3\ARM_GCC_493\Debug\Controls.a(i_Power.o)
                0x00001230                i_Power_Enable
 .text.i_Power_Disable
                0x00001240       0x10 .\CortexM3\ARM_GCC_493\Debug\Controls.a(i_Power.o)
                0x00001240                i_Power_Disable
 .text.i_Power_StartEx
                0x00001250       0x1c .\CortexM3\ARM_GCC_493\Debug\Controls.a(i_Power.o)
                0x00001250                i_Power_StartEx
 .text.i_Power_ClearPending
                0x0000126c       0x10 .\CortexM3\ARM_GCC_493\Debug\Controls.a(i_Power.o)
                0x0000126c                i_Power_ClearPending
 .text.i_Input_2_SetVector
                0x0000127c        0xc .\CortexM3\ARM_GCC_493\Debug\Controls.a(i_Input_2.o)
                0x0000127c                i_Input_2_SetVector
 .text.i_Input_2_SetPriority
                0x00001288       0x10 .\CortexM3\ARM_GCC_493\Debug\Controls.a(i_Input_2.o)
                0x00001288                i_Input_2_SetPriority
 .text.i_Input_2_Enable
                0x00001298       0x10 .\CortexM3\ARM_GCC_493\Debug\Controls.a(i_Input_2.o)
                0x00001298                i_Input_2_Enable
 .text.i_Input_2_Disable
                0x000012a8       0x10 .\CortexM3\ARM_GCC_493\Debug\Controls.a(i_Input_2.o)
                0x000012a8                i_Input_2_Disable
 .text.i_Input_2_StartEx
                0x000012b8       0x1c .\CortexM3\ARM_GCC_493\Debug\Controls.a(i_Input_2.o)
                0x000012b8                i_Input_2_StartEx
 .text.i_Input_2_ClearPending
                0x000012d4       0x10 .\CortexM3\ARM_GCC_493\Debug\Controls.a(i_Input_2.o)
                0x000012d4                i_Input_2_ClearPending
 .text.Input_Relais_0_Write
                0x000012e4       0x18 .\CortexM3\ARM_GCC_493\Debug\Controls.a(Input_Relais_0.o)
                0x000012e4                Input_Relais_0_Write
 .text.Input_Relais_1_Write
                0x000012fc       0x18 .\CortexM3\ARM_GCC_493\Debug\Controls.a(Input_Relais_1.o)
                0x000012fc                Input_Relais_1_Write
 .text.Input_Relais_2_Write
                0x00001314       0x18 .\CortexM3\ARM_GCC_493\Debug\Controls.a(Input_Relais_2.o)
                0x00001314                Input_Relais_2_Write
 .text.Input_Relais_3_Write
                0x0000132c       0x18 .\CortexM3\ARM_GCC_493\Debug\Controls.a(Input_Relais_3.o)
                0x0000132c                Input_Relais_3_Write
 .text.Button_Timer_Enable
                0x00001344       0x28 .\CortexM3\ARM_GCC_493\Debug\Controls.a(Button_Timer.o)
                0x00001344                Button_Timer_Enable
 .text.Button_Timer_Stop
                0x0000136c       0x28 .\CortexM3\ARM_GCC_493\Debug\Controls.a(Button_Timer.o)
                0x0000136c                Button_Timer_Stop
 .text.Button_Timer_SetInterruptMode
                0x00001394        0xc .\CortexM3\ARM_GCC_493\Debug\Controls.a(Button_Timer.o)
                0x00001394                Button_Timer_SetInterruptMode
 .text.Button_Timer_WritePeriod
                0x000013a0        0xc .\CortexM3\ARM_GCC_493\Debug\Controls.a(Button_Timer.o)
                0x000013a0                Button_Timer_WritePeriod
 .text.Button_Timer_WriteCounter
                0x000013ac        0xc .\CortexM3\ARM_GCC_493\Debug\Controls.a(Button_Timer.o)
                0x000013ac                Button_Timer_WriteCounter
 .text.Button_Timer_Init
                0x000013b8       0x6c .\CortexM3\ARM_GCC_493\Debug\Controls.a(Button_Timer.o)
                0x000013b8                Button_Timer_Init
 .text.Button_Timer_Start
                0x00001424       0x1c .\CortexM3\ARM_GCC_493\Debug\Controls.a(Button_Timer.o)
                0x00001424                Button_Timer_Start
 .text.Button_Timer_Interrupt_SetVector
                0x00001440        0xc .\CortexM3\ARM_GCC_493\Debug\Controls.a(Button_Timer_Interrupt.o)
                0x00001440                Button_Timer_Interrupt_SetVector
 .text.Button_Timer_Interrupt_SetPriority
                0x0000144c       0x10 .\CortexM3\ARM_GCC_493\Debug\Controls.a(Button_Timer_Interrupt.o)
                0x0000144c                Button_Timer_Interrupt_SetPriority
 .text.Button_Timer_Interrupt_Enable
                0x0000145c        0xc .\CortexM3\ARM_GCC_493\Debug\Controls.a(Button_Timer_Interrupt.o)
                0x0000145c                Button_Timer_Interrupt_Enable
 .text.Button_Timer_Interrupt_Disable
                0x00001468        0xc .\CortexM3\ARM_GCC_493\Debug\Controls.a(Button_Timer_Interrupt.o)
                0x00001468                Button_Timer_Interrupt_Disable
 .text.Button_Timer_Interrupt_StartEx
                0x00001474       0x1c .\CortexM3\ARM_GCC_493\Debug\Controls.a(Button_Timer_Interrupt.o)
                0x00001474                Button_Timer_Interrupt_StartEx
 .text.Button_Timer_Interrupt_ClearPending
                0x00001490        0xc .\CortexM3\ARM_GCC_493\Debug\Controls.a(Button_Timer_Interrupt.o)
                0x00001490                Button_Timer_Interrupt_ClearPending
 .text.Input_Relais_4_Write
                0x0000149c       0x18 .\CortexM3\ARM_GCC_493\Debug\Controls.a(Input_Relais_4.o)
                0x0000149c                Input_Relais_4_Write
 .text.Input_Relais_5_Write
                0x000014b4       0x18 .\CortexM3\ARM_GCC_493\Debug\Controls.a(Input_Relais_5.o)
                0x000014b4                Input_Relais_5_Write
 .text.Input_Relais_6_Write
                0x000014cc       0x18 .\CortexM3\ARM_GCC_493\Debug\Controls.a(Input_Relais_6.o)
                0x000014cc                Input_Relais_6_Write
 .text.Input_Relais_7_Write
                0x000014e4       0x18 .\CortexM3\ARM_GCC_493\Debug\Controls.a(Input_Relais_7.o)
                0x000014e4                Input_Relais_7_Write
 .text.Protection_IN_Write
                0x000014fc       0x18 .\CortexM3\ARM_GCC_493\Debug\Controls.a(Protection_IN.o)
                0x000014fc                Protection_IN_Write
 .text.Protection_CLR_Write
                0x00001514       0x18 .\CortexM3\ARM_GCC_493\Debug\Controls.a(Protection_CLR.o)
                0x00001514                Protection_CLR_Write
 .text.Protection_CLK_Write
                0x0000152c       0x18 .\CortexM3\ARM_GCC_493\Debug\Controls.a(Protection_CLK.o)
                0x0000152c                Protection_CLK_Write
 .text.USBUART_Init
                0x00001544      0x140 .\CortexM3\ARM_GCC_493\Debug\Controls.a(USBUART.o)
                0x00001544                USBUART_Init
 .text.USBUART_InitComponent
                0x00001684       0xd0 .\CortexM3\ARM_GCC_493\Debug\Controls.a(USBUART.o)
                0x00001684                USBUART_InitComponent
 .text.USBUART_Start
                0x00001754       0x24 .\CortexM3\ARM_GCC_493\Debug\Controls.a(USBUART.o)
                0x00001754                USBUART_Start
 .text.USBUART_ReInitComponent
                0x00001778       0x64 .\CortexM3\ARM_GCC_493\Debug\Controls.a(USBUART.o)
                0x00001778                USBUART_ReInitComponent
 .text.USBUART_GetConfiguration
                0x000017dc        0xc .\CortexM3\ARM_GCC_493\Debug\Controls.a(USBUART.o)
                0x000017dc                USBUART_GetConfiguration
 .text.USBUART_IsConfigurationChanged
                0x000017e8       0x20 .\CortexM3\ARM_GCC_493\Debug\Controls.a(USBUART.o)
                0x000017e8                USBUART_IsConfigurationChanged
 .text.USBUART_GetEPState
                0x00001808       0x14 .\CortexM3\ARM_GCC_493\Debug\Controls.a(USBUART.o)
                0x00001808                USBUART_GetEPState
 .text.USBUART_GetEPCount
                0x0000181c       0x28 .\CortexM3\ARM_GCC_493\Debug\Controls.a(USBUART.o)
                0x0000181c                USBUART_GetEPCount
 .text.USBUART_LoadInEP
                0x00001844       0x94 .\CortexM3\ARM_GCC_493\Debug\Controls.a(USBUART.o)
                0x00001844                USBUART_LoadInEP
 .text.USBUART_EnableOutEP
                0x000018d8       0x2c .\CortexM3\ARM_GCC_493\Debug\Controls.a(USBUART.o)
                0x000018d8                USBUART_EnableOutEP
 .text.USBUART_ReadOutEP
                0x00001904       0x50 .\CortexM3\ARM_GCC_493\Debug\Controls.a(USBUART.o)
                0x00001904                USBUART_ReadOutEP
 .text.USBUART_StrLen
                0x00001954       0x14 .\CortexM3\ARM_GCC_493\Debug\Controls.a(USBUART_cdc.o)
 .text.USBUART_GetInterfaceComPort
                0x00001968       0x3c .\CortexM3\ARM_GCC_493\Debug\Controls.a(USBUART_cdc.o)
                0x00001968                USBUART_GetInterfaceComPort
 .text.USBUART_DispatchCDCClassRqst
                0x000019a4       0x98 .\CortexM3\ARM_GCC_493\Debug\Controls.a(USBUART_cdc.o)
                0x000019a4                USBUART_DispatchCDCClassRqst
 .text.USBUART_CDC_Init
                0x00001a3c       0x98 .\CortexM3\ARM_GCC_493\Debug\Controls.a(USBUART_cdc.o)
                0x00001a3c                USBUART_CDC_Init
 .text.USBUART_PutData
                0x00001ad4       0x4c .\CortexM3\ARM_GCC_493\Debug\Controls.a(USBUART_cdc.o)
                0x00001ad4                USBUART_PutData
 .text.USBUART_PutString
                0x00001b20       0x9c .\CortexM3\ARM_GCC_493\Debug\Controls.a(USBUART_cdc.o)
                0x00001b20                USBUART_PutString
 .text.USBUART_PutChar
                0x00001bbc       0x28 .\CortexM3\ARM_GCC_493\Debug\Controls.a(USBUART_cdc.o)
                0x00001bbc                USBUART_PutChar
 .text.USBUART_DataIsReady
                0x00001be4       0x18 .\CortexM3\ARM_GCC_493\Debug\Controls.a(USBUART_cdc.o)
                0x00001be4                USBUART_DataIsReady
 .text.USBUART_CDCIsReady
                0x00001bfc       0x18 .\CortexM3\ARM_GCC_493\Debug\Controls.a(USBUART_cdc.o)
                0x00001bfc                USBUART_CDCIsReady
 .text.USBUART_GetAll
                0x00001c14       0x30 .\CortexM3\ARM_GCC_493\Debug\Controls.a(USBUART_cdc.o)
                0x00001c14                USBUART_GetAll
 .text.USBUART_Cdc_EpInit
                0x00001c44       0x50 .\CortexM3\ARM_GCC_493\Debug\Controls.a(USBUART_cdc.o)
                0x00001c44                USBUART_Cdc_EpInit
 .text.USBUART_LoadEP0
                0x00001c94       0x94 .\CortexM3\ARM_GCC_493\Debug\Controls.a(USBUART_drv.o)
                0x00001c94                USBUART_LoadEP0
 .text.USBUART_InitZeroLengthControlTransfer
                0x00001d28       0x34 .\CortexM3\ARM_GCC_493\Debug\Controls.a(USBUART_drv.o)
                0x00001d28                USBUART_InitZeroLengthControlTransfer
 .text.USBUART_ControlReadDataStage
                0x00001d5c        0x8 .\CortexM3\ARM_GCC_493\Debug\Controls.a(USBUART_drv.o)
                0x00001d5c                USBUART_ControlReadDataStage
 .text.USBUART_ControlWriteDataStage
                0x00001d64       0x80 .\CortexM3\ARM_GCC_493\Debug\Controls.a(USBUART_drv.o)
                0x00001d64                USBUART_ControlWriteDataStage
 .text.USBUART_InitNoDataControlTransfer
                0x00001de4       0x2c .\CortexM3\ARM_GCC_493\Debug\Controls.a(USBUART_drv.o)
                0x00001de4                USBUART_InitNoDataControlTransfer
 .text.USBUART_UpdateStatusBlock
                0x00001e10       0x24 .\CortexM3\ARM_GCC_493\Debug\Controls.a(USBUART_drv.o)
                0x00001e10                USBUART_UpdateStatusBlock
 .text.USBUART_HandleSetup
                0x00001e34       0x5c .\CortexM3\ARM_GCC_493\Debug\Controls.a(USBUART_drv.o)
                0x00001e34                USBUART_HandleSetup
 .text.USBUART_ControlReadStatusStage
                0x00001e90       0x34 .\CortexM3\ARM_GCC_493\Debug\Controls.a(USBUART_drv.o)
                0x00001e90                USBUART_ControlReadStatusStage
 .text.USBUART_HandleOUT
                0x00001ec4       0x38 .\CortexM3\ARM_GCC_493\Debug\Controls.a(USBUART_drv.o)
                0x00001ec4                USBUART_HandleOUT
 .text.USBUART_ControlWriteStatusStage
                0x00001efc       0x20 .\CortexM3\ARM_GCC_493\Debug\Controls.a(USBUART_drv.o)
                0x00001efc                USBUART_ControlWriteStatusStage
 .text.USBUART_NoDataControlStatusStage
                0x00001f1c       0x40 .\CortexM3\ARM_GCC_493\Debug\Controls.a(USBUART_drv.o)
                0x00001f1c                USBUART_NoDataControlStatusStage
 .text.USBUART_HandleIN
                0x00001f5c       0x2c .\CortexM3\ARM_GCC_493\Debug\Controls.a(USBUART_drv.o)
                0x00001f5c                USBUART_HandleIN
 .text.USBUART_EP_0_ISR
                0x00001f88       0xb8 .\CortexM3\ARM_GCC_493\Debug\Controls.a(USBUART_drv.o)
                0x00001f88                USBUART_EP_0_ISR
 .text.USBUART_InitializeStatusBlock
                0x00002040       0x24 .\CortexM3\ARM_GCC_493\Debug\Controls.a(USBUART_drv.o)
                0x00002040                USBUART_InitializeStatusBlock
 .text.USBUART_InitControlRead
                0x00002064       0x50 .\CortexM3\ARM_GCC_493\Debug\Controls.a(USBUART_drv.o)
                0x00002064                USBUART_InitControlRead
 .text.USBUART_InitControlWrite
                0x000020b4       0x48 .\CortexM3\ARM_GCC_493\Debug\Controls.a(USBUART_drv.o)
                0x000020b4                USBUART_InitControlWrite
 .text.USBUART_EP_1_ISR
                0x000020fc       0x30 .\CortexM3\ARM_GCC_493\Debug\Controls.a(USBUART_episr.o)
                0x000020fc                USBUART_EP_1_ISR
 .text.USBUART_EP_2_ISR
                0x0000212c       0x34 .\CortexM3\ARM_GCC_493\Debug\Controls.a(USBUART_episr.o)
                0x0000212c                USBUART_EP_2_ISR
 .text.USBUART_EP_3_ISR
                0x00002160       0x3c .\CortexM3\ARM_GCC_493\Debug\Controls.a(USBUART_episr.o)
                0x00002160                USBUART_EP_3_ISR
 .text.USBUART_SOF_ISR
                0x0000219c        0x4 .\CortexM3\ARM_GCC_493\Debug\Controls.a(USBUART_episr.o)
                0x0000219c                USBUART_SOF_ISR
 .text.USBUART_BUS_RESET_ISR
                0x000021a0        0x8 .\CortexM3\ARM_GCC_493\Debug\Controls.a(USBUART_episr.o)
                0x000021a0                USBUART_BUS_RESET_ISR
 .text.USBUART_FindHidClassDecriptor
                0x000021a8       0x40 .\CortexM3\ARM_GCC_493\Debug\Controls.a(USBUART_hid.o)
                0x000021a8                USBUART_FindHidClassDecriptor
 .text.USBUART_FindReportDescriptor
                0x000021e8       0x48 .\CortexM3\ARM_GCC_493\Debug\Controls.a(USBUART_hid.o)
                0x000021e8                USBUART_FindReportDescriptor
 .text.USBUART_FindReport
                0x00002230       0x7c .\CortexM3\ARM_GCC_493\Debug\Controls.a(USBUART_hid.o)
                0x00002230                USBUART_FindReport
 .text.USBUART_DispatchHIDClassRqst
                0x000022ac      0x184 .\CortexM3\ARM_GCC_493\Debug\Controls.a(USBUART_hid.o)
                0x000022ac                USBUART_DispatchHIDClassRqst
 .text.USBUART_DP_ISR
                0x00002430        0x8 .\CortexM3\ARM_GCC_493\Debug\Controls.a(USBUART_pm.o)
                0x00002430                USBUART_DP_ISR
 .text.USBUART_ReadDieID
                0x00002438       0x6c .\CortexM3\ARM_GCC_493\Debug\Controls.a(USBUART_std.o)
                0x00002438                USBUART_ReadDieID
 .text.USBUART_ConfigReg
                0x000024a4       0xa4 .\CortexM3\ARM_GCC_493\Debug\Controls.a(USBUART_std.o)
                0x000024a4                USBUART_ConfigReg
 .text.USBUART_GetConfigTablePtr
                0x00002548       0x28 .\CortexM3\ARM_GCC_493\Debug\Controls.a(USBUART_std.o)
                0x00002548                USBUART_GetConfigTablePtr
 .text.USBUART_ConfigAltChanged
                0x00002570      0x11c .\CortexM3\ARM_GCC_493\Debug\Controls.a(USBUART_std.o)
                0x00002570                USBUART_ConfigAltChanged
 .text.USBUART_GetDeviceTablePtr
                0x0000268c       0x18 .\CortexM3\ARM_GCC_493\Debug\Controls.a(USBUART_std.o)
                0x0000268c                USBUART_GetDeviceTablePtr
 .text.USBUART_GetInterfaceClassTablePtr
                0x000026a4       0x24 .\CortexM3\ARM_GCC_493\Debug\Controls.a(USBUART_std.o)
                0x000026a4                USBUART_GetInterfaceClassTablePtr
 .text.USBUART_Config
                0x000026c8      0x1dc .\CortexM3\ARM_GCC_493\Debug\Controls.a(USBUART_std.o)
                0x000026c8                USBUART_Config
 .text.USBUART_SetEndpointHalt
                0x000028a4       0x64 .\CortexM3\ARM_GCC_493\Debug\Controls.a(USBUART_std.o)
                0x000028a4                USBUART_SetEndpointHalt
 .text.USBUART_ClearEndpointHalt
                0x00002908       0xa8 .\CortexM3\ARM_GCC_493\Debug\Controls.a(USBUART_std.o)
                0x00002908                USBUART_ClearEndpointHalt
 .text.USBUART_ValidateAlternateSetting
                0x000029b0       0x4c .\CortexM3\ARM_GCC_493\Debug\Controls.a(USBUART_std.o)
                0x000029b0                USBUART_ValidateAlternateSetting
 .text.USBUART_HandleStandardRqst
                0x000029fc      0x35c .\CortexM3\ARM_GCC_493\Debug\Controls.a(USBUART_std.o)
                0x000029fc                USBUART_HandleStandardRqst
 .text.USBUART_HandleVendorRqst
                0x00002d58       0x3c .\CortexM3\ARM_GCC_493\Debug\Controls.a(USBUART_vnd.o)
                0x00002d58                USBUART_HandleVendorRqst
 .text.USBUART_Dp_ClearInterrupt
                0x00002d94       0x10 .\CortexM3\ARM_GCC_493\Debug\Controls.a(USBUART_Dp.o)
                0x00002d94                USBUART_Dp_ClearInterrupt
 .text.Volume_Timer_Enable
                0x00002da4       0x10 .\CortexM3\ARM_GCC_493\Debug\Controls.a(Volume_Timer.o)
                0x00002da4                Volume_Timer_Enable
 .text.Volume_Timer_Stop
                0x00002db4       0x10 .\CortexM3\ARM_GCC_493\Debug\Controls.a(Volume_Timer.o)
                0x00002db4                Volume_Timer_Stop
 .text.Volume_Timer_SetInterruptMode
                0x00002dc4        0xc .\CortexM3\ARM_GCC_493\Debug\Controls.a(Volume_Timer.o)
                0x00002dc4                Volume_Timer_SetInterruptMode
 .text.Volume_Timer_ReadStatusRegister
                0x00002dd0        0xc .\CortexM3\ARM_GCC_493\Debug\Controls.a(Volume_Timer.o)
                0x00002dd0                Volume_Timer_ReadStatusRegister
 .text.Volume_Timer_WritePeriod
                0x00002ddc        0xc .\CortexM3\ARM_GCC_493\Debug\Controls.a(Volume_Timer.o)
                0x00002ddc                Volume_Timer_WritePeriod
 .text.Volume_Timer_ReadCapture
                0x00002de8        0xc .\CortexM3\ARM_GCC_493\Debug\Controls.a(Volume_Timer.o)
                0x00002de8                Volume_Timer_ReadCapture
 .text.Volume_Timer_WriteCounter
                0x00002df4        0xc .\CortexM3\ARM_GCC_493\Debug\Controls.a(Volume_Timer.o)
                0x00002df4                Volume_Timer_WriteCounter
 .text.Volume_Timer_ReadCounter
                0x00002e00       0x14 .\CortexM3\ARM_GCC_493\Debug\Controls.a(Volume_Timer.o)
                0x00002e00                Volume_Timer_ReadCounter
 .text.Volume_Timer_ClearFIFO
                0x00002e14       0x14 .\CortexM3\ARM_GCC_493\Debug\Controls.a(Volume_Timer.o)
                0x00002e14                Volume_Timer_ClearFIFO
 .text.Volume_Timer_Init
                0x00002e28       0x34 .\CortexM3\ARM_GCC_493\Debug\Controls.a(Volume_Timer.o)
                0x00002e28                Volume_Timer_Init
 .text.Volume_Timer_Start
                0x00002e5c       0x1c .\CortexM3\ARM_GCC_493\Debug\Controls.a(Volume_Timer.o)
                0x00002e5c                Volume_Timer_Start
 .text          0x00002e78       0x20 .\CortexM3\ARM_GCC_493\Debug\Controls.a(CyBootAsmGnu.o)
                0x00002e78                CyDelayCycles
                0x00002e88                CyEnterCriticalSection
                0x00002e90                CyExitCriticalSection
 .text.USBUART_DispatchClassRqst
                0x00002e98       0x60 .\CortexM3\ARM_GCC_493\Debug\Controls.a(USBUART_cls.o)
                0x00002e98                USBUART_DispatchClassRqst
 .text.__errno  0x00002ef8        0xc c:/program files (x86)/cypress/psoc creator/4.0/psoc creator/import/gnu/arm/4.9.3/bin/../lib/gcc/arm-none-eabi/4.9.3/../../../../arm-none-eabi/lib/armv7-m\libg_nano.a(lib_a-errno.o)
                0x00002ef8                __errno
 .text.__libc_init_array
                0x00002f04       0x4c c:/program files (x86)/cypress/psoc creator/4.0/psoc creator/import/gnu/arm/4.9.3/bin/../lib/gcc/arm-none-eabi/4.9.3/../../../../arm-none-eabi/lib/armv7-m\libg_nano.a(lib_a-init.o)
                0x00002f04                __libc_init_array
 .text.memcpy   0x00002f50       0x16 c:/program files (x86)/cypress/psoc creator/4.0/psoc creator/import/gnu/arm/4.9.3/bin/../lib/gcc/arm-none-eabi/4.9.3/../../../../arm-none-eabi/lib/armv7-m\libg_nano.a(lib_a-memcpy.o)
                0x00002f50                memcpy
 .text.memset   0x00002f66       0x10 c:/program files (x86)/cypress/psoc creator/4.0/psoc creator/import/gnu/arm/4.9.3/bin/../lib/gcc/arm-none-eabi/4.9.3/../../../../arm-none-eabi/lib/armv7-m\libg_nano.a(lib_a-memset.o)
                0x00002f66                memset
 *(.plt)
 *(.gnu.warning)
 *(.glue_7t)
 .glue_7t       0x00000000        0x0 linker stubs
 *(.glue_7)
 .glue_7        0x00000000        0x0 linker stubs
 *(.vfp11_veneer)
 .vfp11_veneer  0x00000000        0x0 linker stubs
 *(.bootloader)
 *(.ARM.extab* .gnu.linkonce.armextab.*)
 *(.gcc_except_table)

.v4_bx          0x00002f78        0x0
 .v4_bx         0x00000000        0x0 linker stubs

.iplt           0x00002f78        0x0
 .iplt          0x00000000        0x0 c:/program files (x86)/cypress/psoc creator/4.0/psoc creator/import/gnu/arm/4.9.3/bin/../lib/gcc/arm-none-eabi/4.9.3/armv7-m/crtbegin.o

.eh_frame_hdr
 *(.eh_frame_hdr)

.eh_frame       0x00002f78        0x4
 *(.eh_frame)
 .eh_frame      0x00002f78        0x0 c:/program files (x86)/cypress/psoc creator/4.0/psoc creator/import/gnu/arm/4.9.3/bin/../lib/gcc/arm-none-eabi/4.9.3/armv7-m/crtbegin.o
 .eh_frame      0x00002f78        0x0 c:/program files (x86)/cypress/psoc creator/4.0/psoc creator/import/gnu/arm/4.9.3/bin/../lib/gcc/arm-none-eabi/4.9.3/../../../../arm-none-eabi/lib/armv7-m\libg_nano.a(lib_a-strcmp.o)
                                 0x28 (size before relaxing)
 .eh_frame      0x00002f78        0x4 c:/program files (x86)/cypress/psoc creator/4.0/psoc creator/import/gnu/arm/4.9.3/bin/../lib/gcc/arm-none-eabi/4.9.3/armv7-m/crtend.o
                0x00002f7c                PROVIDE (__exidx_start, .)

.ARM.exidx
 *(.ARM.exidx* .gnu.linkonce.armexidx.*)
                0x00002f7c                __exidx_end = .

.rodata         0x00002f7c      0x2c4
 *(.rodata .rodata.* .gnu.linkonce.r.*)
 .rodata.str1.4
                0x00002f7c       0x36 .\CortexM3\ARM_GCC_493\Debug\main.o
                                 0x38 (size before relaxing)
 *fill*         0x00002fb2        0x2 
 .rodata        0x00002fb4       0x38 .\CortexM3\ARM_GCC_493\Debug\Controls.a(cyfitter_cfg.o)
 .rodata.str1.4
                0x00002fec       0x14 .\CortexM3\ARM_GCC_493\Debug\Controls.a(USBUART_std.o)
 .rodata        0x00003000      0x208 .\CortexM3\ARM_GCC_493\Debug\Controls.a(USBUART_descr.o)
                0x00003000                USBUART_MSOS_CONFIGURATION_DESCR
                0x00003028                USBUART_MSOS_DESCRIPTOR
                0x0000303c                USBUART_TABLE
                0x00003044                USBUART_DEVICE0_TABLE
                0x0000305c                USBUART_DEVICE0_CONFIGURATION0_TABLE
                0x00003084                USBUART_DEVICE0_CONFIGURATION0_INTERFACE_CLASS
                0x00003088                USBUART_DEVICE0_CONFIGURATION0_EP_SETTINGS_TABLE
                0x000030a0                USBUART_HIDREPORT_DESCRIPTOR1
                0x000030d8                USBUART_SN_STRING_DESCRIPTOR
                0x000030dc                USBUART_STRING_DESCRIPTORS
                0x000031b0                USBUART_DEVICE0_CONFIGURATION0_DESCR
                0x000031f4                USBUART_DEVICE0_DESCR
 .rodata.str1.1
                0x00003208        0x2 c:/program files (x86)/cypress/psoc creator/4.0/psoc creator/import/gnu/arm/4.9.3/bin/../lib/gcc/arm-none-eabi/4.9.3/../../../../arm-none-eabi/lib/armv7-m\libg_nano.a(lib_a-impure.o)
                0x0000320c                . = ALIGN (0x4)
 *fill*         0x0000320a        0x2 
 *(.init)
 .init          0x0000320c        0x4 c:/program files (x86)/cypress/psoc creator/4.0/psoc creator/import/gnu/arm/4.9.3/bin/../lib/gcc/arm-none-eabi/4.9.3/armv7-m/crti.o
                0x0000320c                _init
 .init          0x00003210        0x8 c:/program files (x86)/cypress/psoc creator/4.0/psoc creator/import/gnu/arm/4.9.3/bin/../lib/gcc/arm-none-eabi/4.9.3/armv7-m/crtn.o
                0x00003218                . = ALIGN (0x4)
                0x00003218                __preinit_array_start = .
 *(.preinit_array)
                0x00003218                __preinit_array_end = .
                0x00003218                . = ALIGN (0x4)
                0x00003218                __init_array_start = .
 *(SORT(.init_array.*))
 *(.init_array)
 .init_array    0x00003218        0x4 c:/program files (x86)/cypress/psoc creator/4.0/psoc creator/import/gnu/arm/4.9.3/bin/../lib/gcc/arm-none-eabi/4.9.3/armv7-m/crtbegin.o
 .init_array    0x0000321c        0x4 .\CortexM3\ARM_GCC_493\Debug\Cm3Start.o
                0x00003220                __init_array_end = .
                0x00003220                . = ALIGN (0x4)
 *(.fini)
 .fini          0x00003220        0x4 c:/program files (x86)/cypress/psoc creator/4.0/psoc creator/import/gnu/arm/4.9.3/bin/../lib/gcc/arm-none-eabi/4.9.3/armv7-m/crti.o
                0x00003220                _fini
 .fini          0x00003224        0x8 c:/program files (x86)/cypress/psoc creator/4.0/psoc creator/import/gnu/arm/4.9.3/bin/../lib/gcc/arm-none-eabi/4.9.3/armv7-m/crtn.o
                0x0000322c                . = ALIGN (0x4)
                0x0000322c                __fini_array_start = .
 *(.fini_array)
 .fini_array    0x0000322c        0x4 c:/program files (x86)/cypress/psoc creator/4.0/psoc creator/import/gnu/arm/4.9.3/bin/../lib/gcc/arm-none-eabi/4.9.3/armv7-m/crtbegin.o
 *(SORT(.fini_array.*))
                0x00003230                __fini_array_end = .
                0x00003230                . = ALIGN (0x4)
 *crtbegin.o(.ctors)
 *(EXCLUDE_FILE(*crtend.o) .ctors)
 *(SORT(.ctors.*))
 *crtend.o(.ctors)
                0x00003230                . = ALIGN (0x4)
 *crtbegin.o(.dtors)
 *(EXCLUDE_FILE(*crtend.o) .dtors)
 *(SORT(.dtors.*))
 *crtend.o(.dtors)
                0x00003230                . = ALIGN (0x4)
                0x00003230                __cy_regions = .
                0x00003230        0x4 LONG 0x3240 __cy_region_init_ram
                0x00003234        0x4 LONG 0x1fff8108 __cy_region_start_data
                0x00003238        0x4 LONG 0xb8 __cy_region_init_size_ram
                0x0000323c        0x4 LONG 0x120 __cy_region_zero_size_ram
                0x00003240                __cy_regions_end = .
                0x00003240                . = ALIGN (0x8)
                0x00003240                _etext = .

.cy_checksum_exclude
                0x00003240        0x0
 *(.cy_checksum_exclude)

.ramvectors     0x1fff8000      0x100
                0x1fff8000                __cy_region_start_ram = .
 *(.ramvectors)
 .ramvectors    0x1fff8000      0x100 .\CortexM3\ARM_GCC_493\Debug\Cm3Start.o
                0x1fff8000                CyRamVectors

.noinit         0x1fff8100        0x5
 *(.noinit)
 .noinit        0x1fff8100        0x4 .\CortexM3\ARM_GCC_493\Debug\Cm3Start.o
 .noinit        0x1fff8104        0x1 .\CortexM3\ARM_GCC_493\Debug\Controls.a(CyLib.o)
                0x1fff8104                CyResetStatus

.data           0x1fff8108       0xb8 load address 0x00003240
                0x1fff8108                __cy_region_start_data = .
 *(.jcr)
 .jcr           0x1fff8108        0x0 c:/program files (x86)/cypress/psoc creator/4.0/psoc creator/import/gnu/arm/4.9.3/bin/../lib/gcc/arm-none-eabi/4.9.3/armv7-m/crtbegin.o
 .jcr           0x1fff8108        0x4 c:/program files (x86)/cypress/psoc creator/4.0/psoc creator/import/gnu/arm/4.9.3/bin/../lib/gcc/arm-none-eabi/4.9.3/armv7-m/crtend.o
 *(.got.plt)
 *(.got)
 *(.shdata)
 *(.data .data.* .gnu.linkonce.d.*)
 .data          0x1fff810c       0x24 .\CortexM3\ARM_GCC_493\Debug\main.o
                0x1fff810c                globalstate
                0x1fff810d                input
                0x1fff8110                stop
                0x1fff811c                parity
 .data          0x1fff8130       0x10 .\CortexM3\ARM_GCC_493\Debug\Controls.a(CyLib.o)
                0x1fff8130                cydelay_32k_ms
                0x1fff8134                cydelay_freq_khz
                0x1fff8138                cydelay_freq_mhz
                0x1fff813c                cydelay_freq_hz
 .data          0x1fff8140       0x1c .\CortexM3\ARM_GCC_493\Debug\Controls.a(USBUART_cdc.o)
                0x1fff8140                USBUART_linesCoding
 .data.impure_data
                0x1fff815c       0x60 c:/program files (x86)/cypress/psoc creator/4.0/psoc creator/import/gnu/arm/4.9.3/bin/../lib/gcc/arm-none-eabi/4.9.3/../../../../arm-none-eabi/lib/armv7-m\libg_nano.a(lib_a-impure.o)
 .data._impure_ptr
                0x1fff81bc        0x4 c:/program files (x86)/cypress/psoc creator/4.0/psoc creator/import/gnu/arm/4.9.3/bin/../lib/gcc/arm-none-eabi/4.9.3/../../../../arm-none-eabi/lib/armv7-m\libg_nano.a(lib_a-impure.o)
                0x1fff81bc                _impure_ptr
                0x1fff81c0                . = ALIGN (0x8)
 *(.ram)
                0x1fff81c0                _edata = .

.igot.plt       0x1fff81c0        0x0 load address 0x000032f8
 .igot.plt      0x00000000        0x0 c:/program files (x86)/cypress/psoc creator/4.0/psoc creator/import/gnu/arm/4.9.3/bin/../lib/gcc/arm-none-eabi/4.9.3/armv7-m/crtbegin.o

.bss            0x1fff81c0      0x120 load address 0x000032f8
                0x1fff81c0                PROVIDE (__bss_start__, .)
 *(.shbss)
 *(.bss .bss.* .gnu.linkonce.b.*)
 .bss           0x1fff81c0       0x1c c:/program files (x86)/cypress/psoc creator/4.0/psoc creator/import/gnu/arm/4.9.3/bin/../lib/gcc/arm-none-eabi/4.9.3/armv7-m/crtbegin.o
 .bss           0x1fff81dc        0x1 .\CortexM3\ARM_GCC_493\Debug\main.o
                0x1fff81dc                muted
 .bss           0x1fff81dd        0x1 .\CortexM3\ARM_GCC_493\Debug\Controls.a(Volume_ADC.o)
                0x1fff81dd                Volume_ADC_initVar
 .bss           0x1fff81de        0x1 .\CortexM3\ARM_GCC_493\Debug\Controls.a(Button_Timer.o)
                0x1fff81de                Button_Timer_initVar
 .bss           0x1fff81df        0x1 .\CortexM3\ARM_GCC_493\Debug\Controls.a(USBUART.o)
                0x1fff81df                USBUART_initVar
 .bss           0x1fff81e0        0x1 .\CortexM3\ARM_GCC_493\Debug\Controls.a(USBUART_cdc.o)
 *fill*         0x1fff81e1        0x3 
 .bss           0x1fff81e4        0x4 .\CortexM3\ARM_GCC_493\Debug\Controls.a(USBUART_std.o)
 .bss           0x1fff81e8        0x1 .\CortexM3\ARM_GCC_493\Debug\Controls.a(Volume_Timer.o)
                0x1fff81e8                Volume_Timer_initVar
 *(COMMON)
 *fill*         0x1fff81e9        0x3 
 COMMON         0x1fff81ec        0xc .\CortexM3\ARM_GCC_493\Debug\Controls.a(Volume_ADC.o)
                0x1fff81ec                Volume_ADC_countsPerVolt
                0x1fff81f0                Volume_ADC_countsPer10Volt
                0x1fff81f4                Volume_ADC_shift
                0x1fff81f6                Volume_ADC_offset
 COMMON         0x1fff81f8       0x18 .\CortexM3\ARM_GCC_493\Debug\Controls.a(USBUART_cdc.o)
                0x1fff81f8                USBUART_linesChanged
                0x1fff81fc                USBUART_cdcDataInEp
                0x1fff8200                USBUART_cdcCommInInterruptEp
                0x1fff8204                USBUART_cdcDataOutEp
                0x1fff8208                USBUART_serialStateBitmap
                0x1fff820c                USBUART_linesControlBitmap
 COMMON         0x1fff8210       0x9a .\CortexM3\ARM_GCC_493\Debug\Controls.a(USBUART_drv.o)
                0x1fff8210                USBUART_lastPacketSize
                0x1fff8211                USBUART_device
                0x1fff8212                USBUART_transferByteCount
                0x1fff8214                USBUART_transferState
                0x1fff8218                USBUART_interfaceSettingLast
                0x1fff821c                USBUART_currentTD
                0x1fff8228                USBUART_interfaceNumber
                0x1fff822c                USBUART_interfaceClass
                0x1fff8230                USBUART_configurationChanged
                0x1fff8231                USBUART_ep0Mode
                0x1fff8232                USBUART_deviceAddress
                0x1fff8233                USBUART_configuration
                0x1fff8234                USBUART_ep0Count
                0x1fff8235                USBUART_deviceStatus
                0x1fff8238                USBUART_EP
                0x1fff82a4                USBUART_interfaceSetting
                0x1fff82a6                USBUART_ep0Toggle
                0x1fff82a8                USBUART_interfaceStatus
 *fill*         0x1fff82aa        0x2 
 COMMON         0x1fff82ac        0xa .\CortexM3\ARM_GCC_493\Debug\Controls.a(USBUART_hid.o)
                0x1fff82ac                USBUART_hidProtocol
                0x1fff82b0                USBUART_hidIdleTimer
                0x1fff82b4                USBUART_hidIdleRate
 *fill*         0x1fff82b6        0x2 
 COMMON         0x1fff82b8       0x22 .\CortexM3\ARM_GCC_493\Debug\Controls.a(USBUART_descr.o)
                0x1fff82b8                USBUART_idSerialNumberStringDescriptor
                0x1fff82e0                . = ALIGN (0x8)
 *fill*         0x1fff82da        0x6 
 *(.ram.b)
                0x1fff82e0                _end = .
                0x1fff82e0                __end = .
                0x1fff82e0                PROVIDE (end, .)
                0x1fff82e0                PROVIDE (__bss_end__, .)
                0x00003240                __cy_region_init_ram = LOADADDR (.data)
                0x000000b8                __cy_region_init_size_ram = (_edata - ADDR (.data))
                0x00000120                __cy_region_zero_size_ram = (_end - _edata)

.heap           0x1fff82e0       0x80 load address 0x000032f8
                0x1fff82e0                . = _end
                0x1fff8360                . = (. + 0x80)
 *fill*         0x1fff82e0       0x80 
                0x1fff8360                __cy_heap_limit = .

.stack          0x20007800      0x800
                0x20007800                __cy_stack_limit = .
                0x20008000                . = (. + 0x800)
 *fill*         0x20007800      0x800 
                0x00000001                ASSERT ((__cy_stack_limit >= __cy_heap_limit), region RAM overflowed with stack)
                0x00000000                cy_checksum_exclude_size = (CY_APPL_LOADABLE == 0x1)?SIZEOF (.cy_checksum_exclude):0x0
                0x00000001                ASSERT ((cy_checksum_exclude_size <= CY_CHECKSUM_EXCLUDE_SIZE), CY_BOOT: Section .cy_checksum_exclude size exceedes specified limit.)

.cyloadermeta
 *(.cyloadermeta)

.cyloadablemeta
 *(.cyloadablemeta)

.cyconfigecc    0x80000000      0x250
 *(.cyconfigecc)
 .cyconfigecc   0x80000000      0x250 .\CortexM3\ARM_GCC_493\Debug\cymetadata.o
                0x80000000                cy_meta_configecc

.cycustnvl      0x90000000        0x4
 *(.cycustnvl)
 .cycustnvl     0x90000000        0x4 .\CortexM3\ARM_GCC_493\Debug\cymetadata.o
                0x90000000                cy_meta_custnvl

.cywolatch      0x90100000        0x4
 *(.cywolatch)
 .cywolatch     0x90100000        0x4 .\CortexM3\ARM_GCC_493\Debug\cymetadata.o
                0x90100000                cy_meta_wonvl

.cyeeprom       0x90200000        0x0
 *(.cyeeprom)
                0x00000001                ASSERT ((. <= ((0x90200000 + ee_offset) + ee_size)), .cyeeprom data will not fit in EEPROM)

.cyflashprotect
                0x90400000      0x100
 *(.cyflashprotect)
 .cyflashprotect
                0x90400000      0x100 .\CortexM3\ARM_GCC_493\Debug\cymetadata.o
                0x90400000                cy_meta_flashprotect

.cymeta         0x90500000        0xc
 *(.cymeta)
 .cymeta        0x90500000        0xc .\CortexM3\ARM_GCC_493\Debug\cymetadata.o
                0x90500000                cy_metadata

.rel.dyn        0x000032f8        0x0 load address 0x9050000c
 .rel.iplt      0x00000000        0x0 c:/program files (x86)/cypress/psoc creator/4.0/psoc creator/import/gnu/arm/4.9.3/bin/../lib/gcc/arm-none-eabi/4.9.3/armv7-m/crtbegin.o

.stab
 *(.stab)

.stabstr
 *(.stabstr)

.debug
 *(.debug)

.line
 *(.line)

.debug_srcinfo
 *(.debug_srcinfo)

.debug_sfnames
 *(.debug_sfnames)

.debug_aranges  0x00000000     0x18a8
 *(.debug_aranges)
 .debug_aranges
                0x00000000       0xb0 .\CortexM3\ARM_GCC_493\Debug\main.o
 .debug_aranges
                0x000000b0       0x18 .\CortexM3\ARM_GCC_493\Debug\cymetadata.o
 .debug_aranges
                0x000000c8       0x48 .\CortexM3\ARM_GCC_493\Debug\Cm3Start.o
 .debug_aranges
                0x00000110       0x58 .\CortexM3\ARM_GCC_493\Debug\Controls.a(cyfitter_cfg.o)
 .debug_aranges
                0x00000168       0x38 .\CortexM3\ARM_GCC_493\Debug\Controls.a(Enter_SW.o)
 .debug_aranges
                0x000001a0       0x38 .\CortexM3\ARM_GCC_493\Debug\Controls.a(Power_LED.o)
 .debug_aranges
                0x000001d8       0x38 .\CortexM3\ARM_GCC_493\Debug\Controls.a(D3_LED.o)
 .debug_aranges
                0x00000210       0x38 .\CortexM3\ARM_GCC_493\Debug\Controls.a(Power_SW.o)
 .debug_aranges
                0x00000248       0x38 .\CortexM3\ARM_GCC_493\Debug\Controls.a(Left_SW.o)
 .debug_aranges
                0x00000280       0x38 .\CortexM3\ARM_GCC_493\Debug\Controls.a(Right_SW.o)
 .debug_aranges
                0x000002b8       0x38 .\CortexM3\ARM_GCC_493\Debug\Controls.a(Down_SW.o)
 .debug_aranges
                0x000002f0       0x38 .\CortexM3\ARM_GCC_493\Debug\Controls.a(D2_LED.o)
 .debug_aranges
                0x00000328       0x38 .\CortexM3\ARM_GCC_493\Debug\Controls.a(Up_SW.o)
 .debug_aranges
                0x00000360       0x38 .\CortexM3\ARM_GCC_493\Debug\Controls.a(Input_1_SW.o)
 .debug_aranges
                0x00000398       0x38 .\CortexM3\ARM_GCC_493\Debug\Controls.a(Input_2_SW.o)
 .debug_aranges
                0x000003d0       0x38 .\CortexM3\ARM_GCC_493\Debug\Controls.a(D1_LED.o)
 .debug_aranges
                0x00000408       0x38 .\CortexM3\ARM_GCC_493\Debug\Controls.a(U1_LED.o)
 .debug_aranges
                0x00000440       0x38 .\CortexM3\ARM_GCC_493\Debug\Controls.a(U2_LED.o)
 .debug_aranges
                0x00000478       0x38 .\CortexM3\ARM_GCC_493\Debug\Controls.a(U3_LED.o)
 .debug_aranges
                0x000004b0       0x38 .\CortexM3\ARM_GCC_493\Debug\Controls.a(U4_LED.o)
 .debug_aranges
                0x000004e8       0x38 .\CortexM3\ARM_GCC_493\Debug\Controls.a(U5_LED.o)
 .debug_aranges
                0x00000520       0x38 .\CortexM3\ARM_GCC_493\Debug\Controls.a(U6_LED.o)
 .debug_aranges
                0x00000558       0x38 .\CortexM3\ARM_GCC_493\Debug\Controls.a(U7_LED.o)
 .debug_aranges
                0x00000590       0x38 .\CortexM3\ARM_GCC_493\Debug\Controls.a(U8_LED.o)
 .debug_aranges
                0x000005c8      0x2a0 .\CortexM3\ARM_GCC_493\Debug\Controls.a(CyLib.o)
 .debug_aranges
                0x00000868       0x98 .\CortexM3\ARM_GCC_493\Debug\Controls.a(cyPm.o)
 .debug_aranges
                0x00000900       0x38 .\CortexM3\ARM_GCC_493\Debug\Controls.a(Volume_2.o)
 .debug_aranges
                0x00000938       0x38 .\CortexM3\ARM_GCC_493\Debug\Controls.a(Volume_1.o)
 .debug_aranges
                0x00000970       0xa8 .\CortexM3\ARM_GCC_493\Debug\Controls.a(Volume_ADC.o)
 .debug_aranges
                0x00000a18       0x20 .\CortexM3\ARM_GCC_493\Debug\Controls.a(Volume_ADC_INT.o)
 .debug_aranges
                0x00000a38       0x70 .\CortexM3\ARM_GCC_493\Debug\Controls.a(Volume_ADC_theACLK.o)
 .debug_aranges
                0x00000aa8       0x38 .\CortexM3\ARM_GCC_493\Debug\Controls.a(Mute_SW.o)
 .debug_aranges
                0x00000ae0       0x80 .\CortexM3\ARM_GCC_493\Debug\Controls.a(i_Up.o)
 .debug_aranges
                0x00000b60       0x80 .\CortexM3\ARM_GCC_493\Debug\Controls.a(i_Left.o)
 .debug_aranges
                0x00000be0       0x80 .\CortexM3\ARM_GCC_493\Debug\Controls.a(i_Mute.o)
 .debug_aranges
                0x00000c60       0x80 .\CortexM3\ARM_GCC_493\Debug\Controls.a(i_Enter.o)
 .debug_aranges
                0x00000ce0       0x80 .\CortexM3\ARM_GCC_493\Debug\Controls.a(i_Down.o)
 .debug_aranges
                0x00000d60       0x80 .\CortexM3\ARM_GCC_493\Debug\Controls.a(i_Right.o)
 .debug_aranges
                0x00000de0       0x80 .\CortexM3\ARM_GCC_493\Debug\Controls.a(i_Input_1.o)
 .debug_aranges
                0x00000e60       0x80 .\CortexM3\ARM_GCC_493\Debug\Controls.a(i_Power.o)
 .debug_aranges
                0x00000ee0       0x80 .\CortexM3\ARM_GCC_493\Debug\Controls.a(i_Input_2.o)
 .debug_aranges
                0x00000f60       0x38 .\CortexM3\ARM_GCC_493\Debug\Controls.a(Input_Relais_0.o)
 .debug_aranges
                0x00000f98       0x38 .\CortexM3\ARM_GCC_493\Debug\Controls.a(Input_Relais_1.o)
 .debug_aranges
                0x00000fd0       0x38 .\CortexM3\ARM_GCC_493\Debug\Controls.a(Input_Relais_2.o)
 .debug_aranges
                0x00001008       0x38 .\CortexM3\ARM_GCC_493\Debug\Controls.a(Input_Relais_3.o)
 .debug_aranges
                0x00001040       0x88 .\CortexM3\ARM_GCC_493\Debug\Controls.a(Button_Timer.o)
 .debug_aranges
                0x000010c8       0x80 .\CortexM3\ARM_GCC_493\Debug\Controls.a(Button_Timer_Interrupt.o)
 .debug_aranges
                0x00001148       0x38 .\CortexM3\ARM_GCC_493\Debug\Controls.a(Input_Relais_4.o)
 .debug_aranges
                0x00001180       0x38 .\CortexM3\ARM_GCC_493\Debug\Controls.a(Input_Relais_5.o)
 .debug_aranges
                0x000011b8       0x38 .\CortexM3\ARM_GCC_493\Debug\Controls.a(Input_Relais_6.o)
 .debug_aranges
                0x000011f0       0x38 .\CortexM3\ARM_GCC_493\Debug\Controls.a(Input_Relais_7.o)
 .debug_aranges
                0x00001228       0x38 .\CortexM3\ARM_GCC_493\Debug\Controls.a(Protection_IN.o)
 .debug_aranges
                0x00001260       0x38 .\CortexM3\ARM_GCC_493\Debug\Controls.a(Protection_CLR.o)
 .debug_aranges
                0x00001298       0x38 .\CortexM3\ARM_GCC_493\Debug\Controls.a(Protection_CLK.o)
 .debug_aranges
                0x000012d0       0xc8 .\CortexM3\ARM_GCC_493\Debug\Controls.a(USBUART.o)
 .debug_aranges
                0x00001398       0xe8 .\CortexM3\ARM_GCC_493\Debug\Controls.a(USBUART_cdc.o)
 .debug_aranges
                0x00001480       0x98 .\CortexM3\ARM_GCC_493\Debug\Controls.a(USBUART_drv.o)
 .debug_aranges
                0x00001518       0x40 .\CortexM3\ARM_GCC_493\Debug\Controls.a(USBUART_episr.o)
 .debug_aranges
                0x00001558       0x48 .\CortexM3\ARM_GCC_493\Debug\Controls.a(USBUART_hid.o)
 .debug_aranges
                0x000015a0       0x40 .\CortexM3\ARM_GCC_493\Debug\Controls.a(USBUART_pm.o)
 .debug_aranges
                0x000015e0       0x80 .\CortexM3\ARM_GCC_493\Debug\Controls.a(USBUART_std.o)
 .debug_aranges
                0x00001660       0x20 .\CortexM3\ARM_GCC_493\Debug\Controls.a(USBUART_vnd.o)
 .debug_aranges
                0x00001680       0x48 .\CortexM3\ARM_GCC_493\Debug\Controls.a(USBUART_Dp.o)
 .debug_aranges
                0x000016c8       0x90 .\CortexM3\ARM_GCC_493\Debug\Controls.a(Volume_Timer.o)
 .debug_aranges
                0x00001758       0x20 .\CortexM3\ARM_GCC_493\Debug\Controls.a(CyBootAsmGnu.o)
 .debug_aranges
                0x00001778       0x80 .\CortexM3\ARM_GCC_493\Debug\Controls.a(CyFlash.o)
 .debug_aranges
                0x000017f8       0x78 .\CortexM3\ARM_GCC_493\Debug\Controls.a(CySpc.o)
 .debug_aranges
                0x00001870       0x20 .\CortexM3\ARM_GCC_493\Debug\Controls.a(USBUART_cls.o)
 .debug_aranges
                0x00001890       0x18 .\CortexM3\ARM_GCC_493\Debug\Controls.a(USBUART_descr.o)

.debug_pubnames
 *(.debug_pubnames)

.debug_info     0x00000000     0xd377
 *(.debug_info .gnu.linkonce.wi.*)
 .debug_info    0x00000000     0x1625 .\CortexM3\ARM_GCC_493\Debug\main.o
 .debug_info    0x00001625      0x13b .\CortexM3\ARM_GCC_493\Debug\cymetadata.o
 .debug_info    0x00001760      0x3b3 .\CortexM3\ARM_GCC_493\Debug\Cm3Start.o
 .debug_info    0x00001b13      0x64d .\CortexM3\ARM_GCC_493\Debug\Controls.a(cyfitter_cfg.o)
 .debug_info    0x00002160      0x11f .\CortexM3\ARM_GCC_493\Debug\Controls.a(Enter_SW.o)
 .debug_info    0x0000227f      0x11f .\CortexM3\ARM_GCC_493\Debug\Controls.a(Power_LED.o)
 .debug_info    0x0000239e      0x11f .\CortexM3\ARM_GCC_493\Debug\Controls.a(D3_LED.o)
 .debug_info    0x000024bd      0x11f .\CortexM3\ARM_GCC_493\Debug\Controls.a(Power_SW.o)
 .debug_info    0x000025dc      0x11f .\CortexM3\ARM_GCC_493\Debug\Controls.a(Left_SW.o)
 .debug_info    0x000026fb      0x11f .\CortexM3\ARM_GCC_493\Debug\Controls.a(Right_SW.o)
 .debug_info    0x0000281a      0x121 .\CortexM3\ARM_GCC_493\Debug\Controls.a(Down_SW.o)
 .debug_info    0x0000293b      0x11f .\CortexM3\ARM_GCC_493\Debug\Controls.a(D2_LED.o)
 .debug_info    0x00002a5a      0x11f .\CortexM3\ARM_GCC_493\Debug\Controls.a(Up_SW.o)
 .debug_info    0x00002b79      0x11f .\CortexM3\ARM_GCC_493\Debug\Controls.a(Input_1_SW.o)
 .debug_info    0x00002c98      0x11f .\CortexM3\ARM_GCC_493\Debug\Controls.a(Input_2_SW.o)
 .debug_info    0x00002db7      0x11f .\CortexM3\ARM_GCC_493\Debug\Controls.a(D1_LED.o)
 .debug_info    0x00002ed6      0x11f .\CortexM3\ARM_GCC_493\Debug\Controls.a(U1_LED.o)
 .debug_info    0x00002ff5      0x11f .\CortexM3\ARM_GCC_493\Debug\Controls.a(U2_LED.o)
 .debug_info    0x00003114      0x121 .\CortexM3\ARM_GCC_493\Debug\Controls.a(U3_LED.o)
 .debug_info    0x00003235      0x11f .\CortexM3\ARM_GCC_493\Debug\Controls.a(U4_LED.o)
 .debug_info    0x00003354      0x11f .\CortexM3\ARM_GCC_493\Debug\Controls.a(U5_LED.o)
 .debug_info    0x00003473      0x11f .\CortexM3\ARM_GCC_493\Debug\Controls.a(U6_LED.o)
 .debug_info    0x00003592      0x11f .\CortexM3\ARM_GCC_493\Debug\Controls.a(U7_LED.o)
 .debug_info    0x000036b1      0x11f .\CortexM3\ARM_GCC_493\Debug\Controls.a(U8_LED.o)
 .debug_info    0x000037d0     0x1385 .\CortexM3\ARM_GCC_493\Debug\Controls.a(CyLib.o)
 .debug_info    0x00004b55      0xa57 .\CortexM3\ARM_GCC_493\Debug\Controls.a(cyPm.o)
 .debug_info    0x000055ac      0x11f .\CortexM3\ARM_GCC_493\Debug\Controls.a(Volume_2.o)
 .debug_info    0x000056cb      0x11f .\CortexM3\ARM_GCC_493\Debug\Controls.a(Volume_1.o)
 .debug_info    0x000057ea      0x5f8 .\CortexM3\ARM_GCC_493\Debug\Controls.a(Volume_ADC.o)
 .debug_info    0x00005de2       0x92 .\CortexM3\ARM_GCC_493\Debug\Controls.a(Volume_ADC_INT.o)
 .debug_info    0x00005e74      0x283 .\CortexM3\ARM_GCC_493\Debug\Controls.a(Volume_ADC_theACLK.o)
 .debug_info    0x000060f7      0x11f .\CortexM3\ARM_GCC_493\Debug\Controls.a(Mute_SW.o)
 .debug_info    0x00006216      0x2cb .\CortexM3\ARM_GCC_493\Debug\Controls.a(i_Up.o)
 .debug_info    0x000064e1      0x2cb .\CortexM3\ARM_GCC_493\Debug\Controls.a(i_Left.o)
 .debug_info    0x000067ac      0x2cb .\CortexM3\ARM_GCC_493\Debug\Controls.a(i_Mute.o)
 .debug_info    0x00006a77      0x2cb .\CortexM3\ARM_GCC_493\Debug\Controls.a(i_Enter.o)
 .debug_info    0x00006d42      0x2cb .\CortexM3\ARM_GCC_493\Debug\Controls.a(i_Down.o)
 .debug_info    0x0000700d      0x2cb .\CortexM3\ARM_GCC_493\Debug\Controls.a(i_Right.o)
 .debug_info    0x000072d8      0x2cb .\CortexM3\ARM_GCC_493\Debug\Controls.a(i_Input_1.o)
 .debug_info    0x000075a3      0x2cb .\CortexM3\ARM_GCC_493\Debug\Controls.a(i_Power.o)
 .debug_info    0x0000786e      0x2cb .\CortexM3\ARM_GCC_493\Debug\Controls.a(i_Input_2.o)
 .debug_info    0x00007b39      0x121 .\CortexM3\ARM_GCC_493\Debug\Controls.a(Input_Relais_0.o)
 .debug_info    0x00007c5a      0x11f .\CortexM3\ARM_GCC_493\Debug\Controls.a(Input_Relais_1.o)
 .debug_info    0x00007d79      0x11f .\CortexM3\ARM_GCC_493\Debug\Controls.a(Input_Relais_2.o)
 .debug_info    0x00007e98      0x11f .\CortexM3\ARM_GCC_493\Debug\Controls.a(Input_Relais_3.o)
 .debug_info    0x00007fb7      0x28a .\CortexM3\ARM_GCC_493\Debug\Controls.a(Button_Timer.o)
 .debug_info    0x00008241      0x2cb .\CortexM3\ARM_GCC_493\Debug\Controls.a(Button_Timer_Interrupt.o)
 .debug_info    0x0000850c      0x11f .\CortexM3\ARM_GCC_493\Debug\Controls.a(Input_Relais_4.o)
 .debug_info    0x0000862b      0x11f .\CortexM3\ARM_GCC_493\Debug\Controls.a(Input_Relais_5.o)
 .debug_info    0x0000874a      0x11f .\CortexM3\ARM_GCC_493\Debug\Controls.a(Input_Relais_6.o)
 .debug_info    0x00008869      0x11f .\CortexM3\ARM_GCC_493\Debug\Controls.a(Input_Relais_7.o)
 .debug_info    0x00008988      0x11f .\CortexM3\ARM_GCC_493\Debug\Controls.a(Protection_IN.o)
 .debug_info    0x00008aa7      0x11f .\CortexM3\ARM_GCC_493\Debug\Controls.a(Protection_CLR.o)
 .debug_info    0x00008bc6      0x11f .\CortexM3\ARM_GCC_493\Debug\Controls.a(Protection_CLK.o)
 .debug_info    0x00008ce5      0x9f8 .\CortexM3\ARM_GCC_493\Debug\Controls.a(USBUART.o)
 .debug_info    0x000096dd      0xb16 .\CortexM3\ARM_GCC_493\Debug\Controls.a(USBUART_cdc.o)
 .debug_info    0x0000a1f3      0x649 .\CortexM3\ARM_GCC_493\Debug\Controls.a(USBUART_drv.o)
 .debug_info    0x0000a83c      0x244 .\CortexM3\ARM_GCC_493\Debug\Controls.a(USBUART_episr.o)
 .debug_info    0x0000aa80      0x43e .\CortexM3\ARM_GCC_493\Debug\Controls.a(USBUART_hid.o)
 .debug_info    0x0000aebe      0x2ef .\CortexM3\ARM_GCC_493\Debug\Controls.a(USBUART_pm.o)
 .debug_info    0x0000b1ad      0xb45 .\CortexM3\ARM_GCC_493\Debug\Controls.a(USBUART_std.o)
 .debug_info    0x0000bcf2      0x1b2 .\CortexM3\ARM_GCC_493\Debug\Controls.a(USBUART_vnd.o)
 .debug_info    0x0000bea4      0x174 .\CortexM3\ARM_GCC_493\Debug\Controls.a(USBUART_Dp.o)
 .debug_info    0x0000c018      0x2eb .\CortexM3\ARM_GCC_493\Debug\Controls.a(Volume_Timer.o)
 .debug_info    0x0000c303       0xa6 .\CortexM3\ARM_GCC_493\Debug\Controls.a(CyBootAsmGnu.o)
 .debug_info    0x0000c3a9      0x608 .\CortexM3\ARM_GCC_493\Debug\Controls.a(CyFlash.o)
 .debug_info    0x0000c9b1      0x4ea .\CortexM3\ARM_GCC_493\Debug\Controls.a(CySpc.o)
 .debug_info    0x0000ce9b      0x1e6 .\CortexM3\ARM_GCC_493\Debug\Controls.a(USBUART_cls.o)
 .debug_info    0x0000d081      0x2f6 .\CortexM3\ARM_GCC_493\Debug\Controls.a(USBUART_descr.o)

.debug_abbrev   0x00000000     0x45c7
 *(.debug_abbrev)
 .debug_abbrev  0x00000000      0x21a .\CortexM3\ARM_GCC_493\Debug\main.o
 .debug_abbrev  0x0000021a       0x66 .\CortexM3\ARM_GCC_493\Debug\cymetadata.o
 .debug_abbrev  0x00000280      0x1f7 .\CortexM3\ARM_GCC_493\Debug\Cm3Start.o
 .debug_abbrev  0x00000477      0x212 .\CortexM3\ARM_GCC_493\Debug\Controls.a(cyfitter_cfg.o)
 .debug_abbrev  0x00000689       0x90 .\CortexM3\ARM_GCC_493\Debug\Controls.a(Enter_SW.o)
 .debug_abbrev  0x00000719       0x90 .\CortexM3\ARM_GCC_493\Debug\Controls.a(Power_LED.o)
 .debug_abbrev  0x000007a9       0x90 .\CortexM3\ARM_GCC_493\Debug\Controls.a(D3_LED.o)
 .debug_abbrev  0x00000839       0x90 .\CortexM3\ARM_GCC_493\Debug\Controls.a(Power_SW.o)
 .debug_abbrev  0x000008c9       0x90 .\CortexM3\ARM_GCC_493\Debug\Controls.a(Left_SW.o)
 .debug_abbrev  0x00000959       0x90 .\CortexM3\ARM_GCC_493\Debug\Controls.a(Right_SW.o)
 .debug_abbrev  0x000009e9       0x90 .\CortexM3\ARM_GCC_493\Debug\Controls.a(Down_SW.o)
 .debug_abbrev  0x00000a79       0x90 .\CortexM3\ARM_GCC_493\Debug\Controls.a(D2_LED.o)
 .debug_abbrev  0x00000b09       0x90 .\CortexM3\ARM_GCC_493\Debug\Controls.a(Up_SW.o)
 .debug_abbrev  0x00000b99       0x90 .\CortexM3\ARM_GCC_493\Debug\Controls.a(Input_1_SW.o)
 .debug_abbrev  0x00000c29       0x90 .\CortexM3\ARM_GCC_493\Debug\Controls.a(Input_2_SW.o)
 .debug_abbrev  0x00000cb9       0x90 .\CortexM3\ARM_GCC_493\Debug\Controls.a(D1_LED.o)
 .debug_abbrev  0x00000d49       0x90 .\CortexM3\ARM_GCC_493\Debug\Controls.a(U1_LED.o)
 .debug_abbrev  0x00000dd9       0x90 .\CortexM3\ARM_GCC_493\Debug\Controls.a(U2_LED.o)
 .debug_abbrev  0x00000e69       0x90 .\CortexM3\ARM_GCC_493\Debug\Controls.a(U3_LED.o)
 .debug_abbrev  0x00000ef9       0x90 .\CortexM3\ARM_GCC_493\Debug\Controls.a(U4_LED.o)
 .debug_abbrev  0x00000f89       0x90 .\CortexM3\ARM_GCC_493\Debug\Controls.a(U5_LED.o)
 .debug_abbrev  0x00001019       0x90 .\CortexM3\ARM_GCC_493\Debug\Controls.a(U6_LED.o)
 .debug_abbrev  0x000010a9       0x90 .\CortexM3\ARM_GCC_493\Debug\Controls.a(U7_LED.o)
 .debug_abbrev  0x00001139       0x90 .\CortexM3\ARM_GCC_493\Debug\Controls.a(U8_LED.o)
 .debug_abbrev  0x000011c9      0x296 .\CortexM3\ARM_GCC_493\Debug\Controls.a(CyLib.o)
 .debug_abbrev  0x0000145f      0x1ed .\CortexM3\ARM_GCC_493\Debug\Controls.a(cyPm.o)
 .debug_abbrev  0x0000164c       0x90 .\CortexM3\ARM_GCC_493\Debug\Controls.a(Volume_2.o)
 .debug_abbrev  0x000016dc       0x90 .\CortexM3\ARM_GCC_493\Debug\Controls.a(Volume_1.o)
 .debug_abbrev  0x0000176c      0x1eb .\CortexM3\ARM_GCC_493\Debug\Controls.a(Volume_ADC.o)
 .debug_abbrev  0x00001957       0x42 .\CortexM3\ARM_GCC_493\Debug\Controls.a(Volume_ADC_INT.o)
 .debug_abbrev  0x00001999      0x139 .\CortexM3\ARM_GCC_493\Debug\Controls.a(Volume_ADC_theACLK.o)
 .debug_abbrev  0x00001ad2       0x90 .\CortexM3\ARM_GCC_493\Debug\Controls.a(Mute_SW.o)
 .debug_abbrev  0x00001b62      0x173 .\CortexM3\ARM_GCC_493\Debug\Controls.a(i_Up.o)
 .debug_abbrev  0x00001cd5      0x173 .\CortexM3\ARM_GCC_493\Debug\Controls.a(i_Left.o)
 .debug_abbrev  0x00001e48      0x173 .\CortexM3\ARM_GCC_493\Debug\Controls.a(i_Mute.o)
 .debug_abbrev  0x00001fbb      0x173 .\CortexM3\ARM_GCC_493\Debug\Controls.a(i_Enter.o)
 .debug_abbrev  0x0000212e      0x173 .\CortexM3\ARM_GCC_493\Debug\Controls.a(i_Down.o)
 .debug_abbrev  0x000022a1      0x173 .\CortexM3\ARM_GCC_493\Debug\Controls.a(i_Right.o)
 .debug_abbrev  0x00002414      0x173 .\CortexM3\ARM_GCC_493\Debug\Controls.a(i_Input_1.o)
 .debug_abbrev  0x00002587      0x173 .\CortexM3\ARM_GCC_493\Debug\Controls.a(i_Power.o)
 .debug_abbrev  0x000026fa      0x173 .\CortexM3\ARM_GCC_493\Debug\Controls.a(i_Input_2.o)
 .debug_abbrev  0x0000286d       0x90 .\CortexM3\ARM_GCC_493\Debug\Controls.a(Input_Relais_0.o)
 .debug_abbrev  0x000028fd       0x90 .\CortexM3\ARM_GCC_493\Debug\Controls.a(Input_Relais_1.o)
 .debug_abbrev  0x0000298d       0x90 .\CortexM3\ARM_GCC_493\Debug\Controls.a(Input_Relais_2.o)
 .debug_abbrev  0x00002a1d       0x90 .\CortexM3\ARM_GCC_493\Debug\Controls.a(Input_Relais_3.o)
 .debug_abbrev  0x00002aad      0x11a .\CortexM3\ARM_GCC_493\Debug\Controls.a(Button_Timer.o)
 .debug_abbrev  0x00002bc7      0x173 .\CortexM3\ARM_GCC_493\Debug\Controls.a(Button_Timer_Interrupt.o)
 .debug_abbrev  0x00002d3a       0x90 .\CortexM3\ARM_GCC_493\Debug\Controls.a(Input_Relais_4.o)
 .debug_abbrev  0x00002dca       0x90 .\CortexM3\ARM_GCC_493\Debug\Controls.a(Input_Relais_5.o)
 .debug_abbrev  0x00002e5a       0x90 .\CortexM3\ARM_GCC_493\Debug\Controls.a(Input_Relais_6.o)
 .debug_abbrev  0x00002eea       0x90 .\CortexM3\ARM_GCC_493\Debug\Controls.a(Input_Relais_7.o)
 .debug_abbrev  0x00002f7a       0x90 .\CortexM3\ARM_GCC_493\Debug\Controls.a(Protection_IN.o)
 .debug_abbrev  0x0000300a       0x90 .\CortexM3\ARM_GCC_493\Debug\Controls.a(Protection_CLR.o)
 .debug_abbrev  0x0000309a       0x90 .\CortexM3\ARM_GCC_493\Debug\Controls.a(Protection_CLK.o)
 .debug_abbrev  0x0000312a      0x24d .\CortexM3\ARM_GCC_493\Debug\Controls.a(USBUART.o)
 .debug_abbrev  0x00003377      0x28b .\CortexM3\ARM_GCC_493\Debug\Controls.a(USBUART_cdc.o)
 .debug_abbrev  0x00003602      0x18b .\CortexM3\ARM_GCC_493\Debug\Controls.a(USBUART_drv.o)
 .debug_abbrev  0x0000378d      0x11b .\CortexM3\ARM_GCC_493\Debug\Controls.a(USBUART_episr.o)
 .debug_abbrev  0x000038a8      0x18b .\CortexM3\ARM_GCC_493\Debug\Controls.a(USBUART_hid.o)
 .debug_abbrev  0x00003a33      0x146 .\CortexM3\ARM_GCC_493\Debug\Controls.a(USBUART_pm.o)
 .debug_abbrev  0x00003b79      0x23d .\CortexM3\ARM_GCC_493\Debug\Controls.a(USBUART_std.o)
 .debug_abbrev  0x00003db6       0xe3 .\CortexM3\ARM_GCC_493\Debug\Controls.a(USBUART_vnd.o)
 .debug_abbrev  0x00003e99       0x90 .\CortexM3\ARM_GCC_493\Debug\Controls.a(USBUART_Dp.o)
 .debug_abbrev  0x00003f29      0x145 .\CortexM3\ARM_GCC_493\Debug\Controls.a(Volume_Timer.o)
 .debug_abbrev  0x0000406e       0x14 .\CortexM3\ARM_GCC_493\Debug\Controls.a(CyBootAsmGnu.o)
 .debug_abbrev  0x00004082      0x1ed .\CortexM3\ARM_GCC_493\Debug\Controls.a(CyFlash.o)
 .debug_abbrev  0x0000426f      0x1c1 .\CortexM3\ARM_GCC_493\Debug\Controls.a(CySpc.o)
 .debug_abbrev  0x00004430       0xe3 .\CortexM3\ARM_GCC_493\Debug\Controls.a(USBUART_cls.o)
 .debug_abbrev  0x00004513       0xb4 .\CortexM3\ARM_GCC_493\Debug\Controls.a(USBUART_descr.o)

.debug_line     0x00000000     0x53cf
 *(.debug_line)
 .debug_line    0x00000000      0x6de .\CortexM3\ARM_GCC_493\Debug\main.o
 .debug_line    0x000006de       0x51 .\CortexM3\ARM_GCC_493\Debug\cymetadata.o
 .debug_line    0x0000072f      0x24f .\CortexM3\ARM_GCC_493\Debug\Cm3Start.o
 .debug_line    0x0000097e      0x20a .\CortexM3\ARM_GCC_493\Debug\Controls.a(cyfitter_cfg.o)
 .debug_line    0x00000b88       0x95 .\CortexM3\ARM_GCC_493\Debug\Controls.a(Enter_SW.o)
 .debug_line    0x00000c1d       0x96 .\CortexM3\ARM_GCC_493\Debug\Controls.a(Power_LED.o)
 .debug_line    0x00000cb3       0x93 .\CortexM3\ARM_GCC_493\Debug\Controls.a(D3_LED.o)
 .debug_line    0x00000d46       0x95 .\CortexM3\ARM_GCC_493\Debug\Controls.a(Power_SW.o)
 .debug_line    0x00000ddb       0x94 .\CortexM3\ARM_GCC_493\Debug\Controls.a(Left_SW.o)
 .debug_line    0x00000e6f       0x95 .\CortexM3\ARM_GCC_493\Debug\Controls.a(Right_SW.o)
 .debug_line    0x00000f04       0x94 .\CortexM3\ARM_GCC_493\Debug\Controls.a(Down_SW.o)
 .debug_line    0x00000f98       0x93 .\CortexM3\ARM_GCC_493\Debug\Controls.a(D2_LED.o)
 .debug_line    0x0000102b       0x92 .\CortexM3\ARM_GCC_493\Debug\Controls.a(Up_SW.o)
 .debug_line    0x000010bd       0x97 .\CortexM3\ARM_GCC_493\Debug\Controls.a(Input_1_SW.o)
 .debug_line    0x00001154       0x97 .\CortexM3\ARM_GCC_493\Debug\Controls.a(Input_2_SW.o)
 .debug_line    0x000011eb       0x93 .\CortexM3\ARM_GCC_493\Debug\Controls.a(D1_LED.o)
 .debug_line    0x0000127e       0x93 .\CortexM3\ARM_GCC_493\Debug\Controls.a(U1_LED.o)
 .debug_line    0x00001311       0x93 .\CortexM3\ARM_GCC_493\Debug\Controls.a(U2_LED.o)
 .debug_line    0x000013a4       0x93 .\CortexM3\ARM_GCC_493\Debug\Controls.a(U3_LED.o)
 .debug_line    0x00001437       0x93 .\CortexM3\ARM_GCC_493\Debug\Controls.a(U4_LED.o)
 .debug_line    0x000014ca       0x93 .\CortexM3\ARM_GCC_493\Debug\Controls.a(U5_LED.o)
 .debug_line    0x0000155d       0x93 .\CortexM3\ARM_GCC_493\Debug\Controls.a(U6_LED.o)
 .debug_line    0x000015f0       0x93 .\CortexM3\ARM_GCC_493\Debug\Controls.a(U7_LED.o)
 .debug_line    0x00001683       0x93 .\CortexM3\ARM_GCC_493\Debug\Controls.a(U8_LED.o)
 .debug_line    0x00001716      0x816 .\CortexM3\ARM_GCC_493\Debug\Controls.a(CyLib.o)
 .debug_line    0x00001f2c      0x364 .\CortexM3\ARM_GCC_493\Debug\Controls.a(cyPm.o)
 .debug_line    0x00002290       0x95 .\CortexM3\ARM_GCC_493\Debug\Controls.a(Volume_2.o)
 .debug_line    0x00002325       0x95 .\CortexM3\ARM_GCC_493\Debug\Controls.a(Volume_1.o)
 .debug_line    0x000023ba      0x223 .\CortexM3\ARM_GCC_493\Debug\Controls.a(Volume_ADC.o)
 .debug_line    0x000025dd       0x57 .\CortexM3\ARM_GCC_493\Debug\Controls.a(Volume_ADC_INT.o)
 .debug_line    0x00002634      0x181 .\CortexM3\ARM_GCC_493\Debug\Controls.a(Volume_ADC_theACLK.o)
 .debug_line    0x000027b5       0x94 .\CortexM3\ARM_GCC_493\Debug\Controls.a(Mute_SW.o)
 .debug_line    0x00002849      0x131 .\CortexM3\ARM_GCC_493\Debug\Controls.a(i_Up.o)
 .debug_line    0x0000297a      0x133 .\CortexM3\ARM_GCC_493\Debug\Controls.a(i_Left.o)
 .debug_line    0x00002aad      0x133 .\CortexM3\ARM_GCC_493\Debug\Controls.a(i_Mute.o)
 .debug_line    0x00002be0      0x134 .\CortexM3\ARM_GCC_493\Debug\Controls.a(i_Enter.o)
 .debug_line    0x00002d14      0x133 .\CortexM3\ARM_GCC_493\Debug\Controls.a(i_Down.o)
 .debug_line    0x00002e47      0x134 .\CortexM3\ARM_GCC_493\Debug\Controls.a(i_Right.o)
 .debug_line    0x00002f7b      0x136 .\CortexM3\ARM_GCC_493\Debug\Controls.a(i_Input_1.o)
 .debug_line    0x000030b1      0x134 .\CortexM3\ARM_GCC_493\Debug\Controls.a(i_Power.o)
 .debug_line    0x000031e5      0x136 .\CortexM3\ARM_GCC_493\Debug\Controls.a(i_Input_2.o)
 .debug_line    0x0000331b       0x9b .\CortexM3\ARM_GCC_493\Debug\Controls.a(Input_Relais_0.o)
 .debug_line    0x000033b6       0x9b .\CortexM3\ARM_GCC_493\Debug\Controls.a(Input_Relais_1.o)
 .debug_line    0x00003451       0x9b .\CortexM3\ARM_GCC_493\Debug\Controls.a(Input_Relais_2.o)
 .debug_line    0x000034ec       0x9b .\CortexM3\ARM_GCC_493\Debug\Controls.a(Input_Relais_3.o)
 .debug_line    0x00003587      0x15b .\CortexM3\ARM_GCC_493\Debug\Controls.a(Button_Timer.o)
 .debug_line    0x000036e2      0x143 .\CortexM3\ARM_GCC_493\Debug\Controls.a(Button_Timer_Interrupt.o)
 .debug_line    0x00003825       0x9b .\CortexM3\ARM_GCC_493\Debug\Controls.a(Input_Relais_4.o)
 .debug_line    0x000038c0       0x9b .\CortexM3\ARM_GCC_493\Debug\Controls.a(Input_Relais_5.o)
 .debug_line    0x0000395b       0x9b .\CortexM3\ARM_GCC_493\Debug\Controls.a(Input_Relais_6.o)
 .debug_line    0x000039f6       0x9b .\CortexM3\ARM_GCC_493\Debug\Controls.a(Input_Relais_7.o)
 .debug_line    0x00003a91       0x9a .\CortexM3\ARM_GCC_493\Debug\Controls.a(Protection_IN.o)
 .debug_line    0x00003b2b       0x9b .\CortexM3\ARM_GCC_493\Debug\Controls.a(Protection_CLR.o)
 .debug_line    0x00003bc6       0x9b .\CortexM3\ARM_GCC_493\Debug\Controls.a(Protection_CLK.o)
 .debug_line    0x00003c61      0x2fc .\CortexM3\ARM_GCC_493\Debug\Controls.a(USBUART.o)
 .debug_line    0x00003f5d      0x2f2 .\CortexM3\ARM_GCC_493\Debug\Controls.a(USBUART_cdc.o)
 .debug_line    0x0000424f      0x221 .\CortexM3\ARM_GCC_493\Debug\Controls.a(USBUART_drv.o)
 .debug_line    0x00004470       0xe6 .\CortexM3\ARM_GCC_493\Debug\Controls.a(USBUART_episr.o)
 .debug_line    0x00004556      0x14f .\CortexM3\ARM_GCC_493\Debug\Controls.a(USBUART_hid.o)
 .debug_line    0x000046a5      0x10e .\CortexM3\ARM_GCC_493\Debug\Controls.a(USBUART_pm.o)
 .debug_line    0x000047b3      0x3de .\CortexM3\ARM_GCC_493\Debug\Controls.a(USBUART_std.o)
 .debug_line    0x00004b91       0x8b .\CortexM3\ARM_GCC_493\Debug\Controls.a(USBUART_vnd.o)
 .debug_line    0x00004c1c       0xbb .\CortexM3\ARM_GCC_493\Debug\Controls.a(USBUART_Dp.o)
 .debug_line    0x00004cd7      0x177 .\CortexM3\ARM_GCC_493\Debug\Controls.a(Volume_Timer.o)
 .debug_line    0x00004e4e       0x66 .\CortexM3\ARM_GCC_493\Debug\Controls.a(CyBootAsmGnu.o)
 .debug_line    0x00004eb4      0x1ea .\CortexM3\ARM_GCC_493\Debug\Controls.a(CyFlash.o)
 .debug_line    0x0000509e      0x23c .\CortexM3\ARM_GCC_493\Debug\Controls.a(CySpc.o)
 .debug_line    0x000052da       0x94 .\CortexM3\ARM_GCC_493\Debug\Controls.a(USBUART_cls.o)
 .debug_line    0x0000536e       0x61 .\CortexM3\ARM_GCC_493\Debug\Controls.a(USBUART_descr.o)

.debug_frame    0x00000000     0x3aa4
 *(.debug_frame)
 .debug_frame   0x00000000      0x218 .\CortexM3\ARM_GCC_493\Debug\main.o
 .debug_frame   0x00000218       0xb8 .\CortexM3\ARM_GCC_493\Debug\Cm3Start.o
 .debug_frame   0x000002d0       0xfc .\CortexM3\ARM_GCC_493\Debug\Controls.a(cyfitter_cfg.o)
 .debug_frame   0x000003cc       0x50 .\CortexM3\ARM_GCC_493\Debug\Controls.a(Enter_SW.o)
 .debug_frame   0x0000041c       0x50 .\CortexM3\ARM_GCC_493\Debug\Controls.a(Power_LED.o)
 .debug_frame   0x0000046c       0x50 .\CortexM3\ARM_GCC_493\Debug\Controls.a(D3_LED.o)
 .debug_frame   0x000004bc       0x50 .\CortexM3\ARM_GCC_493\Debug\Controls.a(Power_SW.o)
 .debug_frame   0x0000050c       0x50 .\CortexM3\ARM_GCC_493\Debug\Controls.a(Left_SW.o)
 .debug_frame   0x0000055c       0x50 .\CortexM3\ARM_GCC_493\Debug\Controls.a(Right_SW.o)
 .debug_frame   0x000005ac       0x50 .\CortexM3\ARM_GCC_493\Debug\Controls.a(Down_SW.o)
 .debug_frame   0x000005fc       0x50 .\CortexM3\ARM_GCC_493\Debug\Controls.a(D2_LED.o)
 .debug_frame   0x0000064c       0x50 .\CortexM3\ARM_GCC_493\Debug\Controls.a(Up_SW.o)
 .debug_frame   0x0000069c       0x50 .\CortexM3\ARM_GCC_493\Debug\Controls.a(Input_1_SW.o)
 .debug_frame   0x000006ec       0x50 .\CortexM3\ARM_GCC_493\Debug\Controls.a(Input_2_SW.o)
 .debug_frame   0x0000073c       0x50 .\CortexM3\ARM_GCC_493\Debug\Controls.a(D1_LED.o)
 .debug_frame   0x0000078c       0x50 .\CortexM3\ARM_GCC_493\Debug\Controls.a(U1_LED.o)
 .debug_frame   0x000007dc       0x50 .\CortexM3\ARM_GCC_493\Debug\Controls.a(U2_LED.o)
 .debug_frame   0x0000082c       0x50 .\CortexM3\ARM_GCC_493\Debug\Controls.a(U3_LED.o)
 .debug_frame   0x0000087c       0x50 .\CortexM3\ARM_GCC_493\Debug\Controls.a(U4_LED.o)
 .debug_frame   0x000008cc       0x50 .\CortexM3\ARM_GCC_493\Debug\Controls.a(U5_LED.o)
 .debug_frame   0x0000091c       0x50 .\CortexM3\ARM_GCC_493\Debug\Controls.a(U6_LED.o)
 .debug_frame   0x0000096c       0x50 .\CortexM3\ARM_GCC_493\Debug\Controls.a(U7_LED.o)
 .debug_frame   0x000009bc       0x50 .\CortexM3\ARM_GCC_493\Debug\Controls.a(U8_LED.o)
 .debug_frame   0x00000a0c      0x738 .\CortexM3\ARM_GCC_493\Debug\Controls.a(CyLib.o)
 .debug_frame   0x00001144      0x1f8 .\CortexM3\ARM_GCC_493\Debug\Controls.a(cyPm.o)
 .debug_frame   0x0000133c       0x50 .\CortexM3\ARM_GCC_493\Debug\Controls.a(Volume_2.o)
 .debug_frame   0x0000138c       0x50 .\CortexM3\ARM_GCC_493\Debug\Controls.a(Volume_1.o)
 .debug_frame   0x000013dc      0x1a4 .\CortexM3\ARM_GCC_493\Debug\Controls.a(Volume_ADC.o)
 .debug_frame   0x00001580       0x20 .\CortexM3\ARM_GCC_493\Debug\Controls.a(Volume_ADC_INT.o)
 .debug_frame   0x000015a0       0xe0 .\CortexM3\ARM_GCC_493\Debug\Controls.a(Volume_ADC_theACLK.o)
 .debug_frame   0x00001680       0x50 .\CortexM3\ARM_GCC_493\Debug\Controls.a(Mute_SW.o)
 .debug_frame   0x000016d0      0x104 .\CortexM3\ARM_GCC_493\Debug\Controls.a(i_Up.o)
 .debug_frame   0x000017d4      0x104 .\CortexM3\ARM_GCC_493\Debug\Controls.a(i_Left.o)
 .debug_frame   0x000018d8      0x104 .\CortexM3\ARM_GCC_493\Debug\Controls.a(i_Mute.o)
 .debug_frame   0x000019dc      0x104 .\CortexM3\ARM_GCC_493\Debug\Controls.a(i_Enter.o)
 .debug_frame   0x00001ae0      0x104 .\CortexM3\ARM_GCC_493\Debug\Controls.a(i_Down.o)
 .debug_frame   0x00001be4      0x104 .\CortexM3\ARM_GCC_493\Debug\Controls.a(i_Right.o)
 .debug_frame   0x00001ce8      0x104 .\CortexM3\ARM_GCC_493\Debug\Controls.a(i_Input_1.o)
 .debug_frame   0x00001dec      0x104 .\CortexM3\ARM_GCC_493\Debug\Controls.a(i_Power.o)
 .debug_frame   0x00001ef0      0x104 .\CortexM3\ARM_GCC_493\Debug\Controls.a(i_Input_2.o)
 .debug_frame   0x00001ff4       0x50 .\CortexM3\ARM_GCC_493\Debug\Controls.a(Input_Relais_0.o)
 .debug_frame   0x00002044       0x50 .\CortexM3\ARM_GCC_493\Debug\Controls.a(Input_Relais_1.o)
 .debug_frame   0x00002094       0x50 .\CortexM3\ARM_GCC_493\Debug\Controls.a(Input_Relais_2.o)
 .debug_frame   0x000020e4       0x50 .\CortexM3\ARM_GCC_493\Debug\Controls.a(Input_Relais_3.o)
 .debug_frame   0x00002134      0x108 .\CortexM3\ARM_GCC_493\Debug\Controls.a(Button_Timer.o)
 .debug_frame   0x0000223c      0x104 .\CortexM3\ARM_GCC_493\Debug\Controls.a(Button_Timer_Interrupt.o)
 .debug_frame   0x00002340       0x50 .\CortexM3\ARM_GCC_493\Debug\Controls.a(Input_Relais_4.o)
 .debug_frame   0x00002390       0x50 .\CortexM3\ARM_GCC_493\Debug\Controls.a(Input_Relais_5.o)
 .debug_frame   0x000023e0       0x50 .\CortexM3\ARM_GCC_493\Debug\Controls.a(Input_Relais_6.o)
 .debug_frame   0x00002430       0x50 .\CortexM3\ARM_GCC_493\Debug\Controls.a(Input_Relais_7.o)
 .debug_frame   0x00002480       0x50 .\CortexM3\ARM_GCC_493\Debug\Controls.a(Protection_IN.o)
 .debug_frame   0x000024d0       0x50 .\CortexM3\ARM_GCC_493\Debug\Controls.a(Protection_CLR.o)
 .debug_frame   0x00002520       0x50 .\CortexM3\ARM_GCC_493\Debug\Controls.a(Protection_CLK.o)
 .debug_frame   0x00002570      0x1dc .\CortexM3\ARM_GCC_493\Debug\Controls.a(USBUART.o)
 .debug_frame   0x0000274c      0x278 .\CortexM3\ARM_GCC_493\Debug\Controls.a(USBUART_cdc.o)
 .debug_frame   0x000029c4      0x194 .\CortexM3\ARM_GCC_493\Debug\Controls.a(USBUART_drv.o)
 .debug_frame   0x00002b58       0x6c .\CortexM3\ARM_GCC_493\Debug\Controls.a(USBUART_episr.o)
 .debug_frame   0x00002bc4       0xa0 .\CortexM3\ARM_GCC_493\Debug\Controls.a(USBUART_hid.o)
 .debug_frame   0x00002c64       0xa0 .\CortexM3\ARM_GCC_493\Debug\Controls.a(USBUART_pm.o)
 .debug_frame   0x00002d04      0x17c .\CortexM3\ARM_GCC_493\Debug\Controls.a(USBUART_std.o)
 .debug_frame   0x00002e80       0x2c .\CortexM3\ARM_GCC_493\Debug\Controls.a(USBUART_vnd.o)
 .debug_frame   0x00002eac       0x70 .\CortexM3\ARM_GCC_493\Debug\Controls.a(USBUART_Dp.o)
 .debug_frame   0x00002f1c      0x124 .\CortexM3\ARM_GCC_493\Debug\Controls.a(Volume_Timer.o)
 .debug_frame   0x00003040      0x174 .\CortexM3\ARM_GCC_493\Debug\Controls.a(CyFlash.o)
 .debug_frame   0x000031b4      0x160 .\CortexM3\ARM_GCC_493\Debug\Controls.a(CySpc.o)
 .debug_frame   0x00003314       0x2c .\CortexM3\ARM_GCC_493\Debug\Controls.a(USBUART_cls.o)
 .debug_frame   0x00003340       0x28 c:/program files (x86)/cypress/psoc creator/4.0/psoc creator/import/gnu/arm/4.9.3/bin/../lib/gcc/arm-none-eabi/4.9.3/armv7-m\libgcc.a(_aeabi_ldivmod.o)
 .debug_frame   0x00003368       0x54 c:/program files (x86)/cypress/psoc creator/4.0/psoc creator/import/gnu/arm/4.9.3/bin/../lib/gcc/arm-none-eabi/4.9.3/armv7-m\libgcc.a(bpabi.o)
 .debug_frame   0x000033bc       0x34 c:/program files (x86)/cypress/psoc creator/4.0/psoc creator/import/gnu/arm/4.9.3/bin/../lib/gcc/arm-none-eabi/4.9.3/armv7-m\libgcc.a(_divdi3.o)
 .debug_frame   0x000033f0       0x34 c:/program files (x86)/cypress/psoc creator/4.0/psoc creator/import/gnu/arm/4.9.3/bin/../lib/gcc/arm-none-eabi/4.9.3/armv7-m\libgcc.a(_udivdi3.o)
 .debug_frame   0x00003424       0x20 c:/program files (x86)/cypress/psoc creator/4.0/psoc creator/import/gnu/arm/4.9.3/bin/../lib/gcc/arm-none-eabi/4.9.3/../../../../arm-none-eabi/lib/armv7-m\libg_nano.a(lib_a-errno.o)
 .debug_frame   0x00003444       0x28 c:/program files (x86)/cypress/psoc creator/4.0/psoc creator/import/gnu/arm/4.9.3/bin/../lib/gcc/arm-none-eabi/4.9.3/../../../../arm-none-eabi/lib/armv7-m\libg_nano.a(lib_a-exit.o)
 .debug_frame   0x0000346c       0x2c c:/program files (x86)/cypress/psoc creator/4.0/psoc creator/import/gnu/arm/4.9.3/bin/../lib/gcc/arm-none-eabi/4.9.3/../../../../arm-none-eabi/lib/armv7-m\libg_nano.a(lib_a-init.o)
 .debug_frame   0x00003498       0x28 c:/program files (x86)/cypress/psoc creator/4.0/psoc creator/import/gnu/arm/4.9.3/bin/../lib/gcc/arm-none-eabi/4.9.3/../../../../arm-none-eabi/lib/armv7-m\libg_nano.a(lib_a-memcpy.o)
 .debug_frame   0x000034c0       0x20 c:/program files (x86)/cypress/psoc creator/4.0/psoc creator/import/gnu/arm/4.9.3/bin/../lib/gcc/arm-none-eabi/4.9.3/../../../../arm-none-eabi/lib/armv7-m\libg_nano.a(lib_a-memset.o)
 .debug_frame   0x000034e0       0x8c c:/program files (x86)/cypress/psoc creator/4.0/psoc creator/import/gnu/arm/4.9.3/bin/../lib/gcc/arm-none-eabi/4.9.3/../../../../arm-none-eabi/lib/armv7-m\libg_nano.a(lib_a-nano-vfprintf_float.o)
 .debug_frame   0x0000356c       0x58 c:/program files (x86)/cypress/psoc creator/4.0/psoc creator/import/gnu/arm/4.9.3/bin/../lib/gcc/arm-none-eabi/4.9.3/../../../../arm-none-eabi/lib/armv7-m\libg_nano.a(lib_a-nano-vfprintf_i.o)
 .debug_frame   0x000035c4       0x28 c:/program files (x86)/cypress/psoc creator/4.0/psoc creator/import/gnu/arm/4.9.3/bin/../lib/gcc/arm-none-eabi/4.9.3/../../../../arm-none-eabi/lib/armv7-m\libg_nano.a(lib_a-s_fpclassify.o)
 .debug_frame   0x000035ec       0x20 c:/program files (x86)/cypress/psoc creator/4.0/psoc creator/import/gnu/arm/4.9.3/bin/../lib/gcc/arm-none-eabi/4.9.3/../../../../arm-none-eabi/lib/armv7-m\libg_nano.a(lib_a-strlen.o)
 .debug_frame   0x0000360c       0x6c c:/program files (x86)/cypress/psoc creator/4.0/psoc creator/import/gnu/arm/4.9.3/bin/../lib/gcc/arm-none-eabi/4.9.3/../../../../arm-none-eabi/lib/armv7-m\libg_nano.a(lib_a-dtoa.o)
 .debug_frame   0x00003678       0x98 c:/program files (x86)/cypress/psoc creator/4.0/psoc creator/import/gnu/arm/4.9.3/bin/../lib/gcc/arm-none-eabi/4.9.3/../../../../arm-none-eabi/lib/armv7-m\libg_nano.a(lib_a-locale.o)
 .debug_frame   0x00003710       0x30 c:/program files (x86)/cypress/psoc creator/4.0/psoc creator/import/gnu/arm/4.9.3/bin/../lib/gcc/arm-none-eabi/4.9.3/../../../../arm-none-eabi/lib/armv7-m\libg_nano.a(lib_a-malloc.o)
 .debug_frame   0x00003740       0x28 c:/program files (x86)/cypress/psoc creator/4.0/psoc creator/import/gnu/arm/4.9.3/bin/../lib/gcc/arm-none-eabi/4.9.3/../../../../arm-none-eabi/lib/armv7-m\libg_nano.a(lib_a-memchr.o)
 .debug_frame   0x00003768      0x230 c:/program files (x86)/cypress/psoc creator/4.0/psoc creator/import/gnu/arm/4.9.3/bin/../lib/gcc/arm-none-eabi/4.9.3/../../../../arm-none-eabi/lib/armv7-m\libg_nano.a(lib_a-mprec.o)
 .debug_frame   0x00003998       0x2c c:/program files (x86)/cypress/psoc creator/4.0/psoc creator/import/gnu/arm/4.9.3/bin/../lib/gcc/arm-none-eabi/4.9.3/../../../../arm-none-eabi/lib/armv7-m\libg_nano.a(lib_a-nano-callocr.o)
 .debug_frame   0x000039c4       0x2c c:/program files (x86)/cypress/psoc creator/4.0/psoc creator/import/gnu/arm/4.9.3/bin/../lib/gcc/arm-none-eabi/4.9.3/../../../../arm-none-eabi/lib/armv7-m\libg_nano.a(lib_a-nano-freer.o)
 .debug_frame   0x000039f0       0x2c c:/program files (x86)/cypress/psoc creator/4.0/psoc creator/import/gnu/arm/4.9.3/bin/../lib/gcc/arm-none-eabi/4.9.3/../../../../arm-none-eabi/lib/armv7-m\libg_nano.a(lib_a-nano-mallocr.o)
 .debug_frame   0x00003a1c       0x2c c:/program files (x86)/cypress/psoc creator/4.0/psoc creator/import/gnu/arm/4.9.3/bin/../lib/gcc/arm-none-eabi/4.9.3/../../../../arm-none-eabi/lib/armv7-m\libg_nano.a(lib_a-sbrkr.o)
 .debug_frame   0x00003a48       0x5c c:/program files (x86)/cypress/psoc creator/4.0/psoc creator/import/gnu/arm/4.9.3/bin/../lib/gcc/arm-none-eabi/4.9.3/../../../../arm-none-eabi/lib/armv7-m\libg_nano.a(lib_a-reent.o)

.debug_str      0x00000000     0x48d0
 *(.debug_str)
 .debug_str     0x00000000      0xa00 .\CortexM3\ARM_GCC_493\Debug\main.o
                                0xa5a (size before relaxing)
 .debug_str     0x00000a00       0x75 .\CortexM3\ARM_GCC_493\Debug\cymetadata.o
                                0x200 (size before relaxing)
 .debug_str     0x00000a75      0x14a .\CortexM3\ARM_GCC_493\Debug\Cm3Start.o
                                0x314 (size before relaxing)
 .debug_str     0x00000bbf      0x186 .\CortexM3\ARM_GCC_493\Debug\Controls.a(cyfitter_cfg.o)
                                0x358 (size before relaxing)
 .debug_str     0x00000d45       0x6c .\CortexM3\ARM_GCC_493\Debug\Controls.a(Enter_SW.o)
                                0x207 (size before relaxing)
 .debug_str     0x00000db1       0x50 .\CortexM3\ARM_GCC_493\Debug\Controls.a(Power_LED.o)
                                0x20c (size before relaxing)
 .debug_str     0x00000e01       0x53 .\CortexM3\ARM_GCC_493\Debug\Controls.a(D3_LED.o)
                                0x1fd (size before relaxing)
 .debug_str     0x00000e54       0x5c .\CortexM3\ARM_GCC_493\Debug\Controls.a(Power_SW.o)
                                0x207 (size before relaxing)
 .debug_str     0x00000eb0       0x58 .\CortexM3\ARM_GCC_493\Debug\Controls.a(Left_SW.o)
                                0x202 (size before relaxing)
 .debug_str     0x00000f08       0x5c .\CortexM3\ARM_GCC_493\Debug\Controls.a(Right_SW.o)
                                0x207 (size before relaxing)
 .debug_str     0x00000f64       0x58 .\CortexM3\ARM_GCC_493\Debug\Controls.a(Down_SW.o)
                                0x202 (size before relaxing)
 .debug_str     0x00000fbc       0x53 .\CortexM3\ARM_GCC_493\Debug\Controls.a(D2_LED.o)
                                0x1fd (size before relaxing)
 .debug_str     0x0000100f       0x50 .\CortexM3\ARM_GCC_493\Debug\Controls.a(Up_SW.o)
                                0x1f8 (size before relaxing)
 .debug_str     0x0000105f       0x64 .\CortexM3\ARM_GCC_493\Debug\Controls.a(Input_1_SW.o)
                                0x211 (size before relaxing)
 .debug_str     0x000010c3       0x64 .\CortexM3\ARM_GCC_493\Debug\Controls.a(Input_2_SW.o)
                                0x211 (size before relaxing)
 .debug_str     0x00001127       0x53 .\CortexM3\ARM_GCC_493\Debug\Controls.a(D1_LED.o)
                                0x1fd (size before relaxing)
 .debug_str     0x0000117a       0x53 .\CortexM3\ARM_GCC_493\Debug\Controls.a(U1_LED.o)
                                0x1fd (size before relaxing)
 .debug_str     0x000011cd       0x53 .\CortexM3\ARM_GCC_493\Debug\Controls.a(U2_LED.o)
                                0x1fd (size before relaxing)
 .debug_str     0x00001220       0x53 .\CortexM3\ARM_GCC_493\Debug\Controls.a(U3_LED.o)
                                0x1fd (size before relaxing)
 .debug_str     0x00001273       0x53 .\CortexM3\ARM_GCC_493\Debug\Controls.a(U4_LED.o)
                                0x1fd (size before relaxing)
 .debug_str     0x000012c6       0x53 .\CortexM3\ARM_GCC_493\Debug\Controls.a(U5_LED.o)
                                0x1fd (size before relaxing)
 .debug_str     0x00001319       0x53 .\CortexM3\ARM_GCC_493\Debug\Controls.a(U6_LED.o)
                                0x1fd (size before relaxing)
 .debug_str     0x0000136c       0x53 .\CortexM3\ARM_GCC_493\Debug\Controls.a(U7_LED.o)
                                0x1fd (size before relaxing)
 .debug_str     0x000013bf       0x53 .\CortexM3\ARM_GCC_493\Debug\Controls.a(U8_LED.o)
                                0x1fd (size before relaxing)
 .debug_str     0x00001412      0x828 .\CortexM3\ARM_GCC_493\Debug\Controls.a(CyLib.o)
                                0xa51 (size before relaxing)
 .debug_str     0x00001c3a      0x359 .\CortexM3\ARM_GCC_493\Debug\Controls.a(cyPm.o)
                                0x731 (size before relaxing)
 .debug_str     0x00001f93       0x5b .\CortexM3\ARM_GCC_493\Debug\Controls.a(Volume_2.o)
                                0x207 (size before relaxing)
 .debug_str     0x00001fee       0x5b .\CortexM3\ARM_GCC_493\Debug\Controls.a(Volume_1.o)
                                0x207 (size before relaxing)
 .debug_str     0x00002049      0x25c .\CortexM3\ARM_GCC_493\Debug\Controls.a(Volume_ADC.o)
                                0x4ed (size before relaxing)
 .debug_str     0x000022a5       0x37 .\CortexM3\ARM_GCC_493\Debug\Controls.a(Volume_ADC_INT.o)
                                0x1b3 (size before relaxing)
 .debug_str     0x000022dc      0x1c3 .\CortexM3\ARM_GCC_493\Debug\Controls.a(Volume_ADC_theACLK.o)
                                0x388 (size before relaxing)
 .debug_str     0x0000249f       0x58 .\CortexM3\ARM_GCC_493\Debug\Controls.a(Mute_SW.o)
                                0x202 (size before relaxing)
 .debug_str     0x000024f7       0x8f .\CortexM3\ARM_GCC_493\Debug\Controls.a(i_Up.o)
                                0x2a2 (size before relaxing)
 .debug_str     0x00002586       0xa1 .\CortexM3\ARM_GCC_493\Debug\Controls.a(i_Left.o)
                                0x2be (size before relaxing)
 .debug_str     0x00002627       0xa1 .\CortexM3\ARM_GCC_493\Debug\Controls.a(i_Mute.o)
                                0x2be (size before relaxing)
 .debug_str     0x000026c8       0xaa .\CortexM3\ARM_GCC_493\Debug\Controls.a(i_Enter.o)
                                0x2cc (size before relaxing)
 .debug_str     0x00002772       0xa1 .\CortexM3\ARM_GCC_493\Debug\Controls.a(i_Down.o)
                                0x2be (size before relaxing)
 .debug_str     0x00002813       0xaa .\CortexM3\ARM_GCC_493\Debug\Controls.a(i_Right.o)
                                0x2cc (size before relaxing)
 .debug_str     0x000028bd       0xbc .\CortexM3\ARM_GCC_493\Debug\Controls.a(i_Input_1.o)
                                0x2e8 (size before relaxing)
 .debug_str     0x00002979       0xaa .\CortexM3\ARM_GCC_493\Debug\Controls.a(i_Power.o)
                                0x2cc (size before relaxing)
 .debug_str     0x00002a23       0xbc .\CortexM3\ARM_GCC_493\Debug\Controls.a(i_Input_2.o)
                                0x2e8 (size before relaxing)
 .debug_str     0x00002adf       0x73 .\CortexM3\ARM_GCC_493\Debug\Controls.a(Input_Relais_0.o)
                                0x225 (size before relaxing)
 .debug_str     0x00002b52       0x73 .\CortexM3\ARM_GCC_493\Debug\Controls.a(Input_Relais_1.o)
                                0x225 (size before relaxing)
 .debug_str     0x00002bc5       0x73 .\CortexM3\ARM_GCC_493\Debug\Controls.a(Input_Relais_2.o)
                                0x225 (size before relaxing)
 .debug_str     0x00002c38       0x73 .\CortexM3\ARM_GCC_493\Debug\Controls.a(Input_Relais_3.o)
                                0x225 (size before relaxing)
 .debug_str     0x00002cab      0x1ad .\CortexM3\ARM_GCC_493\Debug\Controls.a(Button_Timer.o)
                                0x36f (size before relaxing)
 .debug_str     0x00002e58      0x16e .\CortexM3\ARM_GCC_493\Debug\Controls.a(Button_Timer_Interrupt.o)
                                0x39e (size before relaxing)
 .debug_str     0x00002fc6       0x73 .\CortexM3\ARM_GCC_493\Debug\Controls.a(Input_Relais_4.o)
                                0x225 (size before relaxing)
 .debug_str     0x00003039       0x73 .\CortexM3\ARM_GCC_493\Debug\Controls.a(Input_Relais_5.o)
                                0x225 (size before relaxing)
 .debug_str     0x000030ac       0x73 .\CortexM3\ARM_GCC_493\Debug\Controls.a(Input_Relais_6.o)
                                0x225 (size before relaxing)
 .debug_str     0x0000311f       0x73 .\CortexM3\ARM_GCC_493\Debug\Controls.a(Input_Relais_7.o)
                                0x225 (size before relaxing)
 .debug_str     0x00003192       0x6f .\CortexM3\ARM_GCC_493\Debug\Controls.a(Protection_IN.o)
                                0x220 (size before relaxing)
 .debug_str     0x00003201       0x73 .\CortexM3\ARM_GCC_493\Debug\Controls.a(Protection_CLR.o)
                                0x225 (size before relaxing)
 .debug_str     0x00003274       0x73 .\CortexM3\ARM_GCC_493\Debug\Controls.a(Protection_CLK.o)
                                0x225 (size before relaxing)
 .debug_str     0x000032e7      0x406 .\CortexM3\ARM_GCC_493\Debug\Controls.a(USBUART.o)
                                0x695 (size before relaxing)
 .debug_str     0x000036ed      0x4ad .\CortexM3\ARM_GCC_493\Debug\Controls.a(USBUART_cdc.o)
                                0x7db (size before relaxing)
 .debug_str     0x00003b9a      0x291 .\CortexM3\ARM_GCC_493\Debug\Controls.a(USBUART_drv.o)
                                0x652 (size before relaxing)
 .debug_str     0x00003e2b       0x80 .\CortexM3\ARM_GCC_493\Debug\Controls.a(USBUART_episr.o)
                                0x2e9 (size before relaxing)
 .debug_str     0x00003eab      0x13a .\CortexM3\ARM_GCC_493\Debug\Controls.a(USBUART_hid.o)
                                0x40c (size before relaxing)
 .debug_str     0x00003fe5       0xd2 .\CortexM3\ARM_GCC_493\Debug\Controls.a(USBUART_pm.o)
                                0x301 (size before relaxing)
 .debug_str     0x000040b7      0x236 .\CortexM3\ARM_GCC_493\Debug\Controls.a(USBUART_std.o)
                                0x7d9 (size before relaxing)
 .debug_str     0x000042ed       0x46 .\CortexM3\ARM_GCC_493\Debug\Controls.a(USBUART_vnd.o)
                                0x299 (size before relaxing)
 .debug_str     0x00004333       0x99 .\CortexM3\ARM_GCC_493\Debug\Controls.a(USBUART_Dp.o)
                                0x257 (size before relaxing)
 .debug_str     0x000043cc      0x17c .\CortexM3\ARM_GCC_493\Debug\Controls.a(Volume_Timer.o)
                                0x3c3 (size before relaxing)
 .debug_str     0x00004548      0x195 .\CortexM3\ARM_GCC_493\Debug\Controls.a(CyFlash.o)
                                0x3ab (size before relaxing)
 .debug_str     0x000046dd       0xac .\CortexM3\ARM_GCC_493\Debug\Controls.a(CySpc.o)
                                0x334 (size before relaxing)
 .debug_str     0x00004789       0x25 .\CortexM3\ARM_GCC_493\Debug\Controls.a(USBUART_cls.o)
                                0x2d3 (size before relaxing)
 .debug_str     0x000047ae      0x122 .\CortexM3\ARM_GCC_493\Debug\Controls.a(USBUART_descr.o)
                                0x3ba (size before relaxing)

.debug_loc      0x00000000     0x4372
 *(.debug_loc)
 .debug_loc     0x00000000      0x154 .\CortexM3\ARM_GCC_493\Debug\main.o
 .debug_loc     0x00000154      0x144 .\CortexM3\ARM_GCC_493\Debug\Cm3Start.o
 .debug_loc     0x00000298      0x27f .\CortexM3\ARM_GCC_493\Debug\Controls.a(cyfitter_cfg.o)
 .debug_loc     0x00000517       0x42 .\CortexM3\ARM_GCC_493\Debug\Controls.a(Enter_SW.o)
 .debug_loc     0x00000559       0x42 .\CortexM3\ARM_GCC_493\Debug\Controls.a(Power_LED.o)
 .debug_loc     0x0000059b       0x42 .\CortexM3\ARM_GCC_493\Debug\Controls.a(D3_LED.o)
 .debug_loc     0x000005dd       0x42 .\CortexM3\ARM_GCC_493\Debug\Controls.a(Power_SW.o)
 .debug_loc     0x0000061f       0x42 .\CortexM3\ARM_GCC_493\Debug\Controls.a(Left_SW.o)
 .debug_loc     0x00000661       0x42 .\CortexM3\ARM_GCC_493\Debug\Controls.a(Right_SW.o)
 .debug_loc     0x000006a3       0x55 .\CortexM3\ARM_GCC_493\Debug\Controls.a(Down_SW.o)
 .debug_loc     0x000006f8       0x42 .\CortexM3\ARM_GCC_493\Debug\Controls.a(D2_LED.o)
 .debug_loc     0x0000073a       0x42 .\CortexM3\ARM_GCC_493\Debug\Controls.a(Up_SW.o)
 .debug_loc     0x0000077c       0x42 .\CortexM3\ARM_GCC_493\Debug\Controls.a(Input_1_SW.o)
 .debug_loc     0x000007be       0x42 .\CortexM3\ARM_GCC_493\Debug\Controls.a(Input_2_SW.o)
 .debug_loc     0x00000800       0x42 .\CortexM3\ARM_GCC_493\Debug\Controls.a(D1_LED.o)
 .debug_loc     0x00000842       0x42 .\CortexM3\ARM_GCC_493\Debug\Controls.a(U1_LED.o)
 .debug_loc     0x00000884       0x42 .\CortexM3\ARM_GCC_493\Debug\Controls.a(U2_LED.o)
 .debug_loc     0x000008c6       0x55 .\CortexM3\ARM_GCC_493\Debug\Controls.a(U3_LED.o)
 .debug_loc     0x0000091b       0x42 .\CortexM3\ARM_GCC_493\Debug\Controls.a(U4_LED.o)
 .debug_loc     0x0000095d       0x42 .\CortexM3\ARM_GCC_493\Debug\Controls.a(U5_LED.o)
 .debug_loc     0x0000099f       0x42 .\CortexM3\ARM_GCC_493\Debug\Controls.a(U6_LED.o)
 .debug_loc     0x000009e1       0x42 .\CortexM3\ARM_GCC_493\Debug\Controls.a(U7_LED.o)
 .debug_loc     0x00000a23       0x42 .\CortexM3\ARM_GCC_493\Debug\Controls.a(U8_LED.o)
 .debug_loc     0x00000a65      0xa11 .\CortexM3\ARM_GCC_493\Debug\Controls.a(CyLib.o)
 .debug_loc     0x00001476      0x1e4 .\CortexM3\ARM_GCC_493\Debug\Controls.a(cyPm.o)
 .debug_loc     0x0000165a       0x42 .\CortexM3\ARM_GCC_493\Debug\Controls.a(Volume_2.o)
 .debug_loc     0x0000169c       0x42 .\CortexM3\ARM_GCC_493\Debug\Controls.a(Volume_1.o)
 .debug_loc     0x000016de      0x273 .\CortexM3\ARM_GCC_493\Debug\Controls.a(Volume_ADC.o)
 .debug_loc     0x00001951      0x12c .\CortexM3\ARM_GCC_493\Debug\Controls.a(Volume_ADC_theACLK.o)
 .debug_loc     0x00001a7d       0x42 .\CortexM3\ARM_GCC_493\Debug\Controls.a(Mute_SW.o)
 .debug_loc     0x00001abf       0x56 .\CortexM3\ARM_GCC_493\Debug\Controls.a(i_Up.o)
 .debug_loc     0x00001b15       0x56 .\CortexM3\ARM_GCC_493\Debug\Controls.a(i_Left.o)
 .debug_loc     0x00001b6b       0x56 .\CortexM3\ARM_GCC_493\Debug\Controls.a(i_Mute.o)
 .debug_loc     0x00001bc1       0x56 .\CortexM3\ARM_GCC_493\Debug\Controls.a(i_Enter.o)
 .debug_loc     0x00001c17       0x56 .\CortexM3\ARM_GCC_493\Debug\Controls.a(i_Down.o)
 .debug_loc     0x00001c6d       0x56 .\CortexM3\ARM_GCC_493\Debug\Controls.a(i_Right.o)
 .debug_loc     0x00001cc3       0x56 .\CortexM3\ARM_GCC_493\Debug\Controls.a(i_Input_1.o)
 .debug_loc     0x00001d19       0x56 .\CortexM3\ARM_GCC_493\Debug\Controls.a(i_Power.o)
 .debug_loc     0x00001d6f       0x56 .\CortexM3\ARM_GCC_493\Debug\Controls.a(i_Input_2.o)
 .debug_loc     0x00001dc5       0x55 .\CortexM3\ARM_GCC_493\Debug\Controls.a(Input_Relais_0.o)
 .debug_loc     0x00001e1a       0x42 .\CortexM3\ARM_GCC_493\Debug\Controls.a(Input_Relais_1.o)
 .debug_loc     0x00001e5c       0x42 .\CortexM3\ARM_GCC_493\Debug\Controls.a(Input_Relais_2.o)
 .debug_loc     0x00001e9e       0x42 .\CortexM3\ARM_GCC_493\Debug\Controls.a(Input_Relais_3.o)
 .debug_loc     0x00001ee0       0x56 .\CortexM3\ARM_GCC_493\Debug\Controls.a(Button_Timer_Interrupt.o)
 .debug_loc     0x00001f36       0x42 .\CortexM3\ARM_GCC_493\Debug\Controls.a(Input_Relais_4.o)
 .debug_loc     0x00001f78       0x42 .\CortexM3\ARM_GCC_493\Debug\Controls.a(Input_Relais_5.o)
 .debug_loc     0x00001fba       0x42 .\CortexM3\ARM_GCC_493\Debug\Controls.a(Input_Relais_6.o)
 .debug_loc     0x00001ffc       0x42 .\CortexM3\ARM_GCC_493\Debug\Controls.a(Input_Relais_7.o)
 .debug_loc     0x0000203e       0x42 .\CortexM3\ARM_GCC_493\Debug\Controls.a(Protection_IN.o)
 .debug_loc     0x00002080       0x42 .\CortexM3\ARM_GCC_493\Debug\Controls.a(Protection_CLR.o)
 .debug_loc     0x000020c2       0x42 .\CortexM3\ARM_GCC_493\Debug\Controls.a(Protection_CLK.o)
 .debug_loc     0x00002104      0x435 .\CortexM3\ARM_GCC_493\Debug\Controls.a(USBUART.o)
 .debug_loc     0x00002539      0x56b .\CortexM3\ARM_GCC_493\Debug\Controls.a(USBUART_cdc.o)
 .debug_loc     0x00002aa4      0x171 .\CortexM3\ARM_GCC_493\Debug\Controls.a(USBUART_drv.o)
 .debug_loc     0x00002c15      0x397 .\CortexM3\ARM_GCC_493\Debug\Controls.a(USBUART_hid.o)
 .debug_loc     0x00002fac       0x26 .\CortexM3\ARM_GCC_493\Debug\Controls.a(USBUART_pm.o)
 .debug_loc     0x00002fd2      0x934 .\CortexM3\ARM_GCC_493\Debug\Controls.a(USBUART_std.o)
 .debug_loc     0x00003906       0x36 .\CortexM3\ARM_GCC_493\Debug\Controls.a(USBUART_vnd.o)
 .debug_loc     0x0000393c       0x84 .\CortexM3\ARM_GCC_493\Debug\Controls.a(USBUART_Dp.o)
 .debug_loc     0x000039c0       0x13 .\CortexM3\ARM_GCC_493\Debug\Controls.a(Volume_Timer.o)
 .debug_loc     0x000039d3      0x300 .\CortexM3\ARM_GCC_493\Debug\Controls.a(CyFlash.o)
 .debug_loc     0x00003cd3      0x64d .\CortexM3\ARM_GCC_493\Debug\Controls.a(CySpc.o)
 .debug_loc     0x00004320       0x52 .\CortexM3\ARM_GCC_493\Debug\Controls.a(USBUART_cls.o)

.debug_macinfo
 *(.debug_macinfo)

.debug_ranges   0x00000000     0x1450
 *(.debug_ranges)
 .debug_ranges  0x00000000       0xa0 .\CortexM3\ARM_GCC_493\Debug\main.o
 .debug_ranges  0x000000a0       0x38 .\CortexM3\ARM_GCC_493\Debug\Cm3Start.o
 .debug_ranges  0x000000d8       0x48 .\CortexM3\ARM_GCC_493\Debug\Controls.a(cyfitter_cfg.o)
 .debug_ranges  0x00000120       0x28 .\CortexM3\ARM_GCC_493\Debug\Controls.a(Enter_SW.o)
 .debug_ranges  0x00000148       0x28 .\CortexM3\ARM_GCC_493\Debug\Controls.a(Power_LED.o)
 .debug_ranges  0x00000170       0x28 .\CortexM3\ARM_GCC_493\Debug\Controls.a(D3_LED.o)
 .debug_ranges  0x00000198       0x28 .\CortexM3\ARM_GCC_493\Debug\Controls.a(Power_SW.o)
 .debug_ranges  0x000001c0       0x28 .\CortexM3\ARM_GCC_493\Debug\Controls.a(Left_SW.o)
 .debug_ranges  0x000001e8       0x28 .\CortexM3\ARM_GCC_493\Debug\Controls.a(Right_SW.o)
 .debug_ranges  0x00000210       0x28 .\CortexM3\ARM_GCC_493\Debug\Controls.a(Down_SW.o)
 .debug_ranges  0x00000238       0x28 .\CortexM3\ARM_GCC_493\Debug\Controls.a(D2_LED.o)
 .debug_ranges  0x00000260       0x28 .\CortexM3\ARM_GCC_493\Debug\Controls.a(Up_SW.o)
 .debug_ranges  0x00000288       0x28 .\CortexM3\ARM_GCC_493\Debug\Controls.a(Input_1_SW.o)
 .debug_ranges  0x000002b0       0x28 .\CortexM3\ARM_GCC_493\Debug\Controls.a(Input_2_SW.o)
 .debug_ranges  0x000002d8       0x28 .\CortexM3\ARM_GCC_493\Debug\Controls.a(D1_LED.o)
 .debug_ranges  0x00000300       0x28 .\CortexM3\ARM_GCC_493\Debug\Controls.a(U1_LED.o)
 .debug_ranges  0x00000328       0x28 .\CortexM3\ARM_GCC_493\Debug\Controls.a(U2_LED.o)
 .debug_ranges  0x00000350       0x28 .\CortexM3\ARM_GCC_493\Debug\Controls.a(U3_LED.o)
 .debug_ranges  0x00000378       0x28 .\CortexM3\ARM_GCC_493\Debug\Controls.a(U4_LED.o)
 .debug_ranges  0x000003a0       0x28 .\CortexM3\ARM_GCC_493\Debug\Controls.a(U5_LED.o)
 .debug_ranges  0x000003c8       0x28 .\CortexM3\ARM_GCC_493\Debug\Controls.a(U6_LED.o)
 .debug_ranges  0x000003f0       0x28 .\CortexM3\ARM_GCC_493\Debug\Controls.a(U7_LED.o)
 .debug_ranges  0x00000418       0x28 .\CortexM3\ARM_GCC_493\Debug\Controls.a(U8_LED.o)
 .debug_ranges  0x00000440      0x290 .\CortexM3\ARM_GCC_493\Debug\Controls.a(CyLib.o)
 .debug_ranges  0x000006d0       0x88 .\CortexM3\ARM_GCC_493\Debug\Controls.a(cyPm.o)
 .debug_ranges  0x00000758       0x28 .\CortexM3\ARM_GCC_493\Debug\Controls.a(Volume_2.o)
 .debug_ranges  0x00000780       0x28 .\CortexM3\ARM_GCC_493\Debug\Controls.a(Volume_1.o)
 .debug_ranges  0x000007a8       0x98 .\CortexM3\ARM_GCC_493\Debug\Controls.a(Volume_ADC.o)
 .debug_ranges  0x00000840       0x10 .\CortexM3\ARM_GCC_493\Debug\Controls.a(Volume_ADC_INT.o)
 .debug_ranges  0x00000850       0x60 .\CortexM3\ARM_GCC_493\Debug\Controls.a(Volume_ADC_theACLK.o)
 .debug_ranges  0x000008b0       0x28 .\CortexM3\ARM_GCC_493\Debug\Controls.a(Mute_SW.o)
 .debug_ranges  0x000008d8       0x70 .\CortexM3\ARM_GCC_493\Debug\Controls.a(i_Up.o)
 .debug_ranges  0x00000948       0x70 .\CortexM3\ARM_GCC_493\Debug\Controls.a(i_Left.o)
 .debug_ranges  0x000009b8       0x70 .\CortexM3\ARM_GCC_493\Debug\Controls.a(i_Mute.o)
 .debug_ranges  0x00000a28       0x70 .\CortexM3\ARM_GCC_493\Debug\Controls.a(i_Enter.o)
 .debug_ranges  0x00000a98       0x70 .\CortexM3\ARM_GCC_493\Debug\Controls.a(i_Down.o)
 .debug_ranges  0x00000b08       0x70 .\CortexM3\ARM_GCC_493\Debug\Controls.a(i_Right.o)
 .debug_ranges  0x00000b78       0x70 .\CortexM3\ARM_GCC_493\Debug\Controls.a(i_Input_1.o)
 .debug_ranges  0x00000be8       0x70 .\CortexM3\ARM_GCC_493\Debug\Controls.a(i_Power.o)
 .debug_ranges  0x00000c58       0x70 .\CortexM3\ARM_GCC_493\Debug\Controls.a(i_Input_2.o)
 .debug_ranges  0x00000cc8       0x28 .\CortexM3\ARM_GCC_493\Debug\Controls.a(Input_Relais_0.o)
 .debug_ranges  0x00000cf0       0x28 .\CortexM3\ARM_GCC_493\Debug\Controls.a(Input_Relais_1.o)
 .debug_ranges  0x00000d18       0x28 .\CortexM3\ARM_GCC_493\Debug\Controls.a(Input_Relais_2.o)
 .debug_ranges  0x00000d40       0x28 .\CortexM3\ARM_GCC_493\Debug\Controls.a(Input_Relais_3.o)
 .debug_ranges  0x00000d68       0x78 .\CortexM3\ARM_GCC_493\Debug\Controls.a(Button_Timer.o)
 .debug_ranges  0x00000de0       0x70 .\CortexM3\ARM_GCC_493\Debug\Controls.a(Button_Timer_Interrupt.o)
 .debug_ranges  0x00000e50       0x28 .\CortexM3\ARM_GCC_493\Debug\Controls.a(Input_Relais_4.o)
 .debug_ranges  0x00000e78       0x28 .\CortexM3\ARM_GCC_493\Debug\Controls.a(Input_Relais_5.o)
 .debug_ranges  0x00000ea0       0x28 .\CortexM3\ARM_GCC_493\Debug\Controls.a(Input_Relais_6.o)
 .debug_ranges  0x00000ec8       0x28 .\CortexM3\ARM_GCC_493\Debug\Controls.a(Input_Relais_7.o)
 .debug_ranges  0x00000ef0       0x28 .\CortexM3\ARM_GCC_493\Debug\Controls.a(Protection_IN.o)
 .debug_ranges  0x00000f18       0x28 .\CortexM3\ARM_GCC_493\Debug\Controls.a(Protection_CLR.o)
 .debug_ranges  0x00000f40       0x28 .\CortexM3\ARM_GCC_493\Debug\Controls.a(Protection_CLK.o)
 .debug_ranges  0x00000f68       0xd0 .\CortexM3\ARM_GCC_493\Debug\Controls.a(USBUART.o)
 .debug_ranges  0x00001038       0xd8 .\CortexM3\ARM_GCC_493\Debug\Controls.a(USBUART_cdc.o)
 .debug_ranges  0x00001110       0x88 .\CortexM3\ARM_GCC_493\Debug\Controls.a(USBUART_drv.o)
 .debug_ranges  0x00001198       0x30 .\CortexM3\ARM_GCC_493\Debug\Controls.a(USBUART_episr.o)
 .debug_ranges  0x000011c8       0x38 .\CortexM3\ARM_GCC_493\Debug\Controls.a(USBUART_hid.o)
 .debug_ranges  0x00001200       0x30 .\CortexM3\ARM_GCC_493\Debug\Controls.a(USBUART_pm.o)
 .debug_ranges  0x00001230       0x70 .\CortexM3\ARM_GCC_493\Debug\Controls.a(USBUART_std.o)
 .debug_ranges  0x000012a0       0x10 .\CortexM3\ARM_GCC_493\Debug\Controls.a(USBUART_vnd.o)
 .debug_ranges  0x000012b0       0x38 .\CortexM3\ARM_GCC_493\Debug\Controls.a(USBUART_Dp.o)
 .debug_ranges  0x000012e8       0x80 .\CortexM3\ARM_GCC_493\Debug\Controls.a(Volume_Timer.o)
 .debug_ranges  0x00001368       0x70 .\CortexM3\ARM_GCC_493\Debug\Controls.a(CyFlash.o)
 .debug_ranges  0x000013d8       0x68 .\CortexM3\ARM_GCC_493\Debug\Controls.a(CySpc.o)
 .debug_ranges  0x00001440       0x10 .\CortexM3\ARM_GCC_493\Debug\Controls.a(USBUART_cls.o)

.comment        0x00000000       0x70
 .comment       0x00000000       0x70 .\CortexM3\ARM_GCC_493\Debug\main.o
                                 0x71 (size before relaxing)
 .comment       0x00000000       0x71 .\CortexM3\ARM_GCC_493\Debug\cymetadata.o
 .comment       0x00000000       0x71 .\CortexM3\ARM_GCC_493\Debug\Cm3Start.o
 .comment       0x00000000       0x71 .\CortexM3\ARM_GCC_493\Debug\Controls.a(cyfitter_cfg.o)
 .comment       0x00000000       0x71 .\CortexM3\ARM_GCC_493\Debug\Controls.a(Enter_SW.o)
 .comment       0x00000000       0x71 .\CortexM3\ARM_GCC_493\Debug\Controls.a(Power_LED.o)
 .comment       0x00000000       0x71 .\CortexM3\ARM_GCC_493\Debug\Controls.a(D3_LED.o)
 .comment       0x00000000       0x71 .\CortexM3\ARM_GCC_493\Debug\Controls.a(Power_SW.o)
 .comment       0x00000000       0x71 .\CortexM3\ARM_GCC_493\Debug\Controls.a(Left_SW.o)
 .comment       0x00000000       0x71 .\CortexM3\ARM_GCC_493\Debug\Controls.a(Right_SW.o)
 .comment       0x00000000       0x71 .\CortexM3\ARM_GCC_493\Debug\Controls.a(Down_SW.o)
 .comment       0x00000000       0x71 .\CortexM3\ARM_GCC_493\Debug\Controls.a(D2_LED.o)
 .comment       0x00000000       0x71 .\CortexM3\ARM_GCC_493\Debug\Controls.a(Up_SW.o)
 .comment       0x00000000       0x71 .\CortexM3\ARM_GCC_493\Debug\Controls.a(Input_1_SW.o)
 .comment       0x00000000       0x71 .\CortexM3\ARM_GCC_493\Debug\Controls.a(Input_2_SW.o)
 .comment       0x00000000       0x71 .\CortexM3\ARM_GCC_493\Debug\Controls.a(D1_LED.o)
 .comment       0x00000000       0x71 .\CortexM3\ARM_GCC_493\Debug\Controls.a(U1_LED.o)
 .comment       0x00000000       0x71 .\CortexM3\ARM_GCC_493\Debug\Controls.a(U2_LED.o)
 .comment       0x00000000       0x71 .\CortexM3\ARM_GCC_493\Debug\Controls.a(U3_LED.o)
 .comment       0x00000000       0x71 .\CortexM3\ARM_GCC_493\Debug\Controls.a(U4_LED.o)
 .comment       0x00000000       0x71 .\CortexM3\ARM_GCC_493\Debug\Controls.a(U5_LED.o)
 .comment       0x00000000       0x71 .\CortexM3\ARM_GCC_493\Debug\Controls.a(U6_LED.o)
 .comment       0x00000000       0x71 .\CortexM3\ARM_GCC_493\Debug\Controls.a(U7_LED.o)
 .comment       0x00000000       0x71 .\CortexM3\ARM_GCC_493\Debug\Controls.a(U8_LED.o)
 .comment       0x00000000       0x71 .\CortexM3\ARM_GCC_493\Debug\Controls.a(CyLib.o)
 .comment       0x00000000       0x71 .\CortexM3\ARM_GCC_493\Debug\Controls.a(cyPm.o)
 .comment       0x00000000       0x71 .\CortexM3\ARM_GCC_493\Debug\Controls.a(Volume_2.o)
 .comment       0x00000000       0x71 .\CortexM3\ARM_GCC_493\Debug\Controls.a(Volume_1.o)
 .comment       0x00000000       0x71 .\CortexM3\ARM_GCC_493\Debug\Controls.a(Volume_ADC.o)
 .comment       0x00000000       0x71 .\CortexM3\ARM_GCC_493\Debug\Controls.a(Volume_ADC_INT.o)
 .comment       0x00000000       0x71 .\CortexM3\ARM_GCC_493\Debug\Controls.a(Volume_ADC_theACLK.o)
 .comment       0x00000000       0x71 .\CortexM3\ARM_GCC_493\Debug\Controls.a(Mute_SW.o)
 .comment       0x00000000       0x71 .\CortexM3\ARM_GCC_493\Debug\Controls.a(i_Up.o)
 .comment       0x00000000       0x71 .\CortexM3\ARM_GCC_493\Debug\Controls.a(i_Left.o)
 .comment       0x00000000       0x71 .\CortexM3\ARM_GCC_493\Debug\Controls.a(i_Mute.o)
 .comment       0x00000000       0x71 .\CortexM3\ARM_GCC_493\Debug\Controls.a(i_Enter.o)
 .comment       0x00000000       0x71 .\CortexM3\ARM_GCC_493\Debug\Controls.a(i_Down.o)
 .comment       0x00000000       0x71 .\CortexM3\ARM_GCC_493\Debug\Controls.a(i_Right.o)
 .comment       0x00000000       0x71 .\CortexM3\ARM_GCC_493\Debug\Controls.a(i_Input_1.o)
 .comment       0x00000000       0x71 .\CortexM3\ARM_GCC_493\Debug\Controls.a(i_Power.o)
 .comment       0x00000000       0x71 .\CortexM3\ARM_GCC_493\Debug\Controls.a(i_Input_2.o)
 .comment       0x00000000       0x71 .\CortexM3\ARM_GCC_493\Debug\Controls.a(Input_Relais_0.o)
 .comment       0x00000000       0x71 .\CortexM3\ARM_GCC_493\Debug\Controls.a(Input_Relais_1.o)
 .comment       0x00000000       0x71 .\CortexM3\ARM_GCC_493\Debug\Controls.a(Input_Relais_2.o)
 .comment       0x00000000       0x71 .\CortexM3\ARM_GCC_493\Debug\Controls.a(Input_Relais_3.o)
 .comment       0x00000000       0x71 .\CortexM3\ARM_GCC_493\Debug\Controls.a(Button_Timer.o)
 .comment       0x00000000       0x71 .\CortexM3\ARM_GCC_493\Debug\Controls.a(Button_Timer_Interrupt.o)
 .comment       0x00000000       0x71 .\CortexM3\ARM_GCC_493\Debug\Controls.a(Input_Relais_4.o)
 .comment       0x00000000       0x71 .\CortexM3\ARM_GCC_493\Debug\Controls.a(Input_Relais_5.o)
 .comment       0x00000000       0x71 .\CortexM3\ARM_GCC_493\Debug\Controls.a(Input_Relais_6.o)
 .comment       0x00000000       0x71 .\CortexM3\ARM_GCC_493\Debug\Controls.a(Input_Relais_7.o)
 .comment       0x00000000       0x71 .\CortexM3\ARM_GCC_493\Debug\Controls.a(Protection_IN.o)
 .comment       0x00000000       0x71 .\CortexM3\ARM_GCC_493\Debug\Controls.a(Protection_CLR.o)
 .comment       0x00000000       0x71 .\CortexM3\ARM_GCC_493\Debug\Controls.a(Protection_CLK.o)
 .comment       0x00000000       0x71 .\CortexM3\ARM_GCC_493\Debug\Controls.a(USBUART.o)
 .comment       0x00000000       0x71 .\CortexM3\ARM_GCC_493\Debug\Controls.a(USBUART_cdc.o)
 .comment       0x00000000       0x71 .\CortexM3\ARM_GCC_493\Debug\Controls.a(USBUART_drv.o)
 .comment       0x00000000       0x71 .\CortexM3\ARM_GCC_493\Debug\Controls.a(USBUART_episr.o)
 .comment       0x00000000       0x71 .\CortexM3\ARM_GCC_493\Debug\Controls.a(USBUART_hid.o)
 .comment       0x00000000       0x71 .\CortexM3\ARM_GCC_493\Debug\Controls.a(USBUART_pm.o)
 .comment       0x00000000       0x71 .\CortexM3\ARM_GCC_493\Debug\Controls.a(USBUART_std.o)
 .comment       0x00000000       0x71 .\CortexM3\ARM_GCC_493\Debug\Controls.a(USBUART_vnd.o)
 .comment       0x00000000       0x71 .\CortexM3\ARM_GCC_493\Debug\Controls.a(USBUART_Dp.o)
 .comment       0x00000000       0x71 .\CortexM3\ARM_GCC_493\Debug\Controls.a(Volume_Timer.o)
 .comment       0x00000000       0x71 .\CortexM3\ARM_GCC_493\Debug\Controls.a(CyFlash.o)
 .comment       0x00000000       0x71 .\CortexM3\ARM_GCC_493\Debug\Controls.a(CySpc.o)
 .comment       0x00000000       0x71 .\CortexM3\ARM_GCC_493\Debug\Controls.a(USBUART_cls.o)
 .comment       0x00000000       0x71 .\CortexM3\ARM_GCC_493\Debug\Controls.a(USBUART_descr.o)

.debug_weaknames
 *(.debug_weaknames)

.debug_funcnames
 *(.debug_funcnames)

.debug_typenames
 *(.debug_typenames)

.debug_varnames
 *(.debug_varnames)

.note.gnu.arm.ident
 *(.note.gnu.arm.ident)

.ARM.attributes
                0x00000000       0x29
 *(.ARM.attributes)
 .ARM.attributes
                0x00000000       0x1d c:/program files (x86)/cypress/psoc creator/4.0/psoc creator/import/gnu/arm/4.9.3/bin/../lib/gcc/arm-none-eabi/4.9.3/armv7-m/crti.o
 .ARM.attributes
                0x0000001d       0x2d c:/program files (x86)/cypress/psoc creator/4.0/psoc creator/import/gnu/arm/4.9.3/bin/../lib/gcc/arm-none-eabi/4.9.3/armv7-m/crtbegin.o
 .ARM.attributes
                0x0000004a       0x1b c:/program files (x86)/cypress/psoc creator/4.0/psoc creator/import/gnu/arm/4.9.3/bin/../lib/gcc/arm-none-eabi/4.9.3/../../../../arm-none-eabi/lib/armv7-m/crt0.o
 .ARM.attributes
                0x00000065       0x33 .\CortexM3\ARM_GCC_493\Debug\main.o
 .ARM.attributes
                0x00000098       0x33 .\CortexM3\ARM_GCC_493\Debug\cymetadata.o
 .ARM.attributes
                0x000000cb       0x33 .\CortexM3\ARM_GCC_493\Debug\Cm3Start.o
 .ARM.attributes
                0x000000fe       0x33 .\CortexM3\ARM_GCC_493\Debug\Controls.a(cyfitter_cfg.o)
 .ARM.attributes
                0x00000131       0x33 .\CortexM3\ARM_GCC_493\Debug\Controls.a(Enter_SW.o)
 .ARM.attributes
                0x00000164       0x33 .\CortexM3\ARM_GCC_493\Debug\Controls.a(Power_LED.o)
 .ARM.attributes
                0x00000197       0x33 .\CortexM3\ARM_GCC_493\Debug\Controls.a(D3_LED.o)
 .ARM.attributes
                0x000001ca       0x33 .\CortexM3\ARM_GCC_493\Debug\Controls.a(Power_SW.o)
 .ARM.attributes
                0x000001fd       0x33 .\CortexM3\ARM_GCC_493\Debug\Controls.a(Left_SW.o)
 .ARM.attributes
                0x00000230       0x33 .\CortexM3\ARM_GCC_493\Debug\Controls.a(Right_SW.o)
 .ARM.attributes
                0x00000263       0x33 .\CortexM3\ARM_GCC_493\Debug\Controls.a(Down_SW.o)
 .ARM.attributes
                0x00000296       0x33 .\CortexM3\ARM_GCC_493\Debug\Controls.a(D2_LED.o)
 .ARM.attributes
                0x000002c9       0x33 .\CortexM3\ARM_GCC_493\Debug\Controls.a(Up_SW.o)
 .ARM.attributes
                0x000002fc       0x33 .\CortexM3\ARM_GCC_493\Debug\Controls.a(Input_1_SW.o)
 .ARM.attributes
                0x0000032f       0x33 .\CortexM3\ARM_GCC_493\Debug\Controls.a(Input_2_SW.o)
 .ARM.attributes
                0x00000362       0x33 .\CortexM3\ARM_GCC_493\Debug\Controls.a(D1_LED.o)
 .ARM.attributes
                0x00000395       0x33 .\CortexM3\ARM_GCC_493\Debug\Controls.a(U1_LED.o)
 .ARM.attributes
                0x000003c8       0x33 .\CortexM3\ARM_GCC_493\Debug\Controls.a(U2_LED.o)
 .ARM.attributes
                0x000003fb       0x33 .\CortexM3\ARM_GCC_493\Debug\Controls.a(U3_LED.o)
 .ARM.attributes
                0x0000042e       0x33 .\CortexM3\ARM_GCC_493\Debug\Controls.a(U4_LED.o)
 .ARM.attributes
                0x00000461       0x33 .\CortexM3\ARM_GCC_493\Debug\Controls.a(U5_LED.o)
 .ARM.attributes
                0x00000494       0x33 .\CortexM3\ARM_GCC_493\Debug\Controls.a(U6_LED.o)
 .ARM.attributes
                0x000004c7       0x33 .\CortexM3\ARM_GCC_493\Debug\Controls.a(U7_LED.o)
 .ARM.attributes
                0x000004fa       0x33 .\CortexM3\ARM_GCC_493\Debug\Controls.a(U8_LED.o)
 .ARM.attributes
                0x0000052d       0x33 .\CortexM3\ARM_GCC_493\Debug\Controls.a(CyLib.o)
 .ARM.attributes
                0x00000560       0x33 .\CortexM3\ARM_GCC_493\Debug\Controls.a(cyPm.o)
 .ARM.attributes
                0x00000593       0x33 .\CortexM3\ARM_GCC_493\Debug\Controls.a(Volume_2.o)
 .ARM.attributes
                0x000005c6       0x33 .\CortexM3\ARM_GCC_493\Debug\Controls.a(Volume_1.o)
 .ARM.attributes
                0x000005f9       0x33 .\CortexM3\ARM_GCC_493\Debug\Controls.a(Volume_ADC.o)
 .ARM.attributes
                0x0000062c       0x33 .\CortexM3\ARM_GCC_493\Debug\Controls.a(Volume_ADC_INT.o)
 .ARM.attributes
                0x0000065f       0x33 .\CortexM3\ARM_GCC_493\Debug\Controls.a(Volume_ADC_theACLK.o)
 .ARM.attributes
                0x00000692       0x33 .\CortexM3\ARM_GCC_493\Debug\Controls.a(Mute_SW.o)
 .ARM.attributes
                0x000006c5       0x33 .\CortexM3\ARM_GCC_493\Debug\Controls.a(i_Up.o)
 .ARM.attributes
                0x000006f8       0x33 .\CortexM3\ARM_GCC_493\Debug\Controls.a(i_Left.o)
 .ARM.attributes
                0x0000072b       0x33 .\CortexM3\ARM_GCC_493\Debug\Controls.a(i_Mute.o)
 .ARM.attributes
                0x0000075e       0x33 .\CortexM3\ARM_GCC_493\Debug\Controls.a(i_Enter.o)
 .ARM.attributes
                0x00000791       0x33 .\CortexM3\ARM_GCC_493\Debug\Controls.a(i_Down.o)
 .ARM.attributes
                0x000007c4       0x33 .\CortexM3\ARM_GCC_493\Debug\Controls.a(i_Right.o)
 .ARM.attributes
                0x000007f7       0x33 .\CortexM3\ARM_GCC_493\Debug\Controls.a(i_Input_1.o)
 .ARM.attributes
                0x0000082a       0x33 .\CortexM3\ARM_GCC_493\Debug\Controls.a(i_Power.o)
 .ARM.attributes
                0x0000085d       0x33 .\CortexM3\ARM_GCC_493\Debug\Controls.a(i_Input_2.o)
 .ARM.attributes
                0x00000890       0x33 .\CortexM3\ARM_GCC_493\Debug\Controls.a(Input_Relais_0.o)
 .ARM.attributes
                0x000008c3       0x33 .\CortexM3\ARM_GCC_493\Debug\Controls.a(Input_Relais_1.o)
 .ARM.attributes
                0x000008f6       0x33 .\CortexM3\ARM_GCC_493\Debug\Controls.a(Input_Relais_2.o)
 .ARM.attributes
                0x00000929       0x33 .\CortexM3\ARM_GCC_493\Debug\Controls.a(Input_Relais_3.o)
 .ARM.attributes
                0x0000095c       0x33 .\CortexM3\ARM_GCC_493\Debug\Controls.a(Button_Timer.o)
 .ARM.attributes
                0x0000098f       0x33 .\CortexM3\ARM_GCC_493\Debug\Controls.a(Button_Timer_Interrupt.o)
 .ARM.attributes
                0x000009c2       0x33 .\CortexM3\ARM_GCC_493\Debug\Controls.a(Input_Relais_4.o)
 .ARM.attributes
                0x000009f5       0x33 .\CortexM3\ARM_GCC_493\Debug\Controls.a(Input_Relais_5.o)
 .ARM.attributes
                0x00000a28       0x33 .\CortexM3\ARM_GCC_493\Debug\Controls.a(Input_Relais_6.o)
 .ARM.attributes
                0x00000a5b       0x33 .\CortexM3\ARM_GCC_493\Debug\Controls.a(Input_Relais_7.o)
 .ARM.attributes
                0x00000a8e       0x33 .\CortexM3\ARM_GCC_493\Debug\Controls.a(Protection_IN.o)
 .ARM.attributes
                0x00000ac1       0x33 .\CortexM3\ARM_GCC_493\Debug\Controls.a(Protection_CLR.o)
 .ARM.attributes
                0x00000af4       0x33 .\CortexM3\ARM_GCC_493\Debug\Controls.a(Protection_CLK.o)
 .ARM.attributes
                0x00000b27       0x33 .\CortexM3\ARM_GCC_493\Debug\Controls.a(USBUART.o)
 .ARM.attributes
                0x00000b5a       0x33 .\CortexM3\ARM_GCC_493\Debug\Controls.a(USBUART_cdc.o)
 .ARM.attributes
                0x00000b8d       0x33 .\CortexM3\ARM_GCC_493\Debug\Controls.a(USBUART_drv.o)
 .ARM.attributes
                0x00000bc0       0x33 .\CortexM3\ARM_GCC_493\Debug\Controls.a(USBUART_episr.o)
 .ARM.attributes
                0x00000bf3       0x33 .\CortexM3\ARM_GCC_493\Debug\Controls.a(USBUART_hid.o)
 .ARM.attributes
                0x00000c26       0x33 .\CortexM3\ARM_GCC_493\Debug\Controls.a(USBUART_pm.o)
 .ARM.attributes
                0x00000c59       0x33 .\CortexM3\ARM_GCC_493\Debug\Controls.a(USBUART_std.o)
 .ARM.attributes
                0x00000c8c       0x33 .\CortexM3\ARM_GCC_493\Debug\Controls.a(USBUART_vnd.o)
 .ARM.attributes
                0x00000cbf       0x33 .\CortexM3\ARM_GCC_493\Debug\Controls.a(USBUART_Dp.o)
 .ARM.attributes
                0x00000cf2       0x33 .\CortexM3\ARM_GCC_493\Debug\Controls.a(Volume_Timer.o)
 .ARM.attributes
                0x00000d25       0x21 .\CortexM3\ARM_GCC_493\Debug\Controls.a(CyBootAsmGnu.o)
 .ARM.attributes
                0x00000d46       0x33 .\CortexM3\ARM_GCC_493\Debug\Controls.a(CyFlash.o)
 .ARM.attributes
                0x00000d79       0x33 .\CortexM3\ARM_GCC_493\Debug\Controls.a(CySpc.o)
 .ARM.attributes
                0x00000dac       0x33 .\CortexM3\ARM_GCC_493\Debug\Controls.a(USBUART_cls.o)
 .ARM.attributes
                0x00000ddf       0x33 .\CortexM3\ARM_GCC_493\Debug\Controls.a(USBUART_descr.o)
 .ARM.attributes
                0x00000e12       0x1d c:/program files (x86)/cypress/psoc creator/4.0/psoc creator/import/gnu/arm/4.9.3/bin/../lib/gcc/arm-none-eabi/4.9.3/armv7-m\libgcc.a(_arm_addsubsf3.o)
 .ARM.attributes
                0x00000e2f       0x1d c:/program files (x86)/cypress/psoc creator/4.0/psoc creator/import/gnu/arm/4.9.3/bin/../lib/gcc/arm-none-eabi/4.9.3/armv7-m\libgcc.a(_arm_muldivsf3.o)
 .ARM.attributes
                0x00000e4c       0x1d c:/program files (x86)/cypress/psoc creator/4.0/psoc creator/import/gnu/arm/4.9.3/bin/../lib/gcc/arm-none-eabi/4.9.3/armv7-m\libgcc.a(_aeabi_ldivmod.o)
 .ARM.attributes
                0x00000e69       0x2d c:/program files (x86)/cypress/psoc creator/4.0/psoc creator/import/gnu/arm/4.9.3/bin/../lib/gcc/arm-none-eabi/4.9.3/armv7-m\libgcc.a(bpabi.o)
 .ARM.attributes
                0x00000e96       0x1d c:/program files (x86)/cypress/psoc creator/4.0/psoc creator/import/gnu/arm/4.9.3/bin/../lib/gcc/arm-none-eabi/4.9.3/armv7-m\libgcc.a(_dvmd_tls.o)
 .ARM.attributes
                0x00000eb3       0x2d c:/program files (x86)/cypress/psoc creator/4.0/psoc creator/import/gnu/arm/4.9.3/bin/../lib/gcc/arm-none-eabi/4.9.3/armv7-m\libgcc.a(_divdi3.o)
 .ARM.attributes
                0x00000ee0       0x2d c:/program files (x86)/cypress/psoc creator/4.0/psoc creator/import/gnu/arm/4.9.3/bin/../lib/gcc/arm-none-eabi/4.9.3/armv7-m\libgcc.a(_udivdi3.o)
 .ARM.attributes
                0x00000f0d       0x2d c:/program files (x86)/cypress/psoc creator/4.0/psoc creator/import/gnu/arm/4.9.3/bin/../lib/gcc/arm-none-eabi/4.9.3/../../../../arm-none-eabi/lib/armv7-m\libg_nano.a(lib_a-errno.o)
 .ARM.attributes
                0x00000f3a       0x2d c:/program files (x86)/cypress/psoc creator/4.0/psoc creator/import/gnu/arm/4.9.3/bin/../lib/gcc/arm-none-eabi/4.9.3/../../../../arm-none-eabi/lib/armv7-m\libg_nano.a(lib_a-exit.o)
 .ARM.attributes
                0x00000f67       0x2d c:/program files (x86)/cypress/psoc creator/4.0/psoc creator/import/gnu/arm/4.9.3/bin/../lib/gcc/arm-none-eabi/4.9.3/../../../../arm-none-eabi/lib/armv7-m\libg_nano.a(lib_a-impure.o)
 .ARM.attributes
                0x00000f94       0x2d c:/program files (x86)/cypress/psoc creator/4.0/psoc creator/import/gnu/arm/4.9.3/bin/../lib/gcc/arm-none-eabi/4.9.3/../../../../arm-none-eabi/lib/armv7-m\libg_nano.a(lib_a-init.o)
 .ARM.attributes
                0x00000fc1       0x2d c:/program files (x86)/cypress/psoc creator/4.0/psoc creator/import/gnu/arm/4.9.3/bin/../lib/gcc/arm-none-eabi/4.9.3/../../../../arm-none-eabi/lib/armv7-m\libg_nano.a(lib_a-memcpy.o)
 .ARM.attributes
                0x00000fee       0x2d c:/program files (x86)/cypress/psoc creator/4.0/psoc creator/import/gnu/arm/4.9.3/bin/../lib/gcc/arm-none-eabi/4.9.3/../../../../arm-none-eabi/lib/armv7-m\libg_nano.a(lib_a-memset.o)
 .ARM.attributes
                0x0000101b       0x2d c:/program files (x86)/cypress/psoc creator/4.0/psoc creator/import/gnu/arm/4.9.3/bin/../lib/gcc/arm-none-eabi/4.9.3/../../../../arm-none-eabi/lib/armv7-m\libg_nano.a(lib_a-nano-vfprintf_float.o)
 .ARM.attributes
                0x00001048       0x2d c:/program files (x86)/cypress/psoc creator/4.0/psoc creator/import/gnu/arm/4.9.3/bin/../lib/gcc/arm-none-eabi/4.9.3/../../../../arm-none-eabi/lib/armv7-m\libg_nano.a(lib_a-nano-vfprintf_i.o)
 .ARM.attributes
                0x00001075       0x2d c:/program files (x86)/cypress/psoc creator/4.0/psoc creator/import/gnu/arm/4.9.3/bin/../lib/gcc/arm-none-eabi/4.9.3/../../../../arm-none-eabi/lib/armv7-m\libg_nano.a(lib_a-s_fpclassify.o)
 .ARM.attributes
                0x000010a2       0x2d c:/program files (x86)/cypress/psoc creator/4.0/psoc creator/import/gnu/arm/4.9.3/bin/../lib/gcc/arm-none-eabi/4.9.3/../../../../arm-none-eabi/lib/armv7-m\libg_nano.a(lib_a-strlen.o)
 .ARM.attributes
                0x000010cf       0x2d c:/program files (x86)/cypress/psoc creator/4.0/psoc creator/import/gnu/arm/4.9.3/bin/../lib/gcc/arm-none-eabi/4.9.3/../../../../arm-none-eabi/lib/armv7-m\libg_nano.a(lib_a-dtoa.o)
 .ARM.attributes
                0x000010fc       0x2d c:/program files (x86)/cypress/psoc creator/4.0/psoc creator/import/gnu/arm/4.9.3/bin/../lib/gcc/arm-none-eabi/4.9.3/../../../../arm-none-eabi/lib/armv7-m\libg_nano.a(lib_a-locale.o)
 .ARM.attributes
                0x00001129       0x2d c:/program files (x86)/cypress/psoc creator/4.0/psoc creator/import/gnu/arm/4.9.3/bin/../lib/gcc/arm-none-eabi/4.9.3/../../../../arm-none-eabi/lib/armv7-m\libg_nano.a(lib_a-malloc.o)
 .ARM.attributes
                0x00001156       0x2d c:/program files (x86)/cypress/psoc creator/4.0/psoc creator/import/gnu/arm/4.9.3/bin/../lib/gcc/arm-none-eabi/4.9.3/../../../../arm-none-eabi/lib/armv7-m\libg_nano.a(lib_a-memchr.o)
 .ARM.attributes
                0x00001183       0x2d c:/program files (x86)/cypress/psoc creator/4.0/psoc creator/import/gnu/arm/4.9.3/bin/../lib/gcc/arm-none-eabi/4.9.3/../../../../arm-none-eabi/lib/armv7-m\libg_nano.a(lib_a-mprec.o)
 .ARM.attributes
                0x000011b0       0x2d c:/program files (x86)/cypress/psoc creator/4.0/psoc creator/import/gnu/arm/4.9.3/bin/../lib/gcc/arm-none-eabi/4.9.3/../../../../arm-none-eabi/lib/armv7-m\libg_nano.a(lib_a-nano-callocr.o)
 .ARM.attributes
                0x000011dd       0x2d c:/program files (x86)/cypress/psoc creator/4.0/psoc creator/import/gnu/arm/4.9.3/bin/../lib/gcc/arm-none-eabi/4.9.3/../../../../arm-none-eabi/lib/armv7-m\libg_nano.a(lib_a-nano-freer.o)
 .ARM.attributes
                0x0000120a       0x2d c:/program files (x86)/cypress/psoc creator/4.0/psoc creator/import/gnu/arm/4.9.3/bin/../lib/gcc/arm-none-eabi/4.9.3/../../../../arm-none-eabi/lib/armv7-m\libg_nano.a(lib_a-nano-mallocr.o)
 .ARM.attributes
                0x00001237       0x2d c:/program files (x86)/cypress/psoc creator/4.0/psoc creator/import/gnu/arm/4.9.3/bin/../lib/gcc/arm-none-eabi/4.9.3/../../../../arm-none-eabi/lib/armv7-m\libg_nano.a(lib_a-sbrkr.o)
 .ARM.attributes
                0x00001264       0x1b c:/program files (x86)/cypress/psoc creator/4.0/psoc creator/import/gnu/arm/4.9.3/bin/../lib/gcc/arm-none-eabi/4.9.3/../../../../arm-none-eabi/lib/armv7-m\libg_nano.a(lib_a-strcmp.o)
 .ARM.attributes
                0x0000127f       0x2d c:/program files (x86)/cypress/psoc creator/4.0/psoc creator/import/gnu/arm/4.9.3/bin/../lib/gcc/arm-none-eabi/4.9.3/../../../../arm-none-eabi/lib/armv7-m\libg_nano.a(lib_a-reent.o)
 .ARM.attributes
                0x000012ac       0x1d c:/program files (x86)/cypress/psoc creator/4.0/psoc creator/import/gnu/arm/4.9.3/bin/../lib/gcc/arm-none-eabi/4.9.3/armv7-m\libgcc.a(_arm_addsubdf3.o)
 .ARM.attributes
                0x000012c9       0x1d c:/program files (x86)/cypress/psoc creator/4.0/psoc creator/import/gnu/arm/4.9.3/bin/../lib/gcc/arm-none-eabi/4.9.3/armv7-m\libgcc.a(_arm_muldivdf3.o)
 .ARM.attributes
                0x000012e6       0x1d c:/program files (x86)/cypress/psoc creator/4.0/psoc creator/import/gnu/arm/4.9.3/bin/../lib/gcc/arm-none-eabi/4.9.3/armv7-m\libgcc.a(_arm_cmpdf2.o)
 .ARM.attributes
                0x00001303       0x1d c:/program files (x86)/cypress/psoc creator/4.0/psoc creator/import/gnu/arm/4.9.3/bin/../lib/gcc/arm-none-eabi/4.9.3/armv7-m\libgcc.a(_arm_fixdfsi.o)
 .ARM.attributes
                0x00001320       0x2d c:/program files (x86)/cypress/psoc creator/4.0/psoc creator/import/gnu/arm/4.9.3/bin/../lib/gcc/arm-none-eabi/4.9.3/armv7-m/crtend.o
 .ARM.attributes
                0x0000134d       0x1d c:/program files (x86)/cypress/psoc creator/4.0/psoc creator/import/gnu/arm/4.9.3/bin/../lib/gcc/arm-none-eabi/4.9.3/armv7-m/crtn.o

/DISCARD/
 *(.note.GNU-stack)
OUTPUT(.\CortexM3\ARM_GCC_493\Debug\Controls.elf elf32-littlearm)
