ARM GAS  C:\Users\LUKASC~1\AppData\Local\Temp\ccHOULVb.s 			page 1


   1              		.syntax unified
   2              		.cpu cortex-m3
   3              		.fpu softvfp
   4              		.eabi_attribute 20, 1
   5              		.eabi_attribute 21, 1
   6              		.eabi_attribute 23, 3
   7              		.eabi_attribute 24, 1
   8              		.eabi_attribute 25, 1
   9              		.eabi_attribute 26, 1
  10              		.eabi_attribute 30, 1
  11              		.eabi_attribute 34, 1
  12              		.eabi_attribute 18, 4
  13              		.thumb
  14              		.file	"cyfitter_cfg.c"
  15              		.text
  16              	.Ltext0:
  17              		.cfi_sections	.debug_frame
  18              		.section	.text.CyClockStartupError,"ax",%progbits
  19              		.align	2
  20              		.thumb
  21              		.thumb_func
  22              		.type	CyClockStartupError, %function
  23              	CyClockStartupError:
  24              	.LFB3:
  25              		.file 1 "Generated_Source\\PSoC5\\cyfitter_cfg.c"
   1:Generated_Source\PSoC5/cyfitter_cfg.c **** /*******************************************************************************
   2:Generated_Source\PSoC5/cyfitter_cfg.c **** * File Name: cyfitter_cfg.c
   3:Generated_Source\PSoC5/cyfitter_cfg.c **** * 
   4:Generated_Source\PSoC5/cyfitter_cfg.c **** * PSoC Creator  4.0
   5:Generated_Source\PSoC5/cyfitter_cfg.c **** *
   6:Generated_Source\PSoC5/cyfitter_cfg.c **** * Description:
   7:Generated_Source\PSoC5/cyfitter_cfg.c **** * This file contains device initialization code.
   8:Generated_Source\PSoC5/cyfitter_cfg.c **** * Except for the user defined sections in CyClockStartupError(), this file should not be modified.
   9:Generated_Source\PSoC5/cyfitter_cfg.c **** * This file is automatically generated by PSoC Creator.
  10:Generated_Source\PSoC5/cyfitter_cfg.c **** *
  11:Generated_Source\PSoC5/cyfitter_cfg.c **** ********************************************************************************
  12:Generated_Source\PSoC5/cyfitter_cfg.c **** * Copyright (c) 2007-2016 Cypress Semiconductor.  All rights reserved.
  13:Generated_Source\PSoC5/cyfitter_cfg.c **** * You may use this file only in accordance with the license, terms, conditions, 
  14:Generated_Source\PSoC5/cyfitter_cfg.c **** * disclaimers, and limitations in the end user license agreement accompanying 
  15:Generated_Source\PSoC5/cyfitter_cfg.c **** * the software package with which this file was provided.
  16:Generated_Source\PSoC5/cyfitter_cfg.c **** ********************************************************************************/
  17:Generated_Source\PSoC5/cyfitter_cfg.c **** 
  18:Generated_Source\PSoC5/cyfitter_cfg.c **** #include <string.h>
  19:Generated_Source\PSoC5/cyfitter_cfg.c **** #include "cytypes.h"
  20:Generated_Source\PSoC5/cyfitter_cfg.c **** #include "cydevice_trm.h"
  21:Generated_Source\PSoC5/cyfitter_cfg.c **** #include "cyfitter.h"
  22:Generated_Source\PSoC5/cyfitter_cfg.c **** #include "CyLib.h"
  23:Generated_Source\PSoC5/cyfitter_cfg.c **** #include "cyfitter_cfg.h"
  24:Generated_Source\PSoC5/cyfitter_cfg.c **** #include "cyapicallbacks.h"
  25:Generated_Source\PSoC5/cyfitter_cfg.c **** 
  26:Generated_Source\PSoC5/cyfitter_cfg.c **** #define CY_NEED_CYCLOCKSTARTUPERROR 1
  27:Generated_Source\PSoC5/cyfitter_cfg.c **** 
  28:Generated_Source\PSoC5/cyfitter_cfg.c **** 
  29:Generated_Source\PSoC5/cyfitter_cfg.c **** #if defined(__GNUC__) || defined(__ARMCC_VERSION)
  30:Generated_Source\PSoC5/cyfitter_cfg.c ****     #define CYPACKED 
  31:Generated_Source\PSoC5/cyfitter_cfg.c ****     #define CYPACKED_ATTR __attribute__ ((packed))
  32:Generated_Source\PSoC5/cyfitter_cfg.c ****     #define CYALIGNED __attribute__ ((aligned))
ARM GAS  C:\Users\LUKASC~1\AppData\Local\Temp\ccHOULVb.s 			page 2


  33:Generated_Source\PSoC5/cyfitter_cfg.c ****     #define CY_CFG_UNUSED __attribute__ ((unused))
  34:Generated_Source\PSoC5/cyfitter_cfg.c ****     #ifndef CY_CFG_SECTION
  35:Generated_Source\PSoC5/cyfitter_cfg.c ****         #define CY_CFG_SECTION __attribute__ ((section(".psocinit")))
  36:Generated_Source\PSoC5/cyfitter_cfg.c ****     #endif
  37:Generated_Source\PSoC5/cyfitter_cfg.c ****     
  38:Generated_Source\PSoC5/cyfitter_cfg.c ****     #if defined(__ARMCC_VERSION)
  39:Generated_Source\PSoC5/cyfitter_cfg.c ****         #define CY_CFG_MEMORY_BARRIER() __memory_changed()
  40:Generated_Source\PSoC5/cyfitter_cfg.c ****     #else
  41:Generated_Source\PSoC5/cyfitter_cfg.c ****         #define CY_CFG_MEMORY_BARRIER() __sync_synchronize()
  42:Generated_Source\PSoC5/cyfitter_cfg.c ****     #endif
  43:Generated_Source\PSoC5/cyfitter_cfg.c ****     
  44:Generated_Source\PSoC5/cyfitter_cfg.c **** #elif defined(__ICCARM__)
  45:Generated_Source\PSoC5/cyfitter_cfg.c ****     #include <intrinsics.h>
  46:Generated_Source\PSoC5/cyfitter_cfg.c **** 
  47:Generated_Source\PSoC5/cyfitter_cfg.c ****     #define CYPACKED __packed
  48:Generated_Source\PSoC5/cyfitter_cfg.c ****     #define CYPACKED_ATTR 
  49:Generated_Source\PSoC5/cyfitter_cfg.c ****     #define CYALIGNED _Pragma("data_alignment=4")
  50:Generated_Source\PSoC5/cyfitter_cfg.c ****     #define CY_CFG_UNUSED _Pragma("diag_suppress=Pe177")
  51:Generated_Source\PSoC5/cyfitter_cfg.c ****     #define CY_CFG_SECTION _Pragma("location=\".psocinit\"")
  52:Generated_Source\PSoC5/cyfitter_cfg.c ****     
  53:Generated_Source\PSoC5/cyfitter_cfg.c ****     #define CY_CFG_MEMORY_BARRIER() __DMB()
  54:Generated_Source\PSoC5/cyfitter_cfg.c ****     
  55:Generated_Source\PSoC5/cyfitter_cfg.c **** #else
  56:Generated_Source\PSoC5/cyfitter_cfg.c ****     #error Unsupported toolchain
  57:Generated_Source\PSoC5/cyfitter_cfg.c **** #endif
  58:Generated_Source\PSoC5/cyfitter_cfg.c **** 
  59:Generated_Source\PSoC5/cyfitter_cfg.c **** 
  60:Generated_Source\PSoC5/cyfitter_cfg.c **** CY_CFG_UNUSED
  61:Generated_Source\PSoC5/cyfitter_cfg.c **** static void CYMEMZERO(void *s, size_t n);
  62:Generated_Source\PSoC5/cyfitter_cfg.c **** CY_CFG_UNUSED
  63:Generated_Source\PSoC5/cyfitter_cfg.c **** static void CYMEMZERO(void *s, size_t n)
  64:Generated_Source\PSoC5/cyfitter_cfg.c **** {
  65:Generated_Source\PSoC5/cyfitter_cfg.c **** 	(void)memset(s, 0, n);
  66:Generated_Source\PSoC5/cyfitter_cfg.c **** }
  67:Generated_Source\PSoC5/cyfitter_cfg.c **** CY_CFG_UNUSED
  68:Generated_Source\PSoC5/cyfitter_cfg.c **** static void CYCONFIGCPY(void *dest, const void *src, size_t n);
  69:Generated_Source\PSoC5/cyfitter_cfg.c **** CY_CFG_UNUSED
  70:Generated_Source\PSoC5/cyfitter_cfg.c **** static void CYCONFIGCPY(void *dest, const void *src, size_t n)
  71:Generated_Source\PSoC5/cyfitter_cfg.c **** {
  72:Generated_Source\PSoC5/cyfitter_cfg.c **** 	(void)memcpy(dest, src, n);
  73:Generated_Source\PSoC5/cyfitter_cfg.c **** }
  74:Generated_Source\PSoC5/cyfitter_cfg.c **** CY_CFG_UNUSED
  75:Generated_Source\PSoC5/cyfitter_cfg.c **** static void CYCONFIGCPYCODE(void *dest, const void *src, size_t n);
  76:Generated_Source\PSoC5/cyfitter_cfg.c **** CY_CFG_UNUSED
  77:Generated_Source\PSoC5/cyfitter_cfg.c **** static void CYCONFIGCPYCODE(void *dest, const void *src, size_t n)
  78:Generated_Source\PSoC5/cyfitter_cfg.c **** {
  79:Generated_Source\PSoC5/cyfitter_cfg.c **** 	(void)memcpy(dest, src, n);
  80:Generated_Source\PSoC5/cyfitter_cfg.c **** }
  81:Generated_Source\PSoC5/cyfitter_cfg.c **** 
  82:Generated_Source\PSoC5/cyfitter_cfg.c **** 
  83:Generated_Source\PSoC5/cyfitter_cfg.c **** 
  84:Generated_Source\PSoC5/cyfitter_cfg.c **** 
  85:Generated_Source\PSoC5/cyfitter_cfg.c **** /* Clock startup error codes                                                   */
  86:Generated_Source\PSoC5/cyfitter_cfg.c **** #define CYCLOCKSTART_NO_ERROR    0u
  87:Generated_Source\PSoC5/cyfitter_cfg.c **** #define CYCLOCKSTART_XTAL_ERROR  1u
  88:Generated_Source\PSoC5/cyfitter_cfg.c **** #define CYCLOCKSTART_32KHZ_ERROR 2u
  89:Generated_Source\PSoC5/cyfitter_cfg.c **** #define CYCLOCKSTART_PLL_ERROR   3u
ARM GAS  C:\Users\LUKASC~1\AppData\Local\Temp\ccHOULVb.s 			page 3


  90:Generated_Source\PSoC5/cyfitter_cfg.c **** 
  91:Generated_Source\PSoC5/cyfitter_cfg.c **** 
  92:Generated_Source\PSoC5/cyfitter_cfg.c **** #ifdef CY_NEED_CYCLOCKSTARTUPERROR
  93:Generated_Source\PSoC5/cyfitter_cfg.c **** /*******************************************************************************
  94:Generated_Source\PSoC5/cyfitter_cfg.c **** * Function Name: CyClockStartupError
  95:Generated_Source\PSoC5/cyfitter_cfg.c **** ********************************************************************************
  96:Generated_Source\PSoC5/cyfitter_cfg.c **** * Summary:
  97:Generated_Source\PSoC5/cyfitter_cfg.c **** *  If an error is encountered during clock configuration (crystal startup error,
  98:Generated_Source\PSoC5/cyfitter_cfg.c **** *  PLL lock error, etc.), the system will end up here.  Unless reimplemented by
  99:Generated_Source\PSoC5/cyfitter_cfg.c **** *  the customer, this function will stop in an infinite loop.
 100:Generated_Source\PSoC5/cyfitter_cfg.c **** *
 101:Generated_Source\PSoC5/cyfitter_cfg.c **** * Parameters:
 102:Generated_Source\PSoC5/cyfitter_cfg.c **** *   void
 103:Generated_Source\PSoC5/cyfitter_cfg.c **** *
 104:Generated_Source\PSoC5/cyfitter_cfg.c **** * Return:
 105:Generated_Source\PSoC5/cyfitter_cfg.c **** *   void
 106:Generated_Source\PSoC5/cyfitter_cfg.c **** *
 107:Generated_Source\PSoC5/cyfitter_cfg.c **** *******************************************************************************/
 108:Generated_Source\PSoC5/cyfitter_cfg.c **** CY_CFG_UNUSED
 109:Generated_Source\PSoC5/cyfitter_cfg.c **** static void CyClockStartupError(uint8 errorCode);
 110:Generated_Source\PSoC5/cyfitter_cfg.c **** CY_CFG_UNUSED
 111:Generated_Source\PSoC5/cyfitter_cfg.c **** static void CyClockStartupError(uint8 errorCode)
 112:Generated_Source\PSoC5/cyfitter_cfg.c **** {
  26              		.loc 1 112 0
  27              		.cfi_startproc
  28              		@ Volatile: function does not return.
  29              		@ args = 0, pretend = 0, frame = 0
  30              		@ frame_needed = 0, uses_anonymous_args = 0
  31              		@ link register save eliminated.
  32              	.LVL0:
  33              	.L2:
 113:Generated_Source\PSoC5/cyfitter_cfg.c ****     /* To remove the compiler warning if errorCode not used.                */
 114:Generated_Source\PSoC5/cyfitter_cfg.c ****     errorCode = errorCode;
 115:Generated_Source\PSoC5/cyfitter_cfg.c **** 
 116:Generated_Source\PSoC5/cyfitter_cfg.c ****     /* If we have a clock startup error (bad MHz crystal, PLL lock, etc.),  */
 117:Generated_Source\PSoC5/cyfitter_cfg.c ****     /* we will end up here to allow the customer to implement something to  */
 118:Generated_Source\PSoC5/cyfitter_cfg.c ****     /* deal with the clock condition.                                       */
 119:Generated_Source\PSoC5/cyfitter_cfg.c **** 
 120:Generated_Source\PSoC5/cyfitter_cfg.c **** #ifdef CY_CFG_CLOCK_STARTUP_ERROR_CALLBACK
 121:Generated_Source\PSoC5/cyfitter_cfg.c **** 	CY_CFG_Clock_Startup_ErrorCallback();
 122:Generated_Source\PSoC5/cyfitter_cfg.c **** #else
 123:Generated_Source\PSoC5/cyfitter_cfg.c **** 	/*  If not using CY_CFG_CLOCK_STARTUP_ERROR_CALLBACK, place your clock startup code here. */
 124:Generated_Source\PSoC5/cyfitter_cfg.c ****     /* `#START CyClockStartupError` */
 125:Generated_Source\PSoC5/cyfitter_cfg.c **** 
 126:Generated_Source\PSoC5/cyfitter_cfg.c ****     /* If we have a clock startup error (bad MHz crystal, PLL lock, etc.),  */
 127:Generated_Source\PSoC5/cyfitter_cfg.c ****     /* we will end up here to allow the customer to implement something to  */
 128:Generated_Source\PSoC5/cyfitter_cfg.c ****     /* deal with the clock condition.                                       */
 129:Generated_Source\PSoC5/cyfitter_cfg.c **** 
 130:Generated_Source\PSoC5/cyfitter_cfg.c ****     /* `#END` */
 131:Generated_Source\PSoC5/cyfitter_cfg.c **** 
 132:Generated_Source\PSoC5/cyfitter_cfg.c ****     /* If nothing else, stop here since the clocks have not started         */
 133:Generated_Source\PSoC5/cyfitter_cfg.c ****     /* correctly.                                                           */
 134:Generated_Source\PSoC5/cyfitter_cfg.c ****     while(1) {}
  34              		.loc 1 134 0 discriminator 1
  35 0000 FEE7     		b	.L2
  36              		.cfi_endproc
  37              	.LFE3:
ARM GAS  C:\Users\LUKASC~1\AppData\Local\Temp\ccHOULVb.s 			page 4


  38              		.size	CyClockStartupError, .-CyClockStartupError
  39 0002 00BF     		.section	.text.cfg_write_bytes32,"ax",%progbits
  40              		.align	2
  41              		.thumb
  42              		.thumb_func
  43              		.type	cfg_write_bytes32, %function
  44              	cfg_write_bytes32:
  45              	.LFB4:
 135:Generated_Source\PSoC5/cyfitter_cfg.c **** #endif /* CY_CFG_CLOCK_STARTUP_ERROR_CALLBACK */ 
 136:Generated_Source\PSoC5/cyfitter_cfg.c **** }
 137:Generated_Source\PSoC5/cyfitter_cfg.c **** #endif
 138:Generated_Source\PSoC5/cyfitter_cfg.c **** 
 139:Generated_Source\PSoC5/cyfitter_cfg.c **** #define CY_CFG_BASE_ADDR_COUNT 25u
 140:Generated_Source\PSoC5/cyfitter_cfg.c **** CYPACKED typedef struct
 141:Generated_Source\PSoC5/cyfitter_cfg.c **** {
 142:Generated_Source\PSoC5/cyfitter_cfg.c **** 	uint8 offset;
 143:Generated_Source\PSoC5/cyfitter_cfg.c **** 	uint8 value;
 144:Generated_Source\PSoC5/cyfitter_cfg.c **** } CYPACKED_ATTR cy_cfg_addrvalue_t;
 145:Generated_Source\PSoC5/cyfitter_cfg.c **** 
 146:Generated_Source\PSoC5/cyfitter_cfg.c **** #define cy_cfg_addr_table ((const uint32 CYFAR *)0x48000000u)
 147:Generated_Source\PSoC5/cyfitter_cfg.c **** #define cy_cfg_data_table ((const cy_cfg_addrvalue_t CYFAR *)0x48000064u)
 148:Generated_Source\PSoC5/cyfitter_cfg.c **** 
 149:Generated_Source\PSoC5/cyfitter_cfg.c **** /* IDMUX_IRQ Address: CYREG_IDMUX_IRQ_CTL0 Size (bytes): 8 */
 150:Generated_Source\PSoC5/cyfitter_cfg.c **** #define BS_IDMUX_IRQ_VAL ((const uint8 CYFAR *)0x4800016Cu)
 151:Generated_Source\PSoC5/cyfitter_cfg.c **** 
 152:Generated_Source\PSoC5/cyfitter_cfg.c **** /* IOPINS0_0 Address: CYREG_PRT0_DM0 Size (bytes): 8 */
 153:Generated_Source\PSoC5/cyfitter_cfg.c **** #define BS_IOPINS0_0_VAL ((const uint8 CYFAR *)0x48000174u)
 154:Generated_Source\PSoC5/cyfitter_cfg.c **** 
 155:Generated_Source\PSoC5/cyfitter_cfg.c **** /* IOPINS0_7 Address: CYREG_PRT12_DR Size (bytes): 10 */
 156:Generated_Source\PSoC5/cyfitter_cfg.c **** #define BS_IOPINS0_7_VAL ((const uint8 CYFAR *)0x4800017Cu)
 157:Generated_Source\PSoC5/cyfitter_cfg.c **** 
 158:Generated_Source\PSoC5/cyfitter_cfg.c **** /* IOPINS0_8 Address: CYREG_PRT15_DR Size (bytes): 10 */
 159:Generated_Source\PSoC5/cyfitter_cfg.c **** #define BS_IOPINS0_8_VAL ((const uint8 CYFAR *)0x48000188u)
 160:Generated_Source\PSoC5/cyfitter_cfg.c **** 
 161:Generated_Source\PSoC5/cyfitter_cfg.c **** /* IOPINS0_1 Address: CYREG_PRT1_DR Size (bytes): 10 */
 162:Generated_Source\PSoC5/cyfitter_cfg.c **** #define BS_IOPINS0_1_VAL ((const uint8 CYFAR *)0x48000194u)
 163:Generated_Source\PSoC5/cyfitter_cfg.c **** 
 164:Generated_Source\PSoC5/cyfitter_cfg.c **** /* IOPINS0_2 Address: CYREG_PRT2_DM0 Size (bytes): 8 */
 165:Generated_Source\PSoC5/cyfitter_cfg.c **** #define BS_IOPINS0_2_VAL ((const uint8 CYFAR *)0x480001A0u)
 166:Generated_Source\PSoC5/cyfitter_cfg.c **** 
 167:Generated_Source\PSoC5/cyfitter_cfg.c **** /* IOPINS0_3 Address: CYREG_PRT3_DR Size (bytes): 10 */
 168:Generated_Source\PSoC5/cyfitter_cfg.c **** #define BS_IOPINS0_3_VAL ((const uint8 CYFAR *)0x480001A8u)
 169:Generated_Source\PSoC5/cyfitter_cfg.c **** 
 170:Generated_Source\PSoC5/cyfitter_cfg.c **** /* CYDEV_CLKDIST_ACFG0_CFG0 Address: CYREG_CLKDIST_ACFG0_CFG0 Size (bytes): 4 */
 171:Generated_Source\PSoC5/cyfitter_cfg.c **** #define BS_CYDEV_CLKDIST_ACFG0_CFG0_VAL ((const uint8 CYFAR *)0x480001B4u)
 172:Generated_Source\PSoC5/cyfitter_cfg.c **** 
 173:Generated_Source\PSoC5/cyfitter_cfg.c **** 
 174:Generated_Source\PSoC5/cyfitter_cfg.c **** /*******************************************************************************
 175:Generated_Source\PSoC5/cyfitter_cfg.c **** * Function Name: cfg_write_bytes32
 176:Generated_Source\PSoC5/cyfitter_cfg.c **** ********************************************************************************
 177:Generated_Source\PSoC5/cyfitter_cfg.c **** * Summary:
 178:Generated_Source\PSoC5/cyfitter_cfg.c **** *  This function is used for setting up the chip configuration areas that
 179:Generated_Source\PSoC5/cyfitter_cfg.c **** *  contain relatively sparse data.
 180:Generated_Source\PSoC5/cyfitter_cfg.c **** *
 181:Generated_Source\PSoC5/cyfitter_cfg.c **** * Parameters:
 182:Generated_Source\PSoC5/cyfitter_cfg.c **** *   void
 183:Generated_Source\PSoC5/cyfitter_cfg.c **** *
ARM GAS  C:\Users\LUKASC~1\AppData\Local\Temp\ccHOULVb.s 			page 5


 184:Generated_Source\PSoC5/cyfitter_cfg.c **** * Return:
 185:Generated_Source\PSoC5/cyfitter_cfg.c **** *   void
 186:Generated_Source\PSoC5/cyfitter_cfg.c **** *
 187:Generated_Source\PSoC5/cyfitter_cfg.c **** *******************************************************************************/
 188:Generated_Source\PSoC5/cyfitter_cfg.c **** static void cfg_write_bytes32(const uint32 addr_table[], const cy_cfg_addrvalue_t data_table[]);
 189:Generated_Source\PSoC5/cyfitter_cfg.c **** static void cfg_write_bytes32(const uint32 addr_table[], const cy_cfg_addrvalue_t data_table[])
 190:Generated_Source\PSoC5/cyfitter_cfg.c **** {
  46              		.loc 1 190 0
  47              		.cfi_startproc
  48              		@ args = 0, pretend = 0, frame = 0
  49              		@ frame_needed = 0, uses_anonymous_args = 0
  50              		@ link register save eliminated.
  51              	.LVL1:
  52 0000 F0B4     		push	{r4, r5, r6, r7}
  53              		.cfi_def_cfa_offset 16
  54              		.cfi_offset 4, -16
  55              		.cfi_offset 5, -12
  56              		.cfi_offset 6, -8
  57              		.cfi_offset 7, -4
  58              	.LVL2:
 191:Generated_Source\PSoC5/cyfitter_cfg.c **** 	/* For 32-bit little-endian architectures */
 192:Generated_Source\PSoC5/cyfitter_cfg.c **** 	uint32 i, j = 0u;
  59              		.loc 1 192 0
  60 0002 0022     		movs	r2, #0
 193:Generated_Source\PSoC5/cyfitter_cfg.c **** 	for (i = 0u; i < CY_CFG_BASE_ADDR_COUNT; i++)
  61              		.loc 1 193 0
  62 0004 1746     		mov	r7, r2
  63 0006 11E0     		b	.L4
  64              	.LVL3:
  65              	.L7:
  66              	.LBB2:
 194:Generated_Source\PSoC5/cyfitter_cfg.c **** 	{
 195:Generated_Source\PSoC5/cyfitter_cfg.c **** 		uint32 baseAddr = addr_table[i];
  67              		.loc 1 195 0
  68 0008 50F82760 		ldr	r6, [r0, r7, lsl #2]
  69              	.LVL4:
 196:Generated_Source\PSoC5/cyfitter_cfg.c **** 		uint8 count = (uint8)baseAddr;
  70              		.loc 1 196 0
  71 000c F3B2     		uxtb	r3, r6
  72              	.LVL5:
 197:Generated_Source\PSoC5/cyfitter_cfg.c **** 		baseAddr &= 0xFFFFFF00u;
  73              		.loc 1 197 0
  74 000e 26F0FF06 		bic	r6, r6, #255
  75              	.LVL6:
 198:Generated_Source\PSoC5/cyfitter_cfg.c **** 		while (count != 0u)
  76              		.loc 1 198 0
  77 0012 08E0     		b	.L5
  78              	.L6:
 199:Generated_Source\PSoC5/cyfitter_cfg.c **** 		{
 200:Generated_Source\PSoC5/cyfitter_cfg.c **** 			CY_SET_XTND_REG8((void CYFAR *)(baseAddr + data_table[j].offset), data_table[j].value);
  79              		.loc 1 200 0
  80 0014 01EB4205 		add	r5, r1, r2, lsl #1
  81 0018 11F81240 		ldrb	r4, [r1, r2, lsl #1]	@ zero_extendqisi2
  82 001c 6D78     		ldrb	r5, [r5, #1]	@ zero_extendqisi2
  83 001e A555     		strb	r5, [r4, r6]
 201:Generated_Source\PSoC5/cyfitter_cfg.c **** 			j++;
  84              		.loc 1 201 0
ARM GAS  C:\Users\LUKASC~1\AppData\Local\Temp\ccHOULVb.s 			page 6


  85 0020 0132     		adds	r2, r2, #1
  86              	.LVL7:
 202:Generated_Source\PSoC5/cyfitter_cfg.c **** 			count--;
  87              		.loc 1 202 0
  88 0022 013B     		subs	r3, r3, #1
  89              	.LVL8:
  90 0024 DBB2     		uxtb	r3, r3
  91              	.LVL9:
  92              	.L5:
 198:Generated_Source\PSoC5/cyfitter_cfg.c **** 		{
  93              		.loc 1 198 0
  94 0026 002B     		cmp	r3, #0
  95 0028 F4D1     		bne	.L6
  96              	.LBE2:
 193:Generated_Source\PSoC5/cyfitter_cfg.c **** 	{
  97              		.loc 1 193 0 discriminator 2
  98 002a 0137     		adds	r7, r7, #1
  99              	.LVL10:
 100              	.L4:
 193:Generated_Source\PSoC5/cyfitter_cfg.c **** 	{
 101              		.loc 1 193 0 is_stmt 0 discriminator 1
 102 002c 182F     		cmp	r7, #24
 103 002e EBD9     		bls	.L7
 203:Generated_Source\PSoC5/cyfitter_cfg.c **** 		}
 204:Generated_Source\PSoC5/cyfitter_cfg.c **** 	}
 205:Generated_Source\PSoC5/cyfitter_cfg.c **** }
 104              		.loc 1 205 0 is_stmt 1
 105 0030 F0BC     		pop	{r4, r5, r6, r7}
 106              		.cfi_restore 7
 107              		.cfi_restore 6
 108              		.cfi_restore 5
 109              		.cfi_restore 4
 110              		.cfi_def_cfa_offset 0
 111              	.LVL11:
 112 0032 7047     		bx	lr
 113              		.cfi_endproc
 114              	.LFE4:
 115              		.size	cfg_write_bytes32, .-cfg_write_bytes32
 116              		.section	.text.AnalogSetDefault,"ax",%progbits
 117              		.align	2
 118              		.thumb
 119              		.thumb_func
 120              		.type	AnalogSetDefault, %function
 121              	AnalogSetDefault:
 122              	.LFB6:
 206:Generated_Source\PSoC5/cyfitter_cfg.c **** 
 207:Generated_Source\PSoC5/cyfitter_cfg.c **** /*******************************************************************************
 208:Generated_Source\PSoC5/cyfitter_cfg.c **** * Function Name: ClockSetup
 209:Generated_Source\PSoC5/cyfitter_cfg.c **** ********************************************************************************
 210:Generated_Source\PSoC5/cyfitter_cfg.c **** *
 211:Generated_Source\PSoC5/cyfitter_cfg.c **** * Summary:
 212:Generated_Source\PSoC5/cyfitter_cfg.c **** *  Performs the initialization of all of the clocks in the device based on the
 213:Generated_Source\PSoC5/cyfitter_cfg.c **** *  settings in the Clock tab of the DWR.  This includes enabling the requested
 214:Generated_Source\PSoC5/cyfitter_cfg.c **** *  clocks and setting the necessary dividers to produce the desired frequency. 
 215:Generated_Source\PSoC5/cyfitter_cfg.c **** *
 216:Generated_Source\PSoC5/cyfitter_cfg.c **** * Parameters:
 217:Generated_Source\PSoC5/cyfitter_cfg.c **** *  void
ARM GAS  C:\Users\LUKASC~1\AppData\Local\Temp\ccHOULVb.s 			page 7


 218:Generated_Source\PSoC5/cyfitter_cfg.c **** *
 219:Generated_Source\PSoC5/cyfitter_cfg.c **** * Return:
 220:Generated_Source\PSoC5/cyfitter_cfg.c **** *  void
 221:Generated_Source\PSoC5/cyfitter_cfg.c **** *
 222:Generated_Source\PSoC5/cyfitter_cfg.c **** *******************************************************************************/
 223:Generated_Source\PSoC5/cyfitter_cfg.c **** static void ClockSetup(void);
 224:Generated_Source\PSoC5/cyfitter_cfg.c **** static void ClockSetup(void)
 225:Generated_Source\PSoC5/cyfitter_cfg.c **** {
 226:Generated_Source\PSoC5/cyfitter_cfg.c **** 	uint32 timeout;
 227:Generated_Source\PSoC5/cyfitter_cfg.c **** 	uint8 pllLock;
 228:Generated_Source\PSoC5/cyfitter_cfg.c **** 
 229:Generated_Source\PSoC5/cyfitter_cfg.c **** 
 230:Generated_Source\PSoC5/cyfitter_cfg.c **** 	/* Configure Digital Clocks based on settings from Clock DWR */
 231:Generated_Source\PSoC5/cyfitter_cfg.c **** 	CY_SET_XTND_REG16((void CYFAR *)(CYREG_CLKDIST_DCFG0_CFG0), 0x0000u);
 232:Generated_Source\PSoC5/cyfitter_cfg.c **** 	CY_SET_XTND_REG8((void CYFAR *)(CYREG_CLKDIST_DCFG0_CFG0 + 0x2u), 0x50u);
 233:Generated_Source\PSoC5/cyfitter_cfg.c **** 
 234:Generated_Source\PSoC5/cyfitter_cfg.c **** 	/* Configure Analog Clocks based on settings from Clock DWR */
 235:Generated_Source\PSoC5/cyfitter_cfg.c **** 	CYCONFIGCPY((void CYFAR *)(CYREG_CLKDIST_ACFG0_CFG0), (const void CYFAR *)(BS_CYDEV_CLKDIST_ACFG0_
 236:Generated_Source\PSoC5/cyfitter_cfg.c **** 
 237:Generated_Source\PSoC5/cyfitter_cfg.c **** 	/* Configure ILO based on settings from Clock DWR */
 238:Generated_Source\PSoC5/cyfitter_cfg.c **** 	CY_SET_XTND_REG8((void CYFAR *)(CYREG_SLOWCLK_ILO_CR0), 0x06u);
 239:Generated_Source\PSoC5/cyfitter_cfg.c **** 
 240:Generated_Source\PSoC5/cyfitter_cfg.c **** 	/* Configure IMO based on settings from Clock DWR */
 241:Generated_Source\PSoC5/cyfitter_cfg.c **** 	CY_SET_XTND_REG8((void CYFAR *)(CYREG_FASTCLK_IMO_CR), 0x52u);
 242:Generated_Source\PSoC5/cyfitter_cfg.c **** 	CY_SET_XTND_REG8((void CYFAR *)(CYREG_IMO_TR1), (CY_GET_XTND_REG8((void CYFAR *)CYREG_FLSHID_CUST_
 243:Generated_Source\PSoC5/cyfitter_cfg.c **** 
 244:Generated_Source\PSoC5/cyfitter_cfg.c **** 	/* Configure PLL based on settings from Clock DWR */
 245:Generated_Source\PSoC5/cyfitter_cfg.c **** 	CY_SET_XTND_REG16((void CYFAR *)(CYREG_FASTCLK_PLL_P), 0x0708u);
 246:Generated_Source\PSoC5/cyfitter_cfg.c **** 	CY_SET_XTND_REG16((void CYFAR *)(CYREG_FASTCLK_PLL_CFG0), 0x1251u);
 247:Generated_Source\PSoC5/cyfitter_cfg.c **** 	/* Wait up to 250us for the PLL to lock */
 248:Generated_Source\PSoC5/cyfitter_cfg.c **** 	pllLock = 0u;
 249:Generated_Source\PSoC5/cyfitter_cfg.c **** 	for (timeout = 250u / 10u; (timeout > 0u) && (pllLock != 0x03u); timeout--)
 250:Generated_Source\PSoC5/cyfitter_cfg.c **** 	{ 
 251:Generated_Source\PSoC5/cyfitter_cfg.c **** 		pllLock = 0x03u & ((uint8)((uint8)pllLock << 1) | ((CY_GET_XTND_REG8((void CYFAR *)CYREG_FASTCLK_
 252:Generated_Source\PSoC5/cyfitter_cfg.c **** 		CyDelayCycles(10u * 48u); /* Delay 10us based on 48MHz clock */
 253:Generated_Source\PSoC5/cyfitter_cfg.c **** 	}
 254:Generated_Source\PSoC5/cyfitter_cfg.c **** 	/* If we ran out of time the PLL didn't lock so go to the error function */
 255:Generated_Source\PSoC5/cyfitter_cfg.c **** 	if (timeout == 0u)
 256:Generated_Source\PSoC5/cyfitter_cfg.c **** 	{
 257:Generated_Source\PSoC5/cyfitter_cfg.c **** 		CyClockStartupError(CYCLOCKSTART_PLL_ERROR);
 258:Generated_Source\PSoC5/cyfitter_cfg.c **** 	}
 259:Generated_Source\PSoC5/cyfitter_cfg.c **** 
 260:Generated_Source\PSoC5/cyfitter_cfg.c **** 	/* Configure Bus/Master Clock based on settings from Clock DWR */
 261:Generated_Source\PSoC5/cyfitter_cfg.c **** 	CY_SET_XTND_REG16((void CYFAR *)(CYREG_CLKDIST_MSTR0), 0x0100u);
 262:Generated_Source\PSoC5/cyfitter_cfg.c **** 	CY_SET_XTND_REG8((void CYFAR *)(CYREG_CLKDIST_MSTR0), 0x07u);
 263:Generated_Source\PSoC5/cyfitter_cfg.c **** 	CY_SET_XTND_REG8((void CYFAR *)(CYREG_CLKDIST_BCFG0), 0x00u);
 264:Generated_Source\PSoC5/cyfitter_cfg.c **** 	CY_SET_XTND_REG8((void CYFAR *)(CYREG_CLKDIST_BCFG2), 0x48u);
 265:Generated_Source\PSoC5/cyfitter_cfg.c **** 	CY_SET_XTND_REG8((void CYFAR *)(CYREG_CLKDIST_MSTR0), 0x00u);
 266:Generated_Source\PSoC5/cyfitter_cfg.c **** 
 267:Generated_Source\PSoC5/cyfitter_cfg.c **** 	/* Configure USB Clock based on settings from Clock DWR */
 268:Generated_Source\PSoC5/cyfitter_cfg.c **** 	CY_SET_XTND_REG8((void CYFAR *)(CYREG_CLKDIST_UCFG), 0x00u);
 269:Generated_Source\PSoC5/cyfitter_cfg.c **** 	CY_SET_XTND_REG8((void CYFAR *)(CYREG_CLKDIST_LD), 0x02u);
 270:Generated_Source\PSoC5/cyfitter_cfg.c **** 	CY_SET_XTND_REG8((void CYFAR *)(CYREG_CLKDIST_DLY1), 0x04u);
 271:Generated_Source\PSoC5/cyfitter_cfg.c **** 
 272:Generated_Source\PSoC5/cyfitter_cfg.c **** 	CY_SET_XTND_REG8((void CYFAR *)(CYREG_PM_ACT_CFG2), ((CY_GET_XTND_REG8((void CYFAR *)CYREG_PM_ACT_
 273:Generated_Source\PSoC5/cyfitter_cfg.c **** 	CY_SET_XTND_REG8((void CYFAR *)(CYREG_PM_ACT_CFG1), ((CY_GET_XTND_REG8((void CYFAR *)CYREG_PM_ACT_
 274:Generated_Source\PSoC5/cyfitter_cfg.c **** 	CY_SET_XTND_REG8((void CYFAR *)(CYREG_PM_ACT_CFG0), ((CY_GET_XTND_REG8((void CYFAR *)CYREG_PM_ACT_
ARM GAS  C:\Users\LUKASC~1\AppData\Local\Temp\ccHOULVb.s 			page 8


 275:Generated_Source\PSoC5/cyfitter_cfg.c **** }
 276:Generated_Source\PSoC5/cyfitter_cfg.c **** 
 277:Generated_Source\PSoC5/cyfitter_cfg.c **** 
 278:Generated_Source\PSoC5/cyfitter_cfg.c **** /* Analog API Functions */
 279:Generated_Source\PSoC5/cyfitter_cfg.c **** 
 280:Generated_Source\PSoC5/cyfitter_cfg.c **** 
 281:Generated_Source\PSoC5/cyfitter_cfg.c **** /*******************************************************************************
 282:Generated_Source\PSoC5/cyfitter_cfg.c **** * Function Name: AnalogSetDefault
 283:Generated_Source\PSoC5/cyfitter_cfg.c **** ********************************************************************************
 284:Generated_Source\PSoC5/cyfitter_cfg.c **** *
 285:Generated_Source\PSoC5/cyfitter_cfg.c **** * Summary:
 286:Generated_Source\PSoC5/cyfitter_cfg.c **** *  Sets up the analog portions of the chip to default values based on chip
 287:Generated_Source\PSoC5/cyfitter_cfg.c **** *  configuration options from the project.
 288:Generated_Source\PSoC5/cyfitter_cfg.c **** *
 289:Generated_Source\PSoC5/cyfitter_cfg.c **** * Parameters:
 290:Generated_Source\PSoC5/cyfitter_cfg.c **** *  void
 291:Generated_Source\PSoC5/cyfitter_cfg.c **** *
 292:Generated_Source\PSoC5/cyfitter_cfg.c **** * Return:
 293:Generated_Source\PSoC5/cyfitter_cfg.c **** *  void
 294:Generated_Source\PSoC5/cyfitter_cfg.c **** *
 295:Generated_Source\PSoC5/cyfitter_cfg.c **** *******************************************************************************/
 296:Generated_Source\PSoC5/cyfitter_cfg.c **** static void AnalogSetDefault(void);
 297:Generated_Source\PSoC5/cyfitter_cfg.c **** static void AnalogSetDefault(void)
 298:Generated_Source\PSoC5/cyfitter_cfg.c **** {
 123              		.loc 1 298 0
 124              		.cfi_startproc
 125              		@ args = 0, pretend = 0, frame = 0
 126              		@ frame_needed = 0, uses_anonymous_args = 0
 127              		@ link register save eliminated.
 299:Generated_Source\PSoC5/cyfitter_cfg.c **** 	uint8 bg_xover_inl_trim = CY_GET_XTND_REG8((void CYFAR *)(CYREG_FLSHID_MFG_CFG_BG_XOVER_INL_TRIM +
 128              		.loc 1 299 0
 129 0000 0A4B     		ldr	r3, .L10
 130 0002 1B78     		ldrb	r3, [r3]	@ zero_extendqisi2
 131 0004 DBB2     		uxtb	r3, r3
 132              	.LVL12:
 300:Generated_Source\PSoC5/cyfitter_cfg.c **** 	CY_SET_XTND_REG8((void CYFAR *)(CYREG_BG_DFT0), (bg_xover_inl_trim & 0x07u));
 133              		.loc 1 300 0
 134 0006 03F00701 		and	r1, r3, #7
 135 000a 094A     		ldr	r2, .L10+4
 136 000c 1170     		strb	r1, [r2]
 301:Generated_Source\PSoC5/cyfitter_cfg.c **** 	CY_SET_XTND_REG8((void CYFAR *)(CYREG_BG_DFT1), ((bg_xover_inl_trim >> 4) & 0x0Fu));
 137              		.loc 1 301 0
 138 000e 1B09     		lsrs	r3, r3, #4
 139              	.LVL13:
 140 0010 0132     		adds	r2, r2, #1
 141 0012 1370     		strb	r3, [r2]
 302:Generated_Source\PSoC5/cyfitter_cfg.c **** 	CY_SET_XTND_REG8((void CYFAR *)CYREG_PRT3_AG, 0x04u);
 142              		.loc 1 302 0
 143 0014 0422     		movs	r2, #4
 144 0016 074B     		ldr	r3, .L10+8
 145 0018 1A70     		strb	r2, [r3]
 303:Generated_Source\PSoC5/cyfitter_cfg.c **** 	CY_SET_XTND_REG8((void CYFAR *)CYREG_DSM0_SW0, 0x40u);
 146              		.loc 1 303 0
 147 001a 4023     		movs	r3, #64
 148 001c 064A     		ldr	r2, .L10+12
 149 001e 1370     		strb	r3, [r2]
 304:Generated_Source\PSoC5/cyfitter_cfg.c **** 	CY_SET_XTND_REG8((void CYFAR *)CYREG_BUS_SW0, 0x40u);
ARM GAS  C:\Users\LUKASC~1\AppData\Local\Temp\ccHOULVb.s 			page 9


 150              		.loc 1 304 0
 151 0020 5832     		adds	r2, r2, #88
 152 0022 1370     		strb	r3, [r2]
 305:Generated_Source\PSoC5/cyfitter_cfg.c **** 	CY_SET_XTND_REG8((void CYFAR *)CYREG_PUMP_CR0, 0x44u);
 153              		.loc 1 305 0
 154 0024 4422     		movs	r2, #68
 155 0026 054B     		ldr	r3, .L10+16
 156 0028 1A70     		strb	r2, [r3]
 157 002a 7047     		bx	lr
 158              	.L11:
 159              		.align	2
 160              	.L10:
 161 002c CF010049 		.word	1224737231
 162 0030 6E580040 		.word	1073764462
 163 0034 3D510040 		.word	1073762621
 164 0038 005B0040 		.word	1073765120
 165 003c 76580040 		.word	1073764470
 166              		.cfi_endproc
 167              	.LFE6:
 168              		.size	AnalogSetDefault, .-AnalogSetDefault
 169              		.section	.text.CYMEMZERO,"ax",%progbits
 170              		.align	2
 171              		.thumb
 172              		.thumb_func
 173              		.type	CYMEMZERO, %function
 174              	CYMEMZERO:
 175              	.LFB0:
  64:Generated_Source\PSoC5/cyfitter_cfg.c **** 	(void)memset(s, 0, n);
 176              		.loc 1 64 0
 177              		.cfi_startproc
 178              		@ args = 0, pretend = 0, frame = 0
 179              		@ frame_needed = 0, uses_anonymous_args = 0
 180              	.LVL14:
 181 0000 08B5     		push	{r3, lr}
 182              		.cfi_def_cfa_offset 8
 183              		.cfi_offset 3, -8
 184              		.cfi_offset 14, -4
 185 0002 0A46     		mov	r2, r1
  65:Generated_Source\PSoC5/cyfitter_cfg.c **** }
 186              		.loc 1 65 0
 187 0004 0021     		movs	r1, #0
 188              	.LVL15:
 189 0006 FFF7FEFF 		bl	memset
 190              	.LVL16:
 191 000a 08BD     		pop	{r3, pc}
 192              		.cfi_endproc
 193              	.LFE0:
 194              		.size	CYMEMZERO, .-CYMEMZERO
 195              		.section	.text.CYCONFIGCPY,"ax",%progbits
 196              		.align	2
 197              		.thumb
 198              		.thumb_func
 199              		.type	CYCONFIGCPY, %function
 200              	CYCONFIGCPY:
 201              	.LFB1:
  71:Generated_Source\PSoC5/cyfitter_cfg.c **** 	(void)memcpy(dest, src, n);
 202              		.loc 1 71 0
ARM GAS  C:\Users\LUKASC~1\AppData\Local\Temp\ccHOULVb.s 			page 10


 203              		.cfi_startproc
 204              		@ args = 0, pretend = 0, frame = 0
 205              		@ frame_needed = 0, uses_anonymous_args = 0
 206              	.LVL17:
 207 0000 08B5     		push	{r3, lr}
 208              		.cfi_def_cfa_offset 8
 209              		.cfi_offset 3, -8
 210              		.cfi_offset 14, -4
  72:Generated_Source\PSoC5/cyfitter_cfg.c **** }
 211              		.loc 1 72 0
 212 0002 FFF7FEFF 		bl	memcpy
 213              	.LVL18:
 214 0006 08BD     		pop	{r3, pc}
 215              		.cfi_endproc
 216              	.LFE1:
 217              		.size	CYCONFIGCPY, .-CYCONFIGCPY
 218              		.section	.text.ClockSetup,"ax",%progbits
 219              		.align	2
 220              		.thumb
 221              		.thumb_func
 222              		.type	ClockSetup, %function
 223              	ClockSetup:
 224              	.LFB5:
 225:Generated_Source\PSoC5/cyfitter_cfg.c **** 	uint32 timeout;
 225              		.loc 1 225 0
 226              		.cfi_startproc
 227              		@ args = 0, pretend = 0, frame = 0
 228              		@ frame_needed = 0, uses_anonymous_args = 0
 229 0000 38B5     		push	{r3, r4, r5, lr}
 230              		.cfi_def_cfa_offset 16
 231              		.cfi_offset 3, -16
 232              		.cfi_offset 4, -12
 233              		.cfi_offset 5, -8
 234              		.cfi_offset 14, -4
 231:Generated_Source\PSoC5/cyfitter_cfg.c **** 	CY_SET_XTND_REG8((void CYFAR *)(CYREG_CLKDIST_DCFG0_CFG0 + 0x2u), 0x50u);
 235              		.loc 1 231 0
 236 0002 0024     		movs	r4, #0
 237 0004 2C4B     		ldr	r3, .L22
 238 0006 1C80     		strh	r4, [r3]	@ movhi
 232:Generated_Source\PSoC5/cyfitter_cfg.c **** 
 239              		.loc 1 232 0
 240 0008 5022     		movs	r2, #80
 241 000a 0233     		adds	r3, r3, #2
 242 000c 1A70     		strb	r2, [r3]
 235:Generated_Source\PSoC5/cyfitter_cfg.c **** 
 243              		.loc 1 235 0
 244 000e 2B48     		ldr	r0, .L22+4
 245 0010 2B49     		ldr	r1, .L22+8
 246 0012 0422     		movs	r2, #4
 247 0014 FFF7FEFF 		bl	CYCONFIGCPY
 248              	.LVL19:
 238:Generated_Source\PSoC5/cyfitter_cfg.c **** 
 249              		.loc 1 238 0
 250 0018 0622     		movs	r2, #6
 251 001a 2A4B     		ldr	r3, .L22+12
 252 001c 1A70     		strb	r2, [r3]
 241:Generated_Source\PSoC5/cyfitter_cfg.c **** 	CY_SET_XTND_REG8((void CYFAR *)(CYREG_IMO_TR1), (CY_GET_XTND_REG8((void CYFAR *)CYREG_FLSHID_CUST_
ARM GAS  C:\Users\LUKASC~1\AppData\Local\Temp\ccHOULVb.s 			page 11


 253              		.loc 1 241 0
 254 001e 5222     		movs	r2, #82
 255 0020 A3F58073 		sub	r3, r3, #256
 256 0024 1A70     		strb	r2, [r3]
 242:Generated_Source\PSoC5/cyfitter_cfg.c **** 
 257              		.loc 1 242 0
 258 0026 284B     		ldr	r3, .L22+16
 259 0028 1B78     		ldrb	r3, [r3]	@ zero_extendqisi2
 260 002a DBB2     		uxtb	r3, r3
 261 002c 274A     		ldr	r2, .L22+20
 262 002e 1370     		strb	r3, [r2]
 245:Generated_Source\PSoC5/cyfitter_cfg.c **** 	CY_SET_XTND_REG16((void CYFAR *)(CYREG_FASTCLK_PLL_CFG0), 0x1251u);
 263              		.loc 1 245 0
 264 0030 4FF4E162 		mov	r2, #1800
 265 0034 264B     		ldr	r3, .L22+24
 266 0036 1A80     		strh	r2, [r3]	@ movhi
 246:Generated_Source\PSoC5/cyfitter_cfg.c **** 	/* Wait up to 250us for the PLL to lock */
 267              		.loc 1 246 0
 268 0038 41F25122 		movw	r2, #4689
 269 003c 023B     		subs	r3, r3, #2
 270 003e 1A80     		strh	r2, [r3]	@ movhi
 271              	.LVL20:
 249:Generated_Source\PSoC5/cyfitter_cfg.c **** 	{ 
 272              		.loc 1 249 0
 273 0040 1925     		movs	r5, #25
 274 0042 0CE0     		b	.L17
 275              	.LVL21:
 276              	.L19:
 251:Generated_Source\PSoC5/cyfitter_cfg.c **** 		CyDelayCycles(10u * 48u); /* Delay 10us based on 48MHz clock */
 277              		.loc 1 251 0 discriminator 4
 278 0044 234B     		ldr	r3, .L22+28
 279 0046 1B78     		ldrb	r3, [r3]	@ zero_extendqisi2
 280 0048 03F00103 		and	r3, r3, #1
 281 004c 43EA4404 		orr	r4, r3, r4, lsl #1
 282              	.LVL22:
 283 0050 04F00304 		and	r4, r4, #3
 284              	.LVL23:
 252:Generated_Source\PSoC5/cyfitter_cfg.c **** 	}
 285              		.loc 1 252 0 discriminator 4
 286 0054 4FF4F070 		mov	r0, #480
 287 0058 FFF7FEFF 		bl	CyDelayCycles
 288              	.LVL24:
 249:Generated_Source\PSoC5/cyfitter_cfg.c **** 	{ 
 289              		.loc 1 249 0 discriminator 4
 290 005c 013D     		subs	r5, r5, #1
 291              	.LVL25:
 292              	.L17:
 249:Generated_Source\PSoC5/cyfitter_cfg.c **** 	{ 
 293              		.loc 1 249 0 is_stmt 0 discriminator 1
 294 005e 0DB1     		cbz	r5, .L18
 249:Generated_Source\PSoC5/cyfitter_cfg.c **** 	{ 
 295              		.loc 1 249 0 discriminator 3
 296 0060 032C     		cmp	r4, #3
 297 0062 EFD1     		bne	.L19
 298              	.L18:
 255:Generated_Source\PSoC5/cyfitter_cfg.c **** 	{
 299              		.loc 1 255 0 is_stmt 1
ARM GAS  C:\Users\LUKASC~1\AppData\Local\Temp\ccHOULVb.s 			page 12


 300 0064 15B9     		cbnz	r5, .L20
 257:Generated_Source\PSoC5/cyfitter_cfg.c **** 	}
 301              		.loc 1 257 0
 302 0066 0320     		movs	r0, #3
 303 0068 FFF7FEFF 		bl	CyClockStartupError
 304              	.LVL26:
 305              	.L20:
 261:Generated_Source\PSoC5/cyfitter_cfg.c **** 	CY_SET_XTND_REG8((void CYFAR *)(CYREG_CLKDIST_MSTR0), 0x07u);
 306              		.loc 1 261 0
 307 006c 1A4A     		ldr	r2, .L22+32
 308 006e 4FF48073 		mov	r3, #256
 309 0072 1380     		strh	r3, [r2]	@ movhi
 262:Generated_Source\PSoC5/cyfitter_cfg.c **** 	CY_SET_XTND_REG8((void CYFAR *)(CYREG_CLKDIST_BCFG0), 0x00u);
 310              		.loc 1 262 0
 311 0074 0723     		movs	r3, #7
 312 0076 1370     		strb	r3, [r2]
 263:Generated_Source\PSoC5/cyfitter_cfg.c **** 	CY_SET_XTND_REG8((void CYFAR *)(CYREG_CLKDIST_BCFG2), 0x48u);
 313              		.loc 1 263 0
 314 0078 0023     		movs	r3, #0
 315 007a 1849     		ldr	r1, .L22+36
 316 007c 0B70     		strb	r3, [r1]
 264:Generated_Source\PSoC5/cyfitter_cfg.c **** 	CY_SET_XTND_REG8((void CYFAR *)(CYREG_CLKDIST_MSTR0), 0x00u);
 317              		.loc 1 264 0
 318 007e 4820     		movs	r0, #72
 319 0080 0231     		adds	r1, r1, #2
 320 0082 0870     		strb	r0, [r1]
 265:Generated_Source\PSoC5/cyfitter_cfg.c **** 
 321              		.loc 1 265 0
 322 0084 1370     		strb	r3, [r2]
 268:Generated_Source\PSoC5/cyfitter_cfg.c **** 	CY_SET_XTND_REG8((void CYFAR *)(CYREG_CLKDIST_LD), 0x02u);
 323              		.loc 1 268 0
 324 0086 0532     		adds	r2, r2, #5
 325 0088 1370     		strb	r3, [r2]
 269:Generated_Source\PSoC5/cyfitter_cfg.c **** 	CY_SET_XTND_REG8((void CYFAR *)(CYREG_CLKDIST_DLY1), 0x04u);
 326              		.loc 1 269 0
 327 008a 0222     		movs	r2, #2
 328 008c 144B     		ldr	r3, .L22+40
 329 008e 1A70     		strb	r2, [r3]
 270:Generated_Source\PSoC5/cyfitter_cfg.c **** 
 330              		.loc 1 270 0
 331 0090 0422     		movs	r2, #4
 332 0092 0A33     		adds	r3, r3, #10
 333 0094 1A70     		strb	r2, [r3]
 272:Generated_Source\PSoC5/cyfitter_cfg.c **** 	CY_SET_XTND_REG8((void CYFAR *)(CYREG_PM_ACT_CFG1), ((CY_GET_XTND_REG8((void CYFAR *)CYREG_PM_ACT_
 334              		.loc 1 272 0
 335 0096 134A     		ldr	r2, .L22+44
 336 0098 1378     		ldrb	r3, [r2]	@ zero_extendqisi2
 337 009a 43F00103 		orr	r3, r3, #1
 338 009e 1370     		strb	r3, [r2]
 273:Generated_Source\PSoC5/cyfitter_cfg.c **** 	CY_SET_XTND_REG8((void CYFAR *)(CYREG_PM_ACT_CFG0), ((CY_GET_XTND_REG8((void CYFAR *)CYREG_PM_ACT_
 339              		.loc 1 273 0
 340 00a0 013A     		subs	r2, r2, #1
 341 00a2 1378     		ldrb	r3, [r2]	@ zero_extendqisi2
 342 00a4 43F00103 		orr	r3, r3, #1
 343 00a8 1370     		strb	r3, [r2]
 274:Generated_Source\PSoC5/cyfitter_cfg.c **** }
 344              		.loc 1 274 0
ARM GAS  C:\Users\LUKASC~1\AppData\Local\Temp\ccHOULVb.s 			page 13


 345 00aa 013A     		subs	r2, r2, #1
 346 00ac 1378     		ldrb	r3, [r2]	@ zero_extendqisi2
 347 00ae 43F08003 		orr	r3, r3, #128
 348 00b2 1370     		strb	r3, [r2]
 349 00b4 38BD     		pop	{r3, r4, r5, pc}
 350              	.LVL27:
 351              	.L23:
 352 00b6 00BF     		.align	2
 353              	.L22:
 354 00b8 80400040 		.word	1073758336
 355 00bc 00410040 		.word	1073758464
 356 00c0 B4010048 		.word	1207959988
 357 00c4 00430040 		.word	1073758976
 358 00c8 0F010049 		.word	1224737039
 359 00cc A1460040 		.word	1073759905
 360 00d0 22420040 		.word	1073758754
 361 00d4 25420040 		.word	1073758757
 362 00d8 04400040 		.word	1073758212
 363 00dc 06400040 		.word	1073758214
 364 00e0 01400040 		.word	1073758209
 365 00e4 A2430040 		.word	1073759138
 366              		.cfi_endproc
 367              	.LFE5:
 368              		.size	ClockSetup, .-ClockSetup
 369              		.section	.text.SetAnalogRoutingPumps,"ax",%progbits
 370              		.align	2
 371              		.global	SetAnalogRoutingPumps
 372              		.thumb
 373              		.thumb_func
 374              		.type	SetAnalogRoutingPumps, %function
 375              	SetAnalogRoutingPumps:
 376              	.LFB7:
 306:Generated_Source\PSoC5/cyfitter_cfg.c **** }
 307:Generated_Source\PSoC5/cyfitter_cfg.c **** 
 308:Generated_Source\PSoC5/cyfitter_cfg.c **** 
 309:Generated_Source\PSoC5/cyfitter_cfg.c **** /*******************************************************************************
 310:Generated_Source\PSoC5/cyfitter_cfg.c **** * Function Name: SetAnalogRoutingPumps
 311:Generated_Source\PSoC5/cyfitter_cfg.c **** ********************************************************************************
 312:Generated_Source\PSoC5/cyfitter_cfg.c **** *
 313:Generated_Source\PSoC5/cyfitter_cfg.c **** * Summary:
 314:Generated_Source\PSoC5/cyfitter_cfg.c **** * Enables or disables the analog pumps feeding analog routing switches.
 315:Generated_Source\PSoC5/cyfitter_cfg.c **** * Intended to be called at startup, based on the Vdda system configuration;
 316:Generated_Source\PSoC5/cyfitter_cfg.c **** * may be called during operation when the user informs us that the Vdda voltage
 317:Generated_Source\PSoC5/cyfitter_cfg.c **** * crossed the pump threshold.
 318:Generated_Source\PSoC5/cyfitter_cfg.c **** *
 319:Generated_Source\PSoC5/cyfitter_cfg.c **** * Parameters:
 320:Generated_Source\PSoC5/cyfitter_cfg.c **** *  enabled - 1 to enable the pumps, 0 to disable the pumps
 321:Generated_Source\PSoC5/cyfitter_cfg.c **** *
 322:Generated_Source\PSoC5/cyfitter_cfg.c **** * Return:
 323:Generated_Source\PSoC5/cyfitter_cfg.c **** *  void
 324:Generated_Source\PSoC5/cyfitter_cfg.c **** *
 325:Generated_Source\PSoC5/cyfitter_cfg.c **** *******************************************************************************/
 326:Generated_Source\PSoC5/cyfitter_cfg.c **** void SetAnalogRoutingPumps(uint8 enabled)
 327:Generated_Source\PSoC5/cyfitter_cfg.c **** {
 377              		.loc 1 327 0
 378              		.cfi_startproc
 379              		@ args = 0, pretend = 0, frame = 0
ARM GAS  C:\Users\LUKASC~1\AppData\Local\Temp\ccHOULVb.s 			page 14


 380              		@ frame_needed = 0, uses_anonymous_args = 0
 381              		@ link register save eliminated.
 382              	.LVL28:
 328:Generated_Source\PSoC5/cyfitter_cfg.c **** 	uint8 regValue = CY_GET_XTND_REG8((void CYFAR *)CYREG_PUMP_CR0);
 383              		.loc 1 328 0
 384 0000 054B     		ldr	r3, .L27
 385 0002 1B78     		ldrb	r3, [r3]	@ zero_extendqisi2
 386 0004 DBB2     		uxtb	r3, r3
 387              	.LVL29:
 329:Generated_Source\PSoC5/cyfitter_cfg.c **** 	if (enabled != 0u)
 388              		.loc 1 329 0
 389 0006 10B1     		cbz	r0, .L25
 330:Generated_Source\PSoC5/cyfitter_cfg.c **** 	{
 331:Generated_Source\PSoC5/cyfitter_cfg.c **** 		regValue |= 0x22u;
 390              		.loc 1 331 0
 391 0008 43F02203 		orr	r3, r3, #34
 392              	.LVL30:
 393 000c 01E0     		b	.L26
 394              	.L25:
 332:Generated_Source\PSoC5/cyfitter_cfg.c **** 	}
 333:Generated_Source\PSoC5/cyfitter_cfg.c **** 	else
 334:Generated_Source\PSoC5/cyfitter_cfg.c **** 	{
 335:Generated_Source\PSoC5/cyfitter_cfg.c **** 		regValue &= (uint8)~0x22u;
 395              		.loc 1 335 0
 396 000e 03F0DD03 		and	r3, r3, #221
 397              	.LVL31:
 398              	.L26:
 336:Generated_Source\PSoC5/cyfitter_cfg.c **** 	}
 337:Generated_Source\PSoC5/cyfitter_cfg.c **** 	CY_SET_XTND_REG8((void CYFAR *)CYREG_PUMP_CR0, regValue);
 399              		.loc 1 337 0
 400 0012 014A     		ldr	r2, .L27
 401 0014 1370     		strb	r3, [r2]
 402 0016 7047     		bx	lr
 403              	.L28:
 404              		.align	2
 405              	.L27:
 406 0018 76580040 		.word	1073764470
 407              		.cfi_endproc
 408              	.LFE7:
 409              		.size	SetAnalogRoutingPumps, .-SetAnalogRoutingPumps
 410              		.section	.text.Volume_ADC_AMux_Set,"ax",%progbits
 411              		.align	2
 412              		.global	Volume_ADC_AMux_Set
 413              		.thumb
 414              		.thumb_func
 415              		.type	Volume_ADC_AMux_Set, %function
 416              	Volume_ADC_AMux_Set:
 417              	.LFB8:
 338:Generated_Source\PSoC5/cyfitter_cfg.c **** }
 339:Generated_Source\PSoC5/cyfitter_cfg.c **** 
 340:Generated_Source\PSoC5/cyfitter_cfg.c **** #define CY_AMUX_UNUSED CYREG_BOOST_SR
 341:Generated_Source\PSoC5/cyfitter_cfg.c **** /* This is an implementation detail of the AMux. Code that depends on it may be
 342:Generated_Source\PSoC5/cyfitter_cfg.c ****    incompatible with other versions of PSoC Creator. */
 343:Generated_Source\PSoC5/cyfitter_cfg.c **** uint8 CYXDATA * const CYCODE Volume_ADC_AMux__addrTable[2] = {
 344:Generated_Source\PSoC5/cyfitter_cfg.c **** 	(uint8 CYXDATA *)CYREG_DSM0_SW3, 
 345:Generated_Source\PSoC5/cyfitter_cfg.c **** 	(uint8 CYXDATA *)CY_AMUX_UNUSED, 
 346:Generated_Source\PSoC5/cyfitter_cfg.c **** };
ARM GAS  C:\Users\LUKASC~1\AppData\Local\Temp\ccHOULVb.s 			page 15


 347:Generated_Source\PSoC5/cyfitter_cfg.c **** 
 348:Generated_Source\PSoC5/cyfitter_cfg.c **** /* This is an implementation detail of the AMux. Code that depends on it may be
 349:Generated_Source\PSoC5/cyfitter_cfg.c ****    incompatible with other versions of PSoC Creator. */
 350:Generated_Source\PSoC5/cyfitter_cfg.c **** const uint8 CYCODE Volume_ADC_AMux__maskTable[2] = {
 351:Generated_Source\PSoC5/cyfitter_cfg.c **** 	0x40u, 
 352:Generated_Source\PSoC5/cyfitter_cfg.c **** 	0x00u, 
 353:Generated_Source\PSoC5/cyfitter_cfg.c **** };
 354:Generated_Source\PSoC5/cyfitter_cfg.c **** 
 355:Generated_Source\PSoC5/cyfitter_cfg.c **** /*******************************************************************************
 356:Generated_Source\PSoC5/cyfitter_cfg.c **** * Function Name: Volume_ADC_AMux_Set
 357:Generated_Source\PSoC5/cyfitter_cfg.c **** ********************************************************************************
 358:Generated_Source\PSoC5/cyfitter_cfg.c **** * Summary:
 359:Generated_Source\PSoC5/cyfitter_cfg.c **** *  This function is used to set a particular channel as active on the AMux.
 360:Generated_Source\PSoC5/cyfitter_cfg.c **** *
 361:Generated_Source\PSoC5/cyfitter_cfg.c **** * Parameters:  
 362:Generated_Source\PSoC5/cyfitter_cfg.c **** *   channel - The mux channel input to set as active
 363:Generated_Source\PSoC5/cyfitter_cfg.c **** *
 364:Generated_Source\PSoC5/cyfitter_cfg.c **** * Return:
 365:Generated_Source\PSoC5/cyfitter_cfg.c **** *   void
 366:Generated_Source\PSoC5/cyfitter_cfg.c **** *
 367:Generated_Source\PSoC5/cyfitter_cfg.c **** *******************************************************************************/
 368:Generated_Source\PSoC5/cyfitter_cfg.c **** void Volume_ADC_AMux_Set(uint8 channel)
 369:Generated_Source\PSoC5/cyfitter_cfg.c **** {
 418              		.loc 1 369 0
 419              		.cfi_startproc
 420              		@ args = 0, pretend = 0, frame = 0
 421              		@ frame_needed = 0, uses_anonymous_args = 0
 422              		@ link register save eliminated.
 423              	.LVL32:
 370:Generated_Source\PSoC5/cyfitter_cfg.c **** 	if (channel < 2)
 424              		.loc 1 370 0
 425 0000 0128     		cmp	r0, #1
 426 0002 07D8     		bhi	.L29
 371:Generated_Source\PSoC5/cyfitter_cfg.c **** 	{
 372:Generated_Source\PSoC5/cyfitter_cfg.c **** 		*Volume_ADC_AMux__addrTable[channel] |= Volume_ADC_AMux__maskTable[channel];
 427              		.loc 1 372 0
 428 0004 044B     		ldr	r3, .L31
 429 0006 53F82020 		ldr	r2, [r3, r0, lsl #2]
 430 000a 1844     		add	r0, r0, r3
 431              	.LVL33:
 432 000c 017A     		ldrb	r1, [r0, #8]	@ zero_extendqisi2
 433 000e 1378     		ldrb	r3, [r2]	@ zero_extendqisi2
 434 0010 0B43     		orrs	r3, r3, r1
 435 0012 1370     		strb	r3, [r2]
 436              	.L29:
 437 0014 7047     		bx	lr
 438              	.L32:
 439 0016 00BF     		.align	2
 440              	.L31:
 441 0018 00000000 		.word	.LANCHOR0
 442              		.cfi_endproc
 443              	.LFE8:
 444              		.size	Volume_ADC_AMux_Set, .-Volume_ADC_AMux_Set
 445              		.section	.text.Volume_ADC_AMux_Unset,"ax",%progbits
 446              		.align	2
 447              		.global	Volume_ADC_AMux_Unset
 448              		.thumb
ARM GAS  C:\Users\LUKASC~1\AppData\Local\Temp\ccHOULVb.s 			page 16


 449              		.thumb_func
 450              		.type	Volume_ADC_AMux_Unset, %function
 451              	Volume_ADC_AMux_Unset:
 452              	.LFB9:
 373:Generated_Source\PSoC5/cyfitter_cfg.c **** 	}
 374:Generated_Source\PSoC5/cyfitter_cfg.c **** }
 375:Generated_Source\PSoC5/cyfitter_cfg.c **** 
 376:Generated_Source\PSoC5/cyfitter_cfg.c **** /*******************************************************************************
 377:Generated_Source\PSoC5/cyfitter_cfg.c **** * Function Name: Volume_ADC_AMux_Unset
 378:Generated_Source\PSoC5/cyfitter_cfg.c **** ********************************************************************************
 379:Generated_Source\PSoC5/cyfitter_cfg.c **** * Summary:
 380:Generated_Source\PSoC5/cyfitter_cfg.c **** *  This function is used to clear a particular channel from being active on the
 381:Generated_Source\PSoC5/cyfitter_cfg.c **** *  AMux.
 382:Generated_Source\PSoC5/cyfitter_cfg.c **** *
 383:Generated_Source\PSoC5/cyfitter_cfg.c **** * Parameters:  
 384:Generated_Source\PSoC5/cyfitter_cfg.c **** *   channel - The mux channel input to mark inactive
 385:Generated_Source\PSoC5/cyfitter_cfg.c **** *
 386:Generated_Source\PSoC5/cyfitter_cfg.c **** * Return:
 387:Generated_Source\PSoC5/cyfitter_cfg.c **** *   void
 388:Generated_Source\PSoC5/cyfitter_cfg.c **** *
 389:Generated_Source\PSoC5/cyfitter_cfg.c **** *******************************************************************************/
 390:Generated_Source\PSoC5/cyfitter_cfg.c **** void Volume_ADC_AMux_Unset(uint8 channel)
 391:Generated_Source\PSoC5/cyfitter_cfg.c **** {
 453              		.loc 1 391 0
 454              		.cfi_startproc
 455              		@ args = 0, pretend = 0, frame = 0
 456              		@ frame_needed = 0, uses_anonymous_args = 0
 457              		@ link register save eliminated.
 458              	.LVL34:
 392:Generated_Source\PSoC5/cyfitter_cfg.c **** 	if (channel < 2)
 459              		.loc 1 392 0
 460 0000 0128     		cmp	r0, #1
 461 0002 08D8     		bhi	.L33
 393:Generated_Source\PSoC5/cyfitter_cfg.c **** 	{
 394:Generated_Source\PSoC5/cyfitter_cfg.c **** 		*Volume_ADC_AMux__addrTable[channel] &= (uint8)~Volume_ADC_AMux__maskTable[channel];
 462              		.loc 1 394 0
 463 0004 044B     		ldr	r3, .L35
 464 0006 53F82020 		ldr	r2, [r3, r0, lsl #2]
 465 000a 1844     		add	r0, r0, r3
 466              	.LVL35:
 467 000c 017A     		ldrb	r1, [r0, #8]	@ zero_extendqisi2
 468 000e 1378     		ldrb	r3, [r2]	@ zero_extendqisi2
 469 0010 23EA0103 		bic	r3, r3, r1
 470 0014 1370     		strb	r3, [r2]
 471              	.L33:
 472 0016 7047     		bx	lr
 473              	.L36:
 474              		.align	2
 475              	.L35:
 476 0018 00000000 		.word	.LANCHOR0
 477              		.cfi_endproc
 478              	.LFE9:
 479              		.size	Volume_ADC_AMux_Unset, .-Volume_ADC_AMux_Unset
 480              		.section	.text.cyfitter_cfg,"ax",%progbits
 481              		.align	2
 482              		.global	cyfitter_cfg
 483              		.thumb
ARM GAS  C:\Users\LUKASC~1\AppData\Local\Temp\ccHOULVb.s 			page 17


 484              		.thumb_func
 485              		.type	cyfitter_cfg, %function
 486              	cyfitter_cfg:
 487              	.LFB10:
 395:Generated_Source\PSoC5/cyfitter_cfg.c **** 	}
 396:Generated_Source\PSoC5/cyfitter_cfg.c **** }
 397:Generated_Source\PSoC5/cyfitter_cfg.c **** 
 398:Generated_Source\PSoC5/cyfitter_cfg.c **** 
 399:Generated_Source\PSoC5/cyfitter_cfg.c **** 
 400:Generated_Source\PSoC5/cyfitter_cfg.c **** /*******************************************************************************
 401:Generated_Source\PSoC5/cyfitter_cfg.c **** * Function Name: cyfitter_cfg
 402:Generated_Source\PSoC5/cyfitter_cfg.c **** ********************************************************************************
 403:Generated_Source\PSoC5/cyfitter_cfg.c **** * Summary:
 404:Generated_Source\PSoC5/cyfitter_cfg.c **** *  This function is called by the start-up code for the selected device. It
 405:Generated_Source\PSoC5/cyfitter_cfg.c **** *  performs all of the necessary device configuration based on the design
 406:Generated_Source\PSoC5/cyfitter_cfg.c **** *  settings.  This includes settings from the Design Wide Resources (DWR) such
 407:Generated_Source\PSoC5/cyfitter_cfg.c **** *  as Clocks and Pins as well as any component configuration that is necessary.
 408:Generated_Source\PSoC5/cyfitter_cfg.c **** *
 409:Generated_Source\PSoC5/cyfitter_cfg.c **** * Parameters:  
 410:Generated_Source\PSoC5/cyfitter_cfg.c **** *   void
 411:Generated_Source\PSoC5/cyfitter_cfg.c **** *
 412:Generated_Source\PSoC5/cyfitter_cfg.c **** * Return:
 413:Generated_Source\PSoC5/cyfitter_cfg.c **** *   void
 414:Generated_Source\PSoC5/cyfitter_cfg.c **** *
 415:Generated_Source\PSoC5/cyfitter_cfg.c **** *******************************************************************************/
 416:Generated_Source\PSoC5/cyfitter_cfg.c **** 
 417:Generated_Source\PSoC5/cyfitter_cfg.c **** void cyfitter_cfg(void)
 418:Generated_Source\PSoC5/cyfitter_cfg.c **** {
 488              		.loc 1 418 0
 489              		.cfi_startproc
 490              		@ args = 0, pretend = 0, frame = 0
 491              		@ frame_needed = 0, uses_anonymous_args = 0
 492 0000 38B5     		push	{r3, r4, r5, lr}
 493              		.cfi_def_cfa_offset 16
 494              		.cfi_offset 3, -16
 495              		.cfi_offset 4, -12
 496              		.cfi_offset 5, -8
 497              		.cfi_offset 14, -4
 419:Generated_Source\PSoC5/cyfitter_cfg.c **** #ifdef CYGlobalIntDisable
 420:Generated_Source\PSoC5/cyfitter_cfg.c **** 	/* Disable interrupts by default. Let user enable if/when they want. */
 421:Generated_Source\PSoC5/cyfitter_cfg.c **** 	CYGlobalIntDisable
 498              		.loc 1 421 0
 499              	@ 421 "Generated_Source\PSoC5\cyfitter_cfg.c" 1
 500 0002 72B6     		CPSID   i
 501              	@ 0 "" 2
 422:Generated_Source\PSoC5/cyfitter_cfg.c **** #endif
 423:Generated_Source\PSoC5/cyfitter_cfg.c **** 
 424:Generated_Source\PSoC5/cyfitter_cfg.c **** 	/* Enable/Disable Debug functionality based on settings from System DWR */
 425:Generated_Source\PSoC5/cyfitter_cfg.c **** 	CY_SET_XTND_REG8((void CYFAR *)CYREG_MLOGIC_DEBUG, (CY_GET_XTND_REG8((void CYFAR *)CYREG_MLOGIC_DE
 502              		.loc 1 425 0
 503              		.thumb
 504 0004 394A     		ldr	r2, .L43
 505 0006 1378     		ldrb	r3, [r2]	@ zero_extendqisi2
 506 0008 43F00403 		orr	r3, r3, #4
 507 000c 1370     		strb	r3, [r2]
 508              	.LVL36:
 509              	.LBB3:
ARM GAS  C:\Users\LUKASC~1\AppData\Local\Temp\ccHOULVb.s 			page 18


 426:Generated_Source\PSoC5/cyfitter_cfg.c **** 
 427:Generated_Source\PSoC5/cyfitter_cfg.c **** 	{
 428:Generated_Source\PSoC5/cyfitter_cfg.c **** 
 429:Generated_Source\PSoC5/cyfitter_cfg.c **** 		CYPACKED typedef struct {
 430:Generated_Source\PSoC5/cyfitter_cfg.c **** 			void CYFAR *address;
 431:Generated_Source\PSoC5/cyfitter_cfg.c **** 			uint16 size;
 432:Generated_Source\PSoC5/cyfitter_cfg.c **** 		} CYPACKED_ATTR cfg_memset_t;
 433:Generated_Source\PSoC5/cyfitter_cfg.c **** 
 434:Generated_Source\PSoC5/cyfitter_cfg.c **** 
 435:Generated_Source\PSoC5/cyfitter_cfg.c **** 		CYPACKED typedef struct {
 436:Generated_Source\PSoC5/cyfitter_cfg.c **** 			void CYFAR *dest;
 437:Generated_Source\PSoC5/cyfitter_cfg.c **** 			const void CYFAR *src;
 438:Generated_Source\PSoC5/cyfitter_cfg.c **** 			uint16 size;
 439:Generated_Source\PSoC5/cyfitter_cfg.c **** 		} CYPACKED_ATTR cfg_memcpy_t;
 440:Generated_Source\PSoC5/cyfitter_cfg.c **** 
 441:Generated_Source\PSoC5/cyfitter_cfg.c **** 		static const cfg_memset_t CYCODE cfg_memset_list [] = {
 442:Generated_Source\PSoC5/cyfitter_cfg.c **** 			/* address, size */
 443:Generated_Source\PSoC5/cyfitter_cfg.c **** 			{(void CYFAR *)(CYREG_PRT4_DR), 48u},
 444:Generated_Source\PSoC5/cyfitter_cfg.c **** 			{(void CYFAR *)(CYDEV_UCFG_B0_P0_U0_BASE), 4096u},
 445:Generated_Source\PSoC5/cyfitter_cfg.c **** 			{(void CYFAR *)(CYDEV_UCFG_B1_P2_U0_BASE), 2048u},
 446:Generated_Source\PSoC5/cyfitter_cfg.c **** 			{(void CYFAR *)(CYDEV_UCFG_DSI0_BASE), 2560u},
 447:Generated_Source\PSoC5/cyfitter_cfg.c **** 			{(void CYFAR *)(CYDEV_UCFG_DSI12_BASE), 512u},
 448:Generated_Source\PSoC5/cyfitter_cfg.c **** 			{(void CYFAR *)(CYREG_BCTL0_MDCLK_EN), 32u},
 449:Generated_Source\PSoC5/cyfitter_cfg.c **** 		};
 450:Generated_Source\PSoC5/cyfitter_cfg.c **** 
 451:Generated_Source\PSoC5/cyfitter_cfg.c **** 		static const cfg_memcpy_t CYCODE cfg_memcpy_list [] = {
 452:Generated_Source\PSoC5/cyfitter_cfg.c **** 			/* dest, src, size */
 453:Generated_Source\PSoC5/cyfitter_cfg.c **** 			{(void CYFAR *)(CYREG_IDMUX_IRQ_CTL0), BS_IDMUX_IRQ_VAL, 8u},
 454:Generated_Source\PSoC5/cyfitter_cfg.c **** 		};
 455:Generated_Source\PSoC5/cyfitter_cfg.c **** 
 456:Generated_Source\PSoC5/cyfitter_cfg.c **** 		uint8 CYDATA i;
 457:Generated_Source\PSoC5/cyfitter_cfg.c **** 
 458:Generated_Source\PSoC5/cyfitter_cfg.c **** 		/* Zero out critical memory blocks before beginning configuration */
 459:Generated_Source\PSoC5/cyfitter_cfg.c **** 		for (i = 0u; i < (sizeof(cfg_memset_list)/sizeof(cfg_memset_list[0])); i++)
 510              		.loc 1 459 0
 511 000e 0024     		movs	r4, #0
 512 0010 0AE0     		b	.L38
 513              	.LVL37:
 514              	.L39:
 515              	.LBB4:
 460:Generated_Source\PSoC5/cyfitter_cfg.c **** 		{
 461:Generated_Source\PSoC5/cyfitter_cfg.c **** 			const cfg_memset_t CYCODE * CYDATA ms = &cfg_memset_list[i];
 462:Generated_Source\PSoC5/cyfitter_cfg.c **** 			CYMEMZERO(ms->address, (size_t)(uint32)(ms->size));
 516              		.loc 1 462 0 discriminator 3
 517 0012 3749     		ldr	r1, .L43+4
 518 0014 6300     		lsls	r3, r4, #1
 519 0016 1A19     		adds	r2, r3, r4
 520 0018 5200     		lsls	r2, r2, #1
 521 001a 0A44     		add	r2, r2, r1
 522 001c D068     		ldr	r0, [r2, #12]	@ unaligned
 523 001e 118A     		ldrh	r1, [r2, #16]
 524 0020 FFF7FEFF 		bl	CYMEMZERO
 525              	.LVL38:
 526              	.LBE4:
 459:Generated_Source\PSoC5/cyfitter_cfg.c **** 		{
 527              		.loc 1 459 0 discriminator 3
 528 0024 0134     		adds	r4, r4, #1
ARM GAS  C:\Users\LUKASC~1\AppData\Local\Temp\ccHOULVb.s 			page 19


 529              	.LVL39:
 530 0026 E4B2     		uxtb	r4, r4
 531              	.LVL40:
 532              	.L38:
 459:Generated_Source\PSoC5/cyfitter_cfg.c **** 		{
 533              		.loc 1 459 0 is_stmt 0 discriminator 1
 534 0028 052C     		cmp	r4, #5
 535 002a F2D9     		bls	.L39
 536 002c 0024     		movs	r4, #0
 537              	.LVL41:
 538 002e 0BE0     		b	.L40
 539              	.LVL42:
 540              	.L41:
 541              	.LBB5:
 463:Generated_Source\PSoC5/cyfitter_cfg.c **** 		}
 464:Generated_Source\PSoC5/cyfitter_cfg.c **** 
 465:Generated_Source\PSoC5/cyfitter_cfg.c **** 		/* Copy device configuration data into registers */
 466:Generated_Source\PSoC5/cyfitter_cfg.c **** 		for (i = 0u; i < (sizeof(cfg_memcpy_list)/sizeof(cfg_memcpy_list[0])); i++)
 467:Generated_Source\PSoC5/cyfitter_cfg.c **** 		{
 468:Generated_Source\PSoC5/cyfitter_cfg.c **** 			const cfg_memcpy_t CYCODE * CYDATA mc = &cfg_memcpy_list[i];
 469:Generated_Source\PSoC5/cyfitter_cfg.c **** 			void * CYDATA destPtr = mc->dest;
 542              		.loc 1 469 0 is_stmt 1 discriminator 3
 543 0030 2F49     		ldr	r1, .L43+4
 544 0032 A300     		lsls	r3, r4, #2
 545 0034 1A19     		adds	r2, r3, r4
 546 0036 5200     		lsls	r2, r2, #1
 547 0038 0A44     		add	r2, r2, r1
 548              	.LVL43:
 470:Generated_Source\PSoC5/cyfitter_cfg.c **** 			const void * CYDATA srcPtr = mc->src;
 471:Generated_Source\PSoC5/cyfitter_cfg.c **** 			uint16 CYDATA numBytes = mc->size;
 472:Generated_Source\PSoC5/cyfitter_cfg.c **** 			CYCONFIGCPY(destPtr, srcPtr, numBytes);
 549              		.loc 1 472 0 discriminator 3
 550 003a 106B     		ldr	r0, [r2, #48]	@ unaligned
 551              	.LVL44:
 552 003c 516B     		ldr	r1, [r2, #52]	@ unaligned
 553              	.LVL45:
 554 003e 0822     		movs	r2, #8
 555 0040 FFF7FEFF 		bl	CYCONFIGCPY
 556              	.LVL46:
 557              	.LBE5:
 466:Generated_Source\PSoC5/cyfitter_cfg.c **** 		{
 558              		.loc 1 466 0 discriminator 3
 559 0044 0134     		adds	r4, r4, #1
 560              	.LVL47:
 561 0046 E4B2     		uxtb	r4, r4
 562              	.LVL48:
 563              	.L40:
 466:Generated_Source\PSoC5/cyfitter_cfg.c **** 		{
 564              		.loc 1 466 0 is_stmt 0 discriminator 1
 565 0048 002C     		cmp	r4, #0
 566 004a F1D0     		beq	.L41
 473:Generated_Source\PSoC5/cyfitter_cfg.c **** 		}
 474:Generated_Source\PSoC5/cyfitter_cfg.c **** 
 475:Generated_Source\PSoC5/cyfitter_cfg.c **** 		cfg_write_bytes32(cy_cfg_addr_table, cy_cfg_data_table);
 567              		.loc 1 475 0 is_stmt 1
 568 004c 4FF09040 		mov	r0, #1207959552
 569 0050 2849     		ldr	r1, .L43+8
ARM GAS  C:\Users\LUKASC~1\AppData\Local\Temp\ccHOULVb.s 			page 20


 570 0052 FFF7FEFF 		bl	cfg_write_bytes32
 571              	.LVL49:
 476:Generated_Source\PSoC5/cyfitter_cfg.c **** 
 477:Generated_Source\PSoC5/cyfitter_cfg.c **** 		/* Perform normal device configuration. Order is not critical for these items. */
 478:Generated_Source\PSoC5/cyfitter_cfg.c **** 		CY_SET_XTND_REG8((void CYFAR *)(CYREG_DSM0_CR3), 0x0Au);
 572              		.loc 1 478 0
 573 0056 0A24     		movs	r4, #10
 574              	.LVL50:
 575 0058 274B     		ldr	r3, .L43+12
 576 005a 1C70     		strb	r4, [r3]
 479:Generated_Source\PSoC5/cyfitter_cfg.c **** 
 480:Generated_Source\PSoC5/cyfitter_cfg.c **** 		/* Enable digital routing */
 481:Generated_Source\PSoC5/cyfitter_cfg.c **** 		CY_SET_XTND_REG8((void CYFAR *)CYREG_BCTL0_BANK_CTL, CY_GET_XTND_REG8((void CYFAR *)CYREG_BCTL0_B
 577              		.loc 1 481 0
 578 005c 274A     		ldr	r2, .L43+16
 579 005e 1378     		ldrb	r3, [r2]	@ zero_extendqisi2
 580 0060 43F00203 		orr	r3, r3, #2
 581 0064 1370     		strb	r3, [r2]
 482:Generated_Source\PSoC5/cyfitter_cfg.c **** 		CY_SET_XTND_REG8((void CYFAR *)CYREG_BCTL1_BANK_CTL, CY_GET_XTND_REG8((void CYFAR *)CYREG_BCTL1_B
 582              		.loc 1 482 0
 583 0066 1032     		adds	r2, r2, #16
 584 0068 1378     		ldrb	r3, [r2]	@ zero_extendqisi2
 585 006a 43F00203 		orr	r3, r3, #2
 586 006e 1370     		strb	r3, [r2]
 483:Generated_Source\PSoC5/cyfitter_cfg.c **** 
 484:Generated_Source\PSoC5/cyfitter_cfg.c **** 		/* Enable UDB array */
 485:Generated_Source\PSoC5/cyfitter_cfg.c **** 		CY_SET_XTND_REG8((void CYFAR *)CYREG_PM_ACT_CFG0, CY_GET_XTND_REG8((void CYFAR *)CYREG_PM_ACT_CFG
 587              		.loc 1 485 0
 588 0070 234D     		ldr	r5, .L43+20
 589 0072 2B78     		ldrb	r3, [r5]	@ zero_extendqisi2
 590 0074 43F04003 		orr	r3, r3, #64
 591 0078 2B70     		strb	r3, [r5]
 486:Generated_Source\PSoC5/cyfitter_cfg.c **** 		CY_SET_XTND_REG8((void CYFAR *)CYREG_PM_AVAIL_CR2, CY_GET_XTND_REG8((void CYFAR *)CYREG_PM_AVAIL_
 592              		.loc 1 486 0
 593 007a A2F58632 		sub	r2, r2, #68608
 594 007e 513A     		subs	r2, r2, #81
 595 0080 1378     		ldrb	r3, [r2]	@ zero_extendqisi2
 596 0082 43F01003 		orr	r3, r3, #16
 597 0086 1370     		strb	r3, [r2]
 598              	.LBE3:
 487:Generated_Source\PSoC5/cyfitter_cfg.c **** 	}
 488:Generated_Source\PSoC5/cyfitter_cfg.c **** 
 489:Generated_Source\PSoC5/cyfitter_cfg.c **** 
 490:Generated_Source\PSoC5/cyfitter_cfg.c **** 	/* Perform second pass device configuration. These items must be configured in specific order afte
 491:Generated_Source\PSoC5/cyfitter_cfg.c **** 	CYCONFIGCPY((void CYFAR *)(CYREG_PRT0_DM0), (const void CYFAR *)(BS_IOPINS0_0_VAL), 8u);
 599              		.loc 1 491 0
 600 0088 1E48     		ldr	r0, .L43+24
 601 008a 1F49     		ldr	r1, .L43+28
 602 008c 0822     		movs	r2, #8
 603 008e FFF7FEFF 		bl	CYCONFIGCPY
 604              	.LVL51:
 492:Generated_Source\PSoC5/cyfitter_cfg.c **** 	CYCONFIGCPY((void CYFAR *)(CYREG_PRT12_DR), (const void CYFAR *)(BS_IOPINS0_7_VAL), 10u);
 605              		.loc 1 492 0
 606 0092 1E48     		ldr	r0, .L43+32
 607 0094 1E49     		ldr	r1, .L43+36
 608 0096 2246     		mov	r2, r4
 609 0098 FFF7FEFF 		bl	CYCONFIGCPY
ARM GAS  C:\Users\LUKASC~1\AppData\Local\Temp\ccHOULVb.s 			page 21


 610              	.LVL52:
 493:Generated_Source\PSoC5/cyfitter_cfg.c **** 	CYCONFIGCPY((void CYFAR *)(CYREG_PRT15_DR), (const void CYFAR *)(BS_IOPINS0_8_VAL), 10u);
 611              		.loc 1 493 0
 612 009c 1D48     		ldr	r0, .L43+40
 613 009e 1E49     		ldr	r1, .L43+44
 614 00a0 2246     		mov	r2, r4
 615 00a2 FFF7FEFF 		bl	CYCONFIGCPY
 616              	.LVL53:
 494:Generated_Source\PSoC5/cyfitter_cfg.c **** 	CYCONFIGCPY((void CYFAR *)(CYREG_PRT1_DR), (const void CYFAR *)(BS_IOPINS0_1_VAL), 10u);
 617              		.loc 1 494 0
 618 00a6 1D48     		ldr	r0, .L43+48
 619 00a8 1D49     		ldr	r1, .L43+52
 620 00aa 2246     		mov	r2, r4
 621 00ac FFF7FEFF 		bl	CYCONFIGCPY
 622              	.LVL54:
 495:Generated_Source\PSoC5/cyfitter_cfg.c **** 	CYCONFIGCPY((void CYFAR *)(CYREG_PRT2_DM0), (const void CYFAR *)(BS_IOPINS0_2_VAL), 8u);
 623              		.loc 1 495 0
 624 00b0 1C48     		ldr	r0, .L43+56
 625 00b2 1D49     		ldr	r1, .L43+60
 626 00b4 0822     		movs	r2, #8
 627 00b6 FFF7FEFF 		bl	CYCONFIGCPY
 628              	.LVL55:
 496:Generated_Source\PSoC5/cyfitter_cfg.c **** 	CYCONFIGCPY((void CYFAR *)(CYREG_PRT3_DR), (const void CYFAR *)(BS_IOPINS0_3_VAL), 10u);
 629              		.loc 1 496 0
 630 00ba 1C48     		ldr	r0, .L43+64
 631 00bc 1C49     		ldr	r1, .L43+68
 632 00be 2246     		mov	r2, r4
 633 00c0 FFF7FEFF 		bl	CYCONFIGCPY
 634              	.LVL56:
 497:Generated_Source\PSoC5/cyfitter_cfg.c **** 	/* Switch Boost to the precision bandgap reference from its internal reference */
 498:Generated_Source\PSoC5/cyfitter_cfg.c **** 	CY_SET_REG8((void CYXDATA *)CYREG_BOOST_CR2, (CY_GET_REG8((void CYXDATA *)CYREG_BOOST_CR2) | 0x08u
 635              		.loc 1 498 0
 636 00c4 1B4A     		ldr	r2, .L43+72
 637 00c6 1378     		ldrb	r3, [r2]	@ zero_extendqisi2
 638 00c8 43F00803 		orr	r3, r3, #8
 639 00cc 1370     		strb	r3, [r2]
 499:Generated_Source\PSoC5/cyfitter_cfg.c **** 
 500:Generated_Source\PSoC5/cyfitter_cfg.c **** 	/* Set Flash Cycles based on max possible frequency in case a glitch occurs during ClockSetup(). *
 501:Generated_Source\PSoC5/cyfitter_cfg.c **** 	CY_SET_XTND_REG8((void CYFAR *)(CYREG_CACHE_CC_CTL), (((CYDEV_INSTRUCT_CACHE_ENABLED) != 0) ? 0x61
 640              		.loc 1 501 0
 641 00ce 1A4C     		ldr	r4, .L43+76
 642 00d0 6123     		movs	r3, #97
 643 00d2 2370     		strb	r3, [r4]
 502:Generated_Source\PSoC5/cyfitter_cfg.c **** 	/* Setup clocks based on selections from Clock DWR */
 503:Generated_Source\PSoC5/cyfitter_cfg.c **** 	ClockSetup();
 644              		.loc 1 503 0
 645 00d4 FFF7FEFF 		bl	ClockSetup
 646              	.LVL57:
 504:Generated_Source\PSoC5/cyfitter_cfg.c **** 	/* Set Flash Cycles based on newly configured 24.00MHz Bus Clock. */
 505:Generated_Source\PSoC5/cyfitter_cfg.c **** 	CY_SET_XTND_REG8((void CYFAR *)(CYREG_CACHE_CC_CTL), (((CYDEV_INSTRUCT_CACHE_ENABLED) != 0) ? 0x81
 647              		.loc 1 505 0
 648 00d8 8123     		movs	r3, #129
 649 00da 2370     		strb	r3, [r4]
 506:Generated_Source\PSoC5/cyfitter_cfg.c **** 
 507:Generated_Source\PSoC5/cyfitter_cfg.c **** 	/* Perform basic analog initialization to defaults */
 508:Generated_Source\PSoC5/cyfitter_cfg.c **** 	AnalogSetDefault();
 650              		.loc 1 508 0
ARM GAS  C:\Users\LUKASC~1\AppData\Local\Temp\ccHOULVb.s 			page 22


 651 00dc FFF7FEFF 		bl	AnalogSetDefault
 652              	.LVL58:
 509:Generated_Source\PSoC5/cyfitter_cfg.c **** 
 510:Generated_Source\PSoC5/cyfitter_cfg.c **** 	/* Configure alternate active mode */
 511:Generated_Source\PSoC5/cyfitter_cfg.c **** 	CYCONFIGCPY((void CYFAR *)CYDEV_PM_STBY_BASE, (const void CYFAR *)CYDEV_PM_ACT_BASE, 14u);
 653              		.loc 1 511 0
 654 00e0 1648     		ldr	r0, .L43+80
 655 00e2 2946     		mov	r1, r5
 656 00e4 0E22     		movs	r2, #14
 657 00e6 FFF7FEFF 		bl	CYCONFIGCPY
 658              	.LVL59:
 659 00ea 38BD     		pop	{r3, r4, r5, pc}
 660              	.L44:
 661              		.align	2
 662              	.L43:
 663 00ec E8460040 		.word	1073759976
 664 00f0 00000000 		.word	.LANCHOR0
 665 00f4 64000048 		.word	1207959652
 666 00f8 83580040 		.word	1073764483
 667 00fc 03500140 		.word	1073827843
 668 0100 A0430040 		.word	1073759136
 669 0104 02510040 		.word	1073762562
 670 0108 74010048 		.word	1207959924
 671 010c C0510040 		.word	1073762752
 672 0110 7C010048 		.word	1207959932
 673 0114 F0510040 		.word	1073762800
 674 0118 88010048 		.word	1207959944
 675 011c 10510040 		.word	1073762576
 676 0120 94010048 		.word	1207959956
 677 0124 22510040 		.word	1073762594
 678 0128 A0010048 		.word	1207959968
 679 012c 30510040 		.word	1073762608
 680 0130 A8010048 		.word	1207959976
 681 0134 22430040 		.word	1073759010
 682 0138 00480040 		.word	1073760256
 683 013c B0430040 		.word	1073759152
 684              		.cfi_endproc
 685              	.LFE10:
 686              		.size	cyfitter_cfg, .-cyfitter_cfg
 687              		.global	Volume_ADC_AMux__maskTable
 688              		.global	Volume_ADC_AMux__addrTable
 689              		.section	.rodata
 690              		.align	2
 691              		.set	.LANCHOR0,. + 0
 692              		.type	Volume_ADC_AMux__addrTable, %object
 693              		.size	Volume_ADC_AMux__addrTable, 8
 694              	Volume_ADC_AMux__addrTable:
 695 0000 035B0040 		.word	1073765123
 696 0004 24430040 		.word	1073759012
 697              		.type	Volume_ADC_AMux__maskTable, %object
 698              		.size	Volume_ADC_AMux__maskTable, 2
 699              	Volume_ADC_AMux__maskTable:
 700 0008 40       		.byte	64
 701 0009 00       		.byte	0
 702 000a 0000     		.space	2
 703              		.type	cfg_memset_list.4899, %object
 704              		.size	cfg_memset_list.4899, 36
ARM GAS  C:\Users\LUKASC~1\AppData\Local\Temp\ccHOULVb.s 			page 23


 705              	cfg_memset_list.4899:
 706 000c 40510040 		.word	1073762624
 707 0010 3000     		.short	48
 708 0012 00000140 		.4byte	1073807360
 709 0016 0010     		.short	4096
 710 0018 00140140 		.word	1073812480
 711 001c 0008     		.short	2048
 712 001e 00400140 		.4byte	1073823744
 713 0022 000A     		.short	2560
 714 0024 004C0140 		.word	1073826816
 715 0028 0002     		.short	512
 716 002a 00500140 		.4byte	1073827840
 717 002e 2000     		.short	32
 718              		.type	cfg_memcpy_list.4900, %object
 719              		.size	cfg_memcpy_list.4900, 10
 720              	cfg_memcpy_list.4900:
 721 0030 00510140 		.word	1073828096
 722 0034 6C010048 		.word	1207959916
 723 0038 0800     		.short	8
 724 003a 0000     		.text
 725              	.Letext0:
 726              		.file 2 "c:\\program files (x86)\\cypress\\psoc creator\\4.0\\psoc creator\\import\\gnu\\arm\\4.9.
 727              		.file 3 "Generated_Source\\PSoC5\\cytypes.h"
 728              		.file 4 "Generated_Source\\PSoC5\\CyLib.h"