ARM GAS  C:\Users\LUKASC~1\AppData\Local\Temp\cckvmXWF.s 			page 1


   1              		.syntax unified
   2              		.cpu cortex-m3
   3              		.fpu softvfp
   4              		.eabi_attribute 20, 1
   5              		.eabi_attribute 21, 1
   6              		.eabi_attribute 23, 3
   7              		.eabi_attribute 24, 1
   8              		.eabi_attribute 25, 1
   9              		.eabi_attribute 26, 1
  10              		.eabi_attribute 30, 1
  11              		.eabi_attribute 34, 1
  12              		.eabi_attribute 18, 4
  13              		.thumb
  14              		.file	"main.c"
  15              		.text
  16              	.Ltext0:
  17              		.cfi_sections	.debug_frame
  18              		.global _printf_float
  19              		.thumb
  20              		.section	.text.Power_Handler,"ax",%progbits
  21              		.align	2
  22              		.global	Power_Handler
  23              		.thumb
  24              		.thumb_func
  25              		.type	Power_Handler, %function
  26              	Power_Handler:
  27              	.LFB72:
  28              		.file 1 "main.c"
   1:main.c        **** /*******************************************************************************
   2:main.c        **** * File Name: main.c
   3:main.c        **** *
   4:main.c        **** * Version: 1.00
   5:main.c        **** *
   6:main.c        **** * Description:
   7:main.c        **** *  This is the source code for the Interrupts example project of the Interrupt
   8:main.c        **** *  and cy_boot components.
   9:main.c        **** *
  10:main.c        **** ********************************************************************************
  11:main.c        **** * Copyright 2015, Cypress Semiconductor Corporation. All rights reserved.
  12:main.c        **** * This software is owned by Cypress Semiconductor Corporation and is protected
  13:main.c        **** * by and subject to worldwide patent and copyright laws and treaties.
  14:main.c        **** * Therefore, you may use this software only as provided in the license agreement
  15:main.c        **** * accompanying the software package from which you obtained this software.
  16:main.c        **** * CYPRESS AND ITS SUPPLIERS MAKE NO WARRANTY OF ANY KIND, EXPRESS OR IMPLIED,
  17:main.c        **** * WITH REGARD TO THIS SOFTWARE, INCLUDING, BUT NOT LIMITED TO, NONINFRINGEMENT,
  18:main.c        **** * IMPLIED WARRANTIES OF MERCHANTABILITY AND FITNESS FOR A PARTICULAR PURPOSE.
  19:main.c        **** *******************************************************************************/
  20:main.c        **** 
  21:main.c        **** #include <project.h>
  22:main.c        **** 
  23:main.c        **** #if defined (__GNUC__)
  24:main.c        ****     /* Add an explicit reference to the floating point printf library */
  25:main.c        ****     /* to allow usage of the floating point conversion specifiers. */
  26:main.c        ****     /* This is not linked in by default with the newlib-nano library. */
  27:main.c        ****     asm (".global _printf_float");
  28:main.c        **** #endif
  29:main.c        **** #define USBFS_DEVICE    (0u)
ARM GAS  C:\Users\LUKASC~1\AppData\Local\Temp\cckvmXWF.s 			page 2


  30:main.c        **** /* The buffer size is equal to the maximum packet size of the IN and OUT bulk
  31:main.c        **** * endpoints.
  32:main.c        **** */
  33:main.c        **** #define USBUART_BUFFER_SIZE (64u)
  34:main.c        **** #define LINE_STR_LENGTH     (20u)
  35:main.c        **** 
  36:main.c        **** char8* parity[] = {"None", "Odd", "Even", "Mark", "Space"};
  37:main.c        **** char8* stop[]   = {"1", "1.5", "2"};
  38:main.c        **** 
  39:main.c        **** /* priorities */
  40:main.c        **** #define LOWER_PRIORITY                      (4u)
  41:main.c        **** #define DEFAULT_PRIORITY                    (3u)
  42:main.c        **** #define HIGHER_PRIORITY                     (2u)
  43:main.c        **** /* constants */
  44:main.c        **** #define SW_DELAY                            10u
  45:main.c        **** #define NESTED_ERROR                        (1u)
  46:main.c        **** 
  47:main.c        **** 
  48:main.c        **** /* Interrupt prototypes */
  49:main.c        **** CY_ISR_PROTO(NestedErrorHandler);
  50:main.c        **** CY_ISR_PROTO(Input_2_Handler);
  51:main.c        **** CY_ISR_PROTO(Power_Handler);
  52:main.c        **** CY_ISR_PROTO(Input_1_Handler);
  53:main.c        **** CY_ISR_PROTO(Right_Handler);
  54:main.c        **** CY_ISR_PROTO(Down_Handler);
  55:main.c        **** CY_ISR_PROTO(Up_Handler);
  56:main.c        **** CY_ISR_PROTO(Left_Handler);
  57:main.c        **** CY_ISR_PROTO(Mute_Handler);
  58:main.c        **** CY_ISR_PROTO(E_Handler);
  59:main.c        **** CY_ISR_PROTO(Button_Timer_Handler);
  60:main.c        **** int protection_clear();
  61:main.c        **** int protection_set();
  62:main.c        **** int volume_zero();
  63:main.c        **** int set_volume(uint8 vol);
  64:main.c        **** int change_volume(int change);
  65:main.c        **** int set_input(uint8 input);
  66:main.c        **** 
  67:main.c        **** /* Variables */
  68:main.c        **** uint8_t globalstate = 2;
  69:main.c        **** uint8_t input = 0b00000001;
  70:main.c        **** uint8_t muted = 0;
  71:main.c        **** 
  72:main.c        **** /* Functions */
  73:main.c        **** int main()
  74:main.c        **** {
  75:main.c        ****     /* USB init */
  76:main.c        ****     uint16 count;
  77:main.c        ****     uint8 buffer[USBUART_BUFFER_SIZE];
  78:main.c        ****     /* Set initial state for Volume */
  79:main.c        ****     Volume_1_Write(0u);
  80:main.c        ****     Volume_2_Write(0u);
  81:main.c        ****     Volume_ADC_Start();
  82:main.c        ****     Volume_ADC_StartConvert();
  83:main.c        ****     /* Set initial state for Protection */
  84:main.c        ****     Protection_CLK_Write(0u);
  85:main.c        ****     Protection_CLR_Write(1u);
  86:main.c        ****     Protection_IN_Write(0u);
ARM GAS  C:\Users\LUKASC~1\AppData\Local\Temp\cckvmXWF.s 			page 3


  87:main.c        ****     /* Set initial state for Input selection */
  88:main.c        ****     set_input(input);
  89:main.c        ****     /* Set initial state for LEDs */
  90:main.c        ****     Power_LED_Write(1u);
  91:main.c        ****     D1_LED_Write(1u);
  92:main.c        ****     D2_LED_Write(1u);
  93:main.c        ****     D3_LED_Write(1u);
  94:main.c        ****     U1_LED_Write(1u);
  95:main.c        ****     U2_LED_Write(1u);
  96:main.c        ****     U3_LED_Write(1u);
  97:main.c        ****     U4_LED_Write(1u);
  98:main.c        ****     U5_LED_Write(1u);
  99:main.c        ****     U6_LED_Write(1u);
 100:main.c        ****     U7_LED_Write(1u);
 101:main.c        ****     U8_LED_Write(1u);
 102:main.c        ****     CyDelay(500);
 103:main.c        ****     Power_LED_Write(0u);
 104:main.c        ****     D1_LED_Write(0u);
 105:main.c        ****     D2_LED_Write(0u);
 106:main.c        ****     D3_LED_Write(0u);
 107:main.c        ****     U1_LED_Write(0u);
 108:main.c        ****     U2_LED_Write(0u);
 109:main.c        ****     U3_LED_Write(0u);
 110:main.c        ****     U4_LED_Write(0u);
 111:main.c        ****     U5_LED_Write(0u);
 112:main.c        ****     U6_LED_Write(0u);
 113:main.c        ****     U7_LED_Write(0u);
 114:main.c        ****     U8_LED_Write(0u);
 115:main.c        **** 
 116:main.c        **** 
 117:main.c        ****     /* Sets up the GPIO interrupt and enables it */
 118:main.c        ****     Button_Timer_Start();
 119:main.c        ****     Button_Timer_Interrupt_StartEx(Button_Timer_Handler);
 120:main.c        ****     i_Input_2_StartEx(Input_2_Handler);
 121:main.c        ****     i_Power_StartEx(Power_Handler);
 122:main.c        ****     i_Input_1_StartEx(Input_1_Handler);
 123:main.c        ****     i_Right_StartEx(Right_Handler);
 124:main.c        ****     i_Down_StartEx(Down_Handler);
 125:main.c        ****     i_Up_StartEx(Up_Handler);
 126:main.c        ****     i_Left_StartEx(Left_Handler);
 127:main.c        ****     i_Mute_StartEx(Mute_Handler);
 128:main.c        ****     i_Enter_StartEx(E_Handler);
 129:main.c        **** 
 130:main.c        ****     /* Sets up the nested interrupt, sets priority and enables it */
 131:main.c        ****     //CyIntSetVector(NESTED_ERROR,NestedErrorHandler);
 132:main.c        ****     //CyIntSetPriority(NESTED_ERROR,LOWER_PRIORITY);
 133:main.c        ****     //CyIntEnable(NESTED_ERROR);
 134:main.c        ****     /* Changes initial priority for the GPIO interrupt */
 135:main.c        ****     Button_Timer_Interrupt_SetPriority(LOWER_PRIORITY);
 136:main.c        ****     i_Input_2_SetPriority(DEFAULT_PRIORITY);
 137:main.c        ****     i_Power_SetPriority(DEFAULT_PRIORITY);
 138:main.c        ****     i_Input_1_SetPriority(DEFAULT_PRIORITY);
 139:main.c        ****     i_Right_SetPriority(DEFAULT_PRIORITY);
 140:main.c        ****     i_Down_SetPriority(DEFAULT_PRIORITY);
 141:main.c        ****     i_Up_SetPriority(DEFAULT_PRIORITY);
 142:main.c        ****     i_Left_SetPriority(DEFAULT_PRIORITY);
 143:main.c        ****     i_Mute_SetPriority(DEFAULT_PRIORITY);
ARM GAS  C:\Users\LUKASC~1\AppData\Local\Temp\cckvmXWF.s 			page 4


 144:main.c        ****     i_Enter_SetPriority(DEFAULT_PRIORITY);
 145:main.c        **** 
 146:main.c        ****     /* Enable global interrupts */
 147:main.c        ****     CyGlobalIntEnable;
 148:main.c        ****     
 149:main.c        ****     USBUART_Start(USBFS_DEVICE, USBUART_5V_OPERATION);
 150:main.c        **** 
 151:main.c        ****     for(;;)
 152:main.c        ****     {
 153:main.c        ****         switch(globalstate){
 154:main.c        ****             //Power OFF
 155:main.c        ****             case 0:
 156:main.c        ****                 
 157:main.c        ****                 break;
 158:main.c        ****             //Powering ON
 159:main.c        ****             case 1:
 160:main.c        ****                 Power_LED_Write(0u);
 161:main.c        ****                 //enable controls
 162:main.c        ****                 i_Input_2_Enable();
 163:main.c        ****                 i_Input_1_Enable();
 164:main.c        ****                 i_Right_Enable();
 165:main.c        ****                 i_Down_Enable();
 166:main.c        ****                 i_Up_Enable();
 167:main.c        ****                 i_Left_Enable();
 168:main.c        ****                 i_Mute_Enable();
 169:main.c        ****                 i_Enter_Enable();
 170:main.c        ****                 //enable modules
 171:main.c        ****                 protection_set();
 172:main.c        ****                 //enable input
 173:main.c        ****                 set_input(input);
 174:main.c        ****                 //switch to ON state
 175:main.c        ****                 globalstate=3;
 176:main.c        ****                 break;
 177:main.c        ****             //Powering OFF
 178:main.c        ****             case 2:
 179:main.c        ****                 Power_LED_Write(1u);
 180:main.c        ****                 //disable inputs
 181:main.c        ****                 muted=0;
 182:main.c        ****                 set_input(0u);
 183:main.c        ****                 //disable modules
 184:main.c        ****                 protection_clear();
 185:main.c        ****                 //disable controls
 186:main.c        ****                 i_Input_2_Disable();
 187:main.c        ****                 i_Input_1_Disable();
 188:main.c        ****                 i_Right_Disable();
 189:main.c        ****                 i_Down_Disable();
 190:main.c        ****                 i_Up_Disable();
 191:main.c        ****                 i_Left_Disable();
 192:main.c        ****                 i_Mute_Disable();
 193:main.c        ****                 i_Enter_Disable();
 194:main.c        ****                 //switch to Power OFF state
 195:main.c        ****                 globalstate=0;
 196:main.c        ****                 break;
 197:main.c        ****             //ON
 198:main.c        ****             case 3:
 199:main.c        ****                 /* Host can send double SET_INTERFACE request. */
 200:main.c        ****                 if (0u != USBUART_IsConfigurationChanged())
ARM GAS  C:\Users\LUKASC~1\AppData\Local\Temp\cckvmXWF.s 			page 5


 201:main.c        ****                 {
 202:main.c        ****                     /* Initialize IN endpoints when device is configured. */
 203:main.c        ****                     if (0u != USBUART_GetConfiguration())
 204:main.c        ****                     {
 205:main.c        ****                         /* Enumeration is done, enable OUT endpoint to receive data 
 206:main.c        ****                          * from host. */
 207:main.c        ****                         USBUART_CDC_Init();
 208:main.c        ****                     }
 209:main.c        ****                 }
 210:main.c        **** 
 211:main.c        ****                 /* Service USB CDC when device is configured. */
 212:main.c        ****                 if (0u != USBUART_GetConfiguration())
 213:main.c        ****                 {
 214:main.c        ****                     /* Check for input data from host. */
 215:main.c        ****                     if (0u != USBUART_DataIsReady())
 216:main.c        ****                     {
 217:main.c        ****                         /* Read received data and re-enable OUT endpoint. */
 218:main.c        ****                         count = USBUART_GetAll(buffer);
 219:main.c        **** 
 220:main.c        ****                         if (0u != count)
 221:main.c        ****                         {
 222:main.c        ****                             /* Wait until component is ready to send data to host. */
 223:main.c        ****                             while (0u == USBUART_CDCIsReady())
 224:main.c        ****                             {
 225:main.c        ****                             }
 226:main.c        **** 
 227:main.c        ****                             /* Send data back to host. */
 228:main.c        ****                             
 229:main.c        ****                             USBUART_PutData(buffer, count);
 230:main.c        **** 
 231:main.c        ****                             /* If the last sent packet is exactly the maximum packet 
 232:main.c        ****                             *  size, it is followed by a zero-length packet to assure
 233:main.c        ****                             *  that the end of the segment is properly identified by 
 234:main.c        ****                             *  the terminal.
 235:main.c        ****                             */
 236:main.c        ****                             if (USBUART_BUFFER_SIZE == count)
 237:main.c        ****                             {
 238:main.c        ****                                 /* Wait until component is ready to send data to PC. */
 239:main.c        ****                                 while (0u == USBUART_CDCIsReady())
 240:main.c        ****                                 {
 241:main.c        ****                                 }
 242:main.c        **** 
 243:main.c        ****                                 /* Send zero-length packet to PC. */
 244:main.c        ****                                 USBUART_PutData(NULL, 0u);
 245:main.c        ****                             }
 246:main.c        ****                         }
 247:main.c        ****                     }
 248:main.c        ****                 }
 249:main.c        ****                 break;
 250:main.c        ****             //Other cases -> use 255 to trigger ERROR
 251:main.c        ****             default:
 252:main.c        ****                 //ERROR Case
 253:main.c        ****                 //Shut everything down
 254:main.c        ****                 protection_clear();
 255:main.c        ****                 muted=0;
 256:main.c        ****                 set_input(0u);
 257:main.c        ****                 
ARM GAS  C:\Users\LUKASC~1\AppData\Local\Temp\cckvmXWF.s 			page 6


 258:main.c        ****                 //Blink Power_LED
 259:main.c        ****                 while(1){
 260:main.c        ****                     Power_LED_Write(!Power_LED_Read());
 261:main.c        ****                     CyDelay(100);
 262:main.c        ****                 }
 263:main.c        ****                 break;
 264:main.c        ****         }
 265:main.c        ****     }
 266:main.c        **** }
 267:main.c        **** 
 268:main.c        **** /* helper functions */
 269:main.c        **** int protection_clear()
 270:main.c        **** {
 271:main.c        ****     Protection_CLR_Write(0u);
 272:main.c        ****     Protection_IN_Write(0u);
 273:main.c        ****     Protection_CLK_Write(0u);
 274:main.c        ****     return 0;
 275:main.c        **** }
 276:main.c        **** 
 277:main.c        **** int protection_set()
 278:main.c        **** {
 279:main.c        ****     Protection_CLK_Write(0u);
 280:main.c        ****     Protection_CLR_Write(1u);
 281:main.c        ****     Protection_IN_Write(1u);
 282:main.c        ****     //Enable amplifiers
 283:main.c        ****     Protection_CLK_Write(1u);
 284:main.c        ****     CyDelay(1);
 285:main.c        ****     Protection_CLK_Write(0u);
 286:main.c        ****     CyDelay(1);
 287:main.c        ****     //ca. 700ms for trafo soft start!
 288:main.c        ****     //Enable DSP
 289:main.c        ****     Protection_CLK_Write(1u);
 290:main.c        ****     CyDelay(1);
 291:main.c        ****     Protection_CLK_Write(0u);
 292:main.c        ****     CyDelay(1);
 293:main.c        ****     //wait for DSP and amps to start
 294:main.c        ****     CyDelay(2000);
 295:main.c        ****     //connect speakers
 296:main.c        ****     int i;
 297:main.c        ****     for(i=0;i<6;i++)
 298:main.c        ****     {
 299:main.c        ****         Protection_CLK_Write(1u);
 300:main.c        ****         CyDelay(1);
 301:main.c        ****         Protection_CLK_Write(0u);
 302:main.c        ****         CyDelay(1);
 303:main.c        ****     }
 304:main.c        ****     return 0;
 305:main.c        **** }
 306:main.c        **** 
 307:main.c        **** /* reset volume */
 308:main.c        **** int volume_zero()
 309:main.c        **** {
 310:main.c        ****     Volume_1_Write(1u);
 311:main.c        ****     CyDelay(200);
 312:main.c        ****     uint16 endvalue=0;
 313:main.c        ****     while(endvalue<1943)
 314:main.c        ****     {
ARM GAS  C:\Users\LUKASC~1\AppData\Local\Temp\cckvmXWF.s 			page 7


 315:main.c        ****         endvalue=(Volume_ADC_GetResult16() + Volume_ADC_GetResult16())/2;
 316:main.c        ****         CyDelay(5);
 317:main.c        ****     }
 318:main.c        ****     Volume_1_Write(0u);
 319:main.c        ****     return 0;
 320:main.c        **** }
 321:main.c        **** 
 322:main.c        **** /* set volume in percent */
 323:main.c        **** int set_volume(uint8 vol)
 324:main.c        **** {
 325:main.c        ****     //16 sec for a 100% turn
 326:main.c        ****     if(vol > 100)
 327:main.c        ****     {
 328:main.c        ****         globalstate=255;
 329:main.c        ****         return 1;
 330:main.c        ****     }
 331:main.c        ****     volume_zero();
 332:main.c        ****     Volume_2_Write(1u);
 333:main.c        ****     CyDelay(vol*160);
 334:main.c        ****     Volume_2_Write(0u);
 335:main.c        ****     return 0;
 336:main.c        **** }
 337:main.c        **** 
 338:main.c        **** /* changes the volume relativ to position in percent */
 339:main.c        **** int change_volume(int change)
 340:main.c        **** {
 341:main.c        ****     //16 sec for a 100% turn
 342:main.c        ****     if(change > 100 || change < -100 || change == 0)
 343:main.c        ****     {
 344:main.c        ****         globalstate=255;
 345:main.c        ****         return 1;
 346:main.c        ****     }
 347:main.c        ****     if(change > 0)
 348:main.c        ****     {
 349:main.c        ****         Volume_2_Write(1u);
 350:main.c        ****         CyDelay(change*160);
 351:main.c        ****         Volume_2_Write(0u);
 352:main.c        ****     }
 353:main.c        ****     else
 354:main.c        ****     {
 355:main.c        ****         Volume_1_Write(1u);
 356:main.c        ****         CyDelay(change*160);
 357:main.c        ****         Volume_1_Write(0u);
 358:main.c        ****     }
 359:main.c        ****     
 360:main.c        ****     return 0;
 361:main.c        **** }
 362:main.c        **** 
 363:main.c        **** /* gets volume */
 364:main.c        **** int get_volume()
 365:main.c        **** {
 366:main.c        ****     uint16 value;
 367:main.c        ****     Volume_Timer_Start();
 368:main.c        ****     Volume_Timer_WriteCounter(0x270F);
 369:main.c        ****     volume_zero();
 370:main.c        ****     value = Volume_Timer_ReadCounter();
 371:main.c        ****     Volume_Timer_Stop();
ARM GAS  C:\Users\LUKASC~1\AppData\Local\Temp\cckvmXWF.s 			page 8


 372:main.c        ****     if(value==0x270F) return 100; //timer was 0 and has been reset
 373:main.c        ****     else value = (10000 - (value+1)) / 100;
 374:main.c        ****     return value;
 375:main.c        **** }
 376:main.c        **** 
 377:main.c        **** int set_input(uint8 input)
 378:main.c        **** {
 379:main.c        ****     //error for undefined inputs or more than one input set
 380:main.c        ****     if(0)//input && !(input & (input-1)))
 381:main.c        ****     {
 382:main.c        ****         //trigger errorstate
 383:main.c        ****         globalstate=255;
 384:main.c        ****         return 1; //ERROR
 385:main.c        ****     }
 386:main.c        ****     //otherwise set inputs
 387:main.c        ****     else
 388:main.c        ****     {
 389:main.c        ****         if(muted)
 390:main.c        ****         {
 391:main.c        ****             Input_Relais_0_Write(0u);
 392:main.c        ****             Input_Relais_1_Write(0u);
 393:main.c        ****             Input_Relais_2_Write(0u);
 394:main.c        ****             Input_Relais_3_Write(0u);
 395:main.c        ****             Input_Relais_4_Write(0u);
 396:main.c        ****             Input_Relais_5_Write(0u);
 397:main.c        ****             Input_Relais_6_Write(0u);
 398:main.c        ****             Input_Relais_7_Write(0u);
 399:main.c        ****         }
 400:main.c        ****         else
 401:main.c        ****         {
 402:main.c        ****             Input_Relais_0_Write(input & 0b00000001);
 403:main.c        ****             Input_Relais_1_Write((input & 0b00000010) >> 1);
 404:main.c        ****             Input_Relais_2_Write((input & 0b00000100) >> 2);
 405:main.c        ****             Input_Relais_3_Write((input & 0b00001000) >> 3);
 406:main.c        ****             Input_Relais_4_Write((input & 0b00010000) >> 4);
 407:main.c        ****             Input_Relais_5_Write((input & 0b00100000) >> 5);
 408:main.c        ****             Input_Relais_6_Write((input & 0b01000000) >> 6);
 409:main.c        ****             Input_Relais_7_Write((input & 0b10000000) >> 7);
 410:main.c        ****         }
 411:main.c        ****         //LEDs
 412:main.c        ****         U1_LED_Write(input & 0b00000001);
 413:main.c        ****         U2_LED_Write((input & 0b00000010) >> 1);
 414:main.c        ****         U3_LED_Write((input & 0b00000100) >> 2);
 415:main.c        ****         U4_LED_Write((input & 0b00001000) >> 3);
 416:main.c        ****         U5_LED_Write((input & 0b00010000) >> 4);
 417:main.c        ****         U6_LED_Write((input & 0b00100000) >> 5);
 418:main.c        ****         U7_LED_Write((input & 0b01000000) >> 6);
 419:main.c        ****         U8_LED_Write((input & 0b10000000) >> 7);
 420:main.c        ****         D1_LED_Write(muted);
 421:main.c        ****         return 0; //SUCCESS
 422:main.c        ****     }
 423:main.c        **** }
 424:main.c        **** 
 425:main.c        **** /* button interrupt handler */
 426:main.c        **** CY_ISR(Input_2_Handler)
 427:main.c        **** {
 428:main.c        ****     i_Input_2_Disable();
ARM GAS  C:\Users\LUKASC~1\AppData\Local\Temp\cckvmXWF.s 			page 9


 429:main.c        ****     if(Input_2_SW_Read())
 430:main.c        ****     {
 431:main.c        ****         if(input < 0b10000000) input = input << 1;
 432:main.c        ****         else input = 0b00000001;
 433:main.c        ****         set_input(input);
 434:main.c        ****         USBUART_PutChar('j');
 435:main.c        ****     }
 436:main.c        ****     //wait for button no longer pressed
 437:main.c        ****     while(Input_2_SW_Read()){
 438:main.c        ****         CyDelay(SW_DELAY);
 439:main.c        ****     } 
 440:main.c        ****     
 441:main.c        ****     /* Clear pending Interrupt */
 442:main.c        ****     Button_Timer_Start();
 443:main.c        **** }
 444:main.c        **** CY_ISR(Power_Handler)
 445:main.c        **** {
  29              		.loc 1 445 0
  30              		.cfi_startproc
  31              		@ args = 0, pretend = 0, frame = 0
  32              		@ frame_needed = 0, uses_anonymous_args = 0
  33 0000 08B5     		push	{r3, lr}
  34              		.cfi_def_cfa_offset 8
  35              		.cfi_offset 3, -8
  36              		.cfi_offset 14, -4
 446:main.c        ****     i_Power_Disable();
  37              		.loc 1 446 0
  38 0002 FFF7FEFF 		bl	i_Power_Disable
  39              	.LVL0:
 447:main.c        ****     if(Power_SW_Read())
  40              		.loc 1 447 0
  41 0006 FFF7FEFF 		bl	Power_SW_Read
  42              	.LVL1:
  43 000a 68B1     		cbz	r0, .L4
 448:main.c        ****     {
 449:main.c        ****         //->powering on
 450:main.c        ****         if(globalstate==0) globalstate=1;
  44              		.loc 1 450 0
  45 000c 0B4B     		ldr	r3, .L7
  46 000e 1B78     		ldrb	r3, [r3]	@ zero_extendqisi2
  47 0010 1BB9     		cbnz	r3, .L3
  48              		.loc 1 450 0 is_stmt 0 discriminator 1
  49 0012 0122     		movs	r2, #1
  50 0014 094B     		ldr	r3, .L7
  51 0016 1A70     		strb	r2, [r3]
  52 0018 06E0     		b	.L4
  53              	.L3:
 451:main.c        ****         //->powering off
 452:main.c        ****         else globalstate=2;
  54              		.loc 1 452 0 is_stmt 1
  55 001a 0222     		movs	r2, #2
  56 001c 074B     		ldr	r3, .L7
  57 001e 1A70     		strb	r2, [r3]
  58 0020 02E0     		b	.L4
  59              	.L5:
 453:main.c        ****     }
 454:main.c        ****     //wait for button no longer pressed
ARM GAS  C:\Users\LUKASC~1\AppData\Local\Temp\cckvmXWF.s 			page 10


 455:main.c        ****     while(Power_SW_Read()){
 456:main.c        ****         CyDelay(SW_DELAY);
  60              		.loc 1 456 0
  61 0022 0A20     		movs	r0, #10
  62 0024 FFF7FEFF 		bl	CyDelay
  63              	.LVL2:
  64              	.L4:
 455:main.c        ****         CyDelay(SW_DELAY);
  65              		.loc 1 455 0
  66 0028 FFF7FEFF 		bl	Power_SW_Read
  67              	.LVL3:
  68 002c 0028     		cmp	r0, #0
  69 002e F8D1     		bne	.L5
 457:main.c        ****     }        
 458:main.c        ****     /* Clear pending Interrupt */
 459:main.c        ****     i_Power_ClearPending();
  70              		.loc 1 459 0
  71 0030 FFF7FEFF 		bl	i_Power_ClearPending
  72              	.LVL4:
 460:main.c        ****     i_Power_Enable();
  73              		.loc 1 460 0
  74 0034 FFF7FEFF 		bl	i_Power_Enable
  75              	.LVL5:
  76 0038 08BD     		pop	{r3, pc}
  77              	.L8:
  78 003a 00BF     		.align	2
  79              	.L7:
  80 003c 00000000 		.word	.LANCHOR0
  81              		.cfi_endproc
  82              	.LFE72:
  83              		.size	Power_Handler, .-Power_Handler
  84              		.section	.text.Right_Handler,"ax",%progbits
  85              		.align	2
  86              		.global	Right_Handler
  87              		.thumb
  88              		.thumb_func
  89              		.type	Right_Handler, %function
  90              	Right_Handler:
  91              	.LFB74:
 461:main.c        **** }
 462:main.c        **** CY_ISR(Input_1_Handler)
 463:main.c        **** {
 464:main.c        ****     i_Input_1_Disable();
 465:main.c        ****     if(Input_1_SW_Read())
 466:main.c        ****     {
 467:main.c        ****         if(input > 0b00000001) input = input >> 1;
 468:main.c        ****         else input = 0b10000000;
 469:main.c        ****         set_input(input);
 470:main.c        ****         USBUART_PutChar('i');
 471:main.c        ****     }
 472:main.c        ****     //wait for button no longer pressed
 473:main.c        ****     while(Input_1_SW_Read()){
 474:main.c        ****         CyDelay(SW_DELAY);
 475:main.c        ****     } 
 476:main.c        ****     /* Clear pending Interrupt */
 477:main.c        ****     Button_Timer_Start();
 478:main.c        **** }
ARM GAS  C:\Users\LUKASC~1\AppData\Local\Temp\cckvmXWF.s 			page 11


 479:main.c        **** CY_ISR(Right_Handler)
 480:main.c        **** {
  92              		.loc 1 480 0
  93              		.cfi_startproc
  94              		@ args = 0, pretend = 0, frame = 0
  95              		@ frame_needed = 0, uses_anonymous_args = 0
  96 0000 08B5     		push	{r3, lr}
  97              		.cfi_def_cfa_offset 8
  98              		.cfi_offset 3, -8
  99              		.cfi_offset 14, -4
 481:main.c        ****     i_Right_Disable();
 100              		.loc 1 481 0
 101 0002 FFF7FEFF 		bl	i_Right_Disable
 102              	.LVL6:
 482:main.c        ****     if(Right_SW_Read())
 103              		.loc 1 482 0
 104 0006 FFF7FEFF 		bl	Right_SW_Read
 105              	.LVL7:
 106 000a 30B1     		cbz	r0, .L11
 483:main.c        ****     {
 484:main.c        ****         USBUART_PutChar('r');
 107              		.loc 1 484 0
 108 000c 7220     		movs	r0, #114
 109 000e FFF7FEFF 		bl	USBUART_PutChar
 110              	.LVL8:
 111 0012 02E0     		b	.L11
 112              	.L12:
 485:main.c        ****     }
 486:main.c        ****     //wait for button no longer pressed
 487:main.c        ****     while(Right_SW_Read()){
 488:main.c        ****         CyDelay(SW_DELAY);
 113              		.loc 1 488 0
 114 0014 0A20     		movs	r0, #10
 115 0016 FFF7FEFF 		bl	CyDelay
 116              	.LVL9:
 117              	.L11:
 487:main.c        ****         CyDelay(SW_DELAY);
 118              		.loc 1 487 0
 119 001a FFF7FEFF 		bl	Right_SW_Read
 120              	.LVL10:
 121 001e 0028     		cmp	r0, #0
 122 0020 F8D1     		bne	.L12
 489:main.c        ****     }     
 490:main.c        ****     /* Clear pending Interrupt */
 491:main.c        ****     Button_Timer_Start();
 123              		.loc 1 491 0
 124 0022 FFF7FEFF 		bl	Button_Timer_Start
 125              	.LVL11:
 126 0026 08BD     		pop	{r3, pc}
 127              		.cfi_endproc
 128              	.LFE74:
 129              		.size	Right_Handler, .-Right_Handler
 130              		.section	.text.Down_Handler,"ax",%progbits
 131              		.align	2
 132              		.global	Down_Handler
 133              		.thumb
 134              		.thumb_func
ARM GAS  C:\Users\LUKASC~1\AppData\Local\Temp\cckvmXWF.s 			page 12


 135              		.type	Down_Handler, %function
 136              	Down_Handler:
 137              	.LFB75:
 492:main.c        **** }
 493:main.c        **** CY_ISR(Down_Handler)
 494:main.c        **** {
 138              		.loc 1 494 0
 139              		.cfi_startproc
 140              		@ args = 0, pretend = 0, frame = 0
 141              		@ frame_needed = 0, uses_anonymous_args = 0
 142 0000 08B5     		push	{r3, lr}
 143              		.cfi_def_cfa_offset 8
 144              		.cfi_offset 3, -8
 145              		.cfi_offset 14, -4
 495:main.c        ****     i_Down_Disable();
 146              		.loc 1 495 0
 147 0002 FFF7FEFF 		bl	i_Down_Disable
 148              	.LVL12:
 496:main.c        ****     if(Down_SW_Read())
 149              		.loc 1 496 0
 150 0006 FFF7FEFF 		bl	Down_SW_Read
 151              	.LVL13:
 152 000a 30B1     		cbz	r0, .L16
 497:main.c        ****     {
 498:main.c        ****         USBUART_PutChar('d');
 153              		.loc 1 498 0
 154 000c 6420     		movs	r0, #100
 155 000e FFF7FEFF 		bl	USBUART_PutChar
 156              	.LVL14:
 157 0012 02E0     		b	.L16
 158              	.L17:
 499:main.c        ****     }
 500:main.c        ****     //wait for button no longer pressed
 501:main.c        ****     while(Down_SW_Read()){
 502:main.c        ****         CyDelay(SW_DELAY);
 159              		.loc 1 502 0
 160 0014 0A20     		movs	r0, #10
 161 0016 FFF7FEFF 		bl	CyDelay
 162              	.LVL15:
 163              	.L16:
 501:main.c        ****         CyDelay(SW_DELAY);
 164              		.loc 1 501 0
 165 001a FFF7FEFF 		bl	Down_SW_Read
 166              	.LVL16:
 167 001e 0028     		cmp	r0, #0
 168 0020 F8D1     		bne	.L17
 503:main.c        ****     } 
 504:main.c        ****     /* Clear pending Interrupt */
 505:main.c        ****     Button_Timer_Start();
 169              		.loc 1 505 0
 170 0022 FFF7FEFF 		bl	Button_Timer_Start
 171              	.LVL17:
 172 0026 08BD     		pop	{r3, pc}
 173              		.cfi_endproc
 174              	.LFE75:
 175              		.size	Down_Handler, .-Down_Handler
 176              		.section	.text.Up_Handler,"ax",%progbits
ARM GAS  C:\Users\LUKASC~1\AppData\Local\Temp\cckvmXWF.s 			page 13


 177              		.align	2
 178              		.global	Up_Handler
 179              		.thumb
 180              		.thumb_func
 181              		.type	Up_Handler, %function
 182              	Up_Handler:
 183              	.LFB76:
 506:main.c        **** }
 507:main.c        **** CY_ISR(Up_Handler)
 508:main.c        **** {
 184              		.loc 1 508 0
 185              		.cfi_startproc
 186              		@ args = 0, pretend = 0, frame = 0
 187              		@ frame_needed = 0, uses_anonymous_args = 0
 188 0000 08B5     		push	{r3, lr}
 189              		.cfi_def_cfa_offset 8
 190              		.cfi_offset 3, -8
 191              		.cfi_offset 14, -4
 509:main.c        ****     i_Up_Disable();
 192              		.loc 1 509 0
 193 0002 FFF7FEFF 		bl	i_Up_Disable
 194              	.LVL18:
 510:main.c        ****     if(Up_SW_Read())
 195              		.loc 1 510 0
 196 0006 FFF7FEFF 		bl	Up_SW_Read
 197              	.LVL19:
 198 000a 30B1     		cbz	r0, .L21
 511:main.c        ****     {
 512:main.c        ****         USBUART_PutChar('u');
 199              		.loc 1 512 0
 200 000c 7520     		movs	r0, #117
 201 000e FFF7FEFF 		bl	USBUART_PutChar
 202              	.LVL20:
 203 0012 02E0     		b	.L21
 204              	.L22:
 513:main.c        ****     }
 514:main.c        ****     //wait for button no longer pressed
 515:main.c        ****     while(Up_SW_Read()){
 516:main.c        ****         CyDelay(SW_DELAY);
 205              		.loc 1 516 0
 206 0014 0A20     		movs	r0, #10
 207 0016 FFF7FEFF 		bl	CyDelay
 208              	.LVL21:
 209              	.L21:
 515:main.c        ****         CyDelay(SW_DELAY);
 210              		.loc 1 515 0
 211 001a FFF7FEFF 		bl	Up_SW_Read
 212              	.LVL22:
 213 001e 0028     		cmp	r0, #0
 214 0020 F8D1     		bne	.L22
 517:main.c        ****     } 
 518:main.c        ****     /* Clear pending Interrupt */
 519:main.c        ****     Button_Timer_Start();
 215              		.loc 1 519 0
 216 0022 FFF7FEFF 		bl	Button_Timer_Start
 217              	.LVL23:
 218 0026 08BD     		pop	{r3, pc}
ARM GAS  C:\Users\LUKASC~1\AppData\Local\Temp\cckvmXWF.s 			page 14


 219              		.cfi_endproc
 220              	.LFE76:
 221              		.size	Up_Handler, .-Up_Handler
 222              		.section	.text.Left_Handler,"ax",%progbits
 223              		.align	2
 224              		.global	Left_Handler
 225              		.thumb
 226              		.thumb_func
 227              		.type	Left_Handler, %function
 228              	Left_Handler:
 229              	.LFB77:
 520:main.c        **** }
 521:main.c        **** CY_ISR(Left_Handler)
 522:main.c        **** {
 230              		.loc 1 522 0
 231              		.cfi_startproc
 232              		@ args = 0, pretend = 0, frame = 0
 233              		@ frame_needed = 0, uses_anonymous_args = 0
 234 0000 08B5     		push	{r3, lr}
 235              		.cfi_def_cfa_offset 8
 236              		.cfi_offset 3, -8
 237              		.cfi_offset 14, -4
 523:main.c        ****     i_Left_Disable();
 238              		.loc 1 523 0
 239 0002 FFF7FEFF 		bl	i_Left_Disable
 240              	.LVL24:
 524:main.c        ****     if(Left_SW_Read())
 241              		.loc 1 524 0
 242 0006 FFF7FEFF 		bl	Left_SW_Read
 243              	.LVL25:
 244 000a 30B1     		cbz	r0, .L26
 525:main.c        ****     {
 526:main.c        ****         USBUART_PutChar('l');
 245              		.loc 1 526 0
 246 000c 6C20     		movs	r0, #108
 247 000e FFF7FEFF 		bl	USBUART_PutChar
 248              	.LVL26:
 249 0012 02E0     		b	.L26
 250              	.L27:
 527:main.c        ****     }
 528:main.c        ****     //wait for button no longer pressed
 529:main.c        ****     while(Left_SW_Read()){
 530:main.c        ****         CyDelay(SW_DELAY);
 251              		.loc 1 530 0
 252 0014 0A20     		movs	r0, #10
 253 0016 FFF7FEFF 		bl	CyDelay
 254              	.LVL27:
 255              	.L26:
 529:main.c        ****         CyDelay(SW_DELAY);
 256              		.loc 1 529 0
 257 001a FFF7FEFF 		bl	Left_SW_Read
 258              	.LVL28:
 259 001e 0028     		cmp	r0, #0
 260 0020 F8D1     		bne	.L27
 531:main.c        ****     } 
 532:main.c        ****     /* Clear pending Interrupt */
 533:main.c        ****     Button_Timer_Start();
ARM GAS  C:\Users\LUKASC~1\AppData\Local\Temp\cckvmXWF.s 			page 15


 261              		.loc 1 533 0
 262 0022 FFF7FEFF 		bl	Button_Timer_Start
 263              	.LVL29:
 264 0026 08BD     		pop	{r3, pc}
 265              		.cfi_endproc
 266              	.LFE77:
 267              		.size	Left_Handler, .-Left_Handler
 268              		.section	.text.E_Handler,"ax",%progbits
 269              		.align	2
 270              		.global	E_Handler
 271              		.thumb
 272              		.thumb_func
 273              		.type	E_Handler, %function
 274              	E_Handler:
 275              	.LFB79:
 534:main.c        **** }
 535:main.c        **** CY_ISR(Mute_Handler)
 536:main.c        **** {
 537:main.c        ****     i_Mute_Disable();
 538:main.c        ****     if(Mute_SW_Read())
 539:main.c        ****     {
 540:main.c        ****         if(muted) muted=0;
 541:main.c        ****         else muted=1;
 542:main.c        ****         set_input(input);
 543:main.c        ****         USBUART_PutChar('m');
 544:main.c        ****     }
 545:main.c        ****     //wait for button no longer pressed
 546:main.c        ****     while(Mute_SW_Read()){
 547:main.c        ****         CyDelay(SW_DELAY);
 548:main.c        ****     } 
 549:main.c        ****     /* Clear pending Interrupt */
 550:main.c        ****     Button_Timer_Start();
 551:main.c        **** }
 552:main.c        **** CY_ISR(E_Handler)
 553:main.c        **** {
 276              		.loc 1 553 0
 277              		.cfi_startproc
 278              		@ args = 0, pretend = 0, frame = 0
 279              		@ frame_needed = 0, uses_anonymous_args = 0
 280 0000 08B5     		push	{r3, lr}
 281              		.cfi_def_cfa_offset 8
 282              		.cfi_offset 3, -8
 283              		.cfi_offset 14, -4
 554:main.c        ****     i_Enter_Disable();
 284              		.loc 1 554 0
 285 0002 FFF7FEFF 		bl	i_Enter_Disable
 286              	.LVL30:
 555:main.c        ****     if(Enter_SW_Read())
 287              		.loc 1 555 0
 288 0006 FFF7FEFF 		bl	Enter_SW_Read
 289              	.LVL31:
 290 000a 30B1     		cbz	r0, .L31
 556:main.c        ****     {
 557:main.c        ****         USBUART_PutChar('e');
 291              		.loc 1 557 0
 292 000c 6520     		movs	r0, #101
 293 000e FFF7FEFF 		bl	USBUART_PutChar
ARM GAS  C:\Users\LUKASC~1\AppData\Local\Temp\cckvmXWF.s 			page 16


 294              	.LVL32:
 295 0012 02E0     		b	.L31
 296              	.L32:
 558:main.c        ****     }
 559:main.c        ****     //wait for button no longer pressed
 560:main.c        ****     while(Enter_SW_Read()){
 561:main.c        ****         CyDelay(SW_DELAY);
 297              		.loc 1 561 0
 298 0014 0A20     		movs	r0, #10
 299 0016 FFF7FEFF 		bl	CyDelay
 300              	.LVL33:
 301              	.L31:
 560:main.c        ****         CyDelay(SW_DELAY);
 302              		.loc 1 560 0
 303 001a FFF7FEFF 		bl	Enter_SW_Read
 304              	.LVL34:
 305 001e 0028     		cmp	r0, #0
 306 0020 F8D1     		bne	.L32
 562:main.c        ****     } 
 563:main.c        ****     /* Clear pending Interrupt */
 564:main.c        ****     Button_Timer_Start();
 307              		.loc 1 564 0
 308 0022 FFF7FEFF 		bl	Button_Timer_Start
 309              	.LVL35:
 310 0026 08BD     		pop	{r3, pc}
 311              		.cfi_endproc
 312              	.LFE79:
 313              		.size	E_Handler, .-E_Handler
 314              		.section	.text.Button_Timer_Handler,"ax",%progbits
 315              		.align	2
 316              		.global	Button_Timer_Handler
 317              		.thumb
 318              		.thumb_func
 319              		.type	Button_Timer_Handler, %function
 320              	Button_Timer_Handler:
 321              	.LFB80:
 565:main.c        **** }
 566:main.c        **** CY_ISR(Button_Timer_Handler)
 567:main.c        **** {
 322              		.loc 1 567 0
 323              		.cfi_startproc
 324              		@ args = 0, pretend = 0, frame = 0
 325              		@ frame_needed = 0, uses_anonymous_args = 0
 326 0000 08B5     		push	{r3, lr}
 327              		.cfi_def_cfa_offset 8
 328              		.cfi_offset 3, -8
 329              		.cfi_offset 14, -4
 568:main.c        ****     Button_Timer_Stop();
 330              		.loc 1 568 0
 331 0002 FFF7FEFF 		bl	Button_Timer_Stop
 332              	.LVL36:
 569:main.c        ****     
 570:main.c        ****     i_Input_2_ClearPending();
 333              		.loc 1 570 0
 334 0006 FFF7FEFF 		bl	i_Input_2_ClearPending
 335              	.LVL37:
 571:main.c        ****     i_Input_1_ClearPending();
ARM GAS  C:\Users\LUKASC~1\AppData\Local\Temp\cckvmXWF.s 			page 17


 336              		.loc 1 571 0
 337 000a FFF7FEFF 		bl	i_Input_1_ClearPending
 338              	.LVL38:
 572:main.c        ****     i_Right_ClearPending();
 339              		.loc 1 572 0
 340 000e FFF7FEFF 		bl	i_Right_ClearPending
 341              	.LVL39:
 573:main.c        ****     i_Down_ClearPending();
 342              		.loc 1 573 0
 343 0012 FFF7FEFF 		bl	i_Down_ClearPending
 344              	.LVL40:
 574:main.c        ****     i_Up_ClearPending();
 345              		.loc 1 574 0
 346 0016 FFF7FEFF 		bl	i_Up_ClearPending
 347              	.LVL41:
 575:main.c        ****     i_Left_ClearPending();
 348              		.loc 1 575 0
 349 001a FFF7FEFF 		bl	i_Left_ClearPending
 350              	.LVL42:
 576:main.c        ****     i_Mute_ClearPending();
 351              		.loc 1 576 0
 352 001e FFF7FEFF 		bl	i_Mute_ClearPending
 353              	.LVL43:
 577:main.c        ****     i_Enter_ClearPending();
 354              		.loc 1 577 0
 355 0022 FFF7FEFF 		bl	i_Enter_ClearPending
 356              	.LVL44:
 578:main.c        ****     
 579:main.c        ****     i_Input_2_Enable();
 357              		.loc 1 579 0
 358 0026 FFF7FEFF 		bl	i_Input_2_Enable
 359              	.LVL45:
 580:main.c        ****     i_Input_1_Enable();
 360              		.loc 1 580 0
 361 002a FFF7FEFF 		bl	i_Input_1_Enable
 362              	.LVL46:
 581:main.c        ****     i_Right_Enable();
 363              		.loc 1 581 0
 364 002e FFF7FEFF 		bl	i_Right_Enable
 365              	.LVL47:
 582:main.c        ****     i_Down_Enable();
 366              		.loc 1 582 0
 367 0032 FFF7FEFF 		bl	i_Down_Enable
 368              	.LVL48:
 583:main.c        ****     i_Up_Enable();
 369              		.loc 1 583 0
 370 0036 FFF7FEFF 		bl	i_Up_Enable
 371              	.LVL49:
 584:main.c        ****     i_Left_Enable();
 372              		.loc 1 584 0
 373 003a FFF7FEFF 		bl	i_Left_Enable
 374              	.LVL50:
 585:main.c        ****     i_Mute_Enable();
 375              		.loc 1 585 0
 376 003e FFF7FEFF 		bl	i_Mute_Enable
 377              	.LVL51:
 586:main.c        ****     i_Enter_Enable();
ARM GAS  C:\Users\LUKASC~1\AppData\Local\Temp\cckvmXWF.s 			page 18


 378              		.loc 1 586 0
 379 0042 FFF7FEFF 		bl	i_Enter_Enable
 380              	.LVL52:
 587:main.c        ****     
 588:main.c        ****     /* Clear pending Interrupt */
 589:main.c        ****     Button_Timer_Interrupt_ClearPending();
 381              		.loc 1 589 0
 382 0046 FFF7FEFF 		bl	Button_Timer_Interrupt_ClearPending
 383              	.LVL53:
 384 004a 08BD     		pop	{r3, pc}
 385              		.cfi_endproc
 386              	.LFE80:
 387              		.size	Button_Timer_Handler, .-Button_Timer_Handler
 388              		.section	.text.protection_clear,"ax",%progbits
 389              		.align	2
 390              		.global	protection_clear
 391              		.thumb
 392              		.thumb_func
 393              		.type	protection_clear, %function
 394              	protection_clear:
 395              	.LFB64:
 270:main.c        ****     Protection_CLR_Write(0u);
 396              		.loc 1 270 0
 397              		.cfi_startproc
 398              		@ args = 0, pretend = 0, frame = 0
 399              		@ frame_needed = 0, uses_anonymous_args = 0
 400 0000 08B5     		push	{r3, lr}
 401              		.cfi_def_cfa_offset 8
 402              		.cfi_offset 3, -8
 403              		.cfi_offset 14, -4
 271:main.c        ****     Protection_IN_Write(0u);
 404              		.loc 1 271 0
 405 0002 0020     		movs	r0, #0
 406 0004 FFF7FEFF 		bl	Protection_CLR_Write
 407              	.LVL54:
 272:main.c        ****     Protection_CLK_Write(0u);
 408              		.loc 1 272 0
 409 0008 0020     		movs	r0, #0
 410 000a FFF7FEFF 		bl	Protection_IN_Write
 411              	.LVL55:
 273:main.c        ****     return 0;
 412              		.loc 1 273 0
 413 000e 0020     		movs	r0, #0
 414 0010 FFF7FEFF 		bl	Protection_CLK_Write
 415              	.LVL56:
 275:main.c        **** 
 416              		.loc 1 275 0
 417 0014 0020     		movs	r0, #0
 418 0016 08BD     		pop	{r3, pc}
 419              		.cfi_endproc
 420              	.LFE64:
 421              		.size	protection_clear, .-protection_clear
 422              		.section	.text.protection_set,"ax",%progbits
 423              		.align	2
 424              		.global	protection_set
 425              		.thumb
 426              		.thumb_func
ARM GAS  C:\Users\LUKASC~1\AppData\Local\Temp\cckvmXWF.s 			page 19


 427              		.type	protection_set, %function
 428              	protection_set:
 429              	.LFB65:
 278:main.c        ****     Protection_CLK_Write(0u);
 430              		.loc 1 278 0
 431              		.cfi_startproc
 432              		@ args = 0, pretend = 0, frame = 0
 433              		@ frame_needed = 0, uses_anonymous_args = 0
 434 0000 10B5     		push	{r4, lr}
 435              		.cfi_def_cfa_offset 8
 436              		.cfi_offset 4, -8
 437              		.cfi_offset 14, -4
 279:main.c        ****     Protection_CLR_Write(1u);
 438              		.loc 1 279 0
 439 0002 0020     		movs	r0, #0
 440 0004 FFF7FEFF 		bl	Protection_CLK_Write
 441              	.LVL57:
 280:main.c        ****     Protection_IN_Write(1u);
 442              		.loc 1 280 0
 443 0008 0120     		movs	r0, #1
 444 000a FFF7FEFF 		bl	Protection_CLR_Write
 445              	.LVL58:
 281:main.c        ****     //Enable amplifiers
 446              		.loc 1 281 0
 447 000e 0120     		movs	r0, #1
 448 0010 FFF7FEFF 		bl	Protection_IN_Write
 449              	.LVL59:
 283:main.c        ****     CyDelay(1);
 450              		.loc 1 283 0
 451 0014 0120     		movs	r0, #1
 452 0016 FFF7FEFF 		bl	Protection_CLK_Write
 453              	.LVL60:
 284:main.c        ****     Protection_CLK_Write(0u);
 454              		.loc 1 284 0
 455 001a 0120     		movs	r0, #1
 456 001c FFF7FEFF 		bl	CyDelay
 457              	.LVL61:
 285:main.c        ****     CyDelay(1);
 458              		.loc 1 285 0
 459 0020 0020     		movs	r0, #0
 460 0022 FFF7FEFF 		bl	Protection_CLK_Write
 461              	.LVL62:
 286:main.c        ****     //ca. 700ms for trafo soft start!
 462              		.loc 1 286 0
 463 0026 0120     		movs	r0, #1
 464 0028 FFF7FEFF 		bl	CyDelay
 465              	.LVL63:
 289:main.c        ****     CyDelay(1);
 466              		.loc 1 289 0
 467 002c 0120     		movs	r0, #1
 468 002e FFF7FEFF 		bl	Protection_CLK_Write
 469              	.LVL64:
 290:main.c        ****     Protection_CLK_Write(0u);
 470              		.loc 1 290 0
 471 0032 0120     		movs	r0, #1
 472 0034 FFF7FEFF 		bl	CyDelay
 473              	.LVL65:
ARM GAS  C:\Users\LUKASC~1\AppData\Local\Temp\cckvmXWF.s 			page 20


 291:main.c        ****     CyDelay(1);
 474              		.loc 1 291 0
 475 0038 0020     		movs	r0, #0
 476 003a FFF7FEFF 		bl	Protection_CLK_Write
 477              	.LVL66:
 292:main.c        ****     //wait for DSP and amps to start
 478              		.loc 1 292 0
 479 003e 0120     		movs	r0, #1
 480 0040 FFF7FEFF 		bl	CyDelay
 481              	.LVL67:
 294:main.c        ****     //connect speakers
 482              		.loc 1 294 0
 483 0044 4FF4FA60 		mov	r0, #2000
 484 0048 FFF7FEFF 		bl	CyDelay
 485              	.LVL68:
 297:main.c        ****     {
 486              		.loc 1 297 0
 487 004c 0024     		movs	r4, #0
 488 004e 0CE0     		b	.L39
 489              	.LVL69:
 490              	.L40:
 299:main.c        ****         CyDelay(1);
 491              		.loc 1 299 0 discriminator 3
 492 0050 0120     		movs	r0, #1
 493 0052 FFF7FEFF 		bl	Protection_CLK_Write
 494              	.LVL70:
 300:main.c        ****         Protection_CLK_Write(0u);
 495              		.loc 1 300 0 discriminator 3
 496 0056 0120     		movs	r0, #1
 497 0058 FFF7FEFF 		bl	CyDelay
 498              	.LVL71:
 301:main.c        ****         CyDelay(1);
 499              		.loc 1 301 0 discriminator 3
 500 005c 0020     		movs	r0, #0
 501 005e FFF7FEFF 		bl	Protection_CLK_Write
 502              	.LVL72:
 302:main.c        ****     }
 503              		.loc 1 302 0 discriminator 3
 504 0062 0120     		movs	r0, #1
 505 0064 FFF7FEFF 		bl	CyDelay
 506              	.LVL73:
 297:main.c        ****     {
 507              		.loc 1 297 0 discriminator 3
 508 0068 0134     		adds	r4, r4, #1
 509              	.LVL74:
 510              	.L39:
 297:main.c        ****     {
 511              		.loc 1 297 0 is_stmt 0 discriminator 1
 512 006a 052C     		cmp	r4, #5
 513 006c F0DD     		ble	.L40
 305:main.c        **** 
 514              		.loc 1 305 0 is_stmt 1
 515 006e 0020     		movs	r0, #0
 516 0070 10BD     		pop	{r4, pc}
 517              		.cfi_endproc
 518              	.LFE65:
 519              		.size	protection_set, .-protection_set
ARM GAS  C:\Users\LUKASC~1\AppData\Local\Temp\cckvmXWF.s 			page 21


 520 0072 00BF     		.section	.text.volume_zero,"ax",%progbits
 521              		.align	2
 522              		.global	volume_zero
 523              		.thumb
 524              		.thumb_func
 525              		.type	volume_zero, %function
 526              	volume_zero:
 527              	.LFB66:
 309:main.c        ****     Volume_1_Write(1u);
 528              		.loc 1 309 0
 529              		.cfi_startproc
 530              		@ args = 0, pretend = 0, frame = 0
 531              		@ frame_needed = 0, uses_anonymous_args = 0
 532 0000 10B5     		push	{r4, lr}
 533              		.cfi_def_cfa_offset 8
 534              		.cfi_offset 4, -8
 535              		.cfi_offset 14, -4
 310:main.c        ****     CyDelay(200);
 536              		.loc 1 310 0
 537 0002 0120     		movs	r0, #1
 538 0004 FFF7FEFF 		bl	Volume_1_Write
 539              	.LVL75:
 311:main.c        ****     uint16 endvalue=0;
 540              		.loc 1 311 0
 541 0008 C820     		movs	r0, #200
 542 000a FFF7FEFF 		bl	CyDelay
 543              	.LVL76:
 312:main.c        ****     while(endvalue<1943)
 544              		.loc 1 312 0
 545 000e 0024     		movs	r4, #0
 313:main.c        ****     {
 546              		.loc 1 313 0
 547 0010 0CE0     		b	.L43
 548              	.LVL77:
 549              	.L44:
 315:main.c        ****         CyDelay(5);
 550              		.loc 1 315 0
 551 0012 FFF7FEFF 		bl	Volume_ADC_GetResult16
 552              	.LVL78:
 553 0016 0446     		mov	r4, r0
 554              	.LVL79:
 555 0018 FFF7FEFF 		bl	Volume_ADC_GetResult16
 556              	.LVL80:
 557 001c 2044     		add	r0, r0, r4
 558 001e 00EBD070 		add	r0, r0, r0, lsr #31
 559 0022 C0F34F04 		ubfx	r4, r0, #1, #16
 560              	.LVL81:
 316:main.c        ****     }
 561              		.loc 1 316 0
 562 0026 0520     		movs	r0, #5
 563 0028 FFF7FEFF 		bl	CyDelay
 564              	.LVL82:
 565              	.L43:
 313:main.c        ****     {
 566              		.loc 1 313 0
 567 002c 40F29673 		movw	r3, #1942
 568 0030 9C42     		cmp	r4, r3
ARM GAS  C:\Users\LUKASC~1\AppData\Local\Temp\cckvmXWF.s 			page 22


 569 0032 EED9     		bls	.L44
 318:main.c        ****     return 0;
 570              		.loc 1 318 0
 571 0034 0020     		movs	r0, #0
 572 0036 FFF7FEFF 		bl	Volume_1_Write
 573              	.LVL83:
 320:main.c        **** 
 574              		.loc 1 320 0
 575 003a 0020     		movs	r0, #0
 576 003c 10BD     		pop	{r4, pc}
 577              		.cfi_endproc
 578              	.LFE66:
 579              		.size	volume_zero, .-volume_zero
 580 003e 00BF     		.section	.text.set_volume,"ax",%progbits
 581              		.align	2
 582              		.global	set_volume
 583              		.thumb
 584              		.thumb_func
 585              		.type	set_volume, %function
 586              	set_volume:
 587              	.LFB67:
 324:main.c        ****     //16 sec for a 100% turn
 588              		.loc 1 324 0
 589              		.cfi_startproc
 590              		@ args = 0, pretend = 0, frame = 0
 591              		@ frame_needed = 0, uses_anonymous_args = 0
 592              	.LVL84:
 326:main.c        ****     {
 593              		.loc 1 326 0
 594 0000 6428     		cmp	r0, #100
 595 0002 04D9     		bls	.L47
 328:main.c        ****         return 1;
 596              		.loc 1 328 0
 597 0004 FF22     		movs	r2, #255
 598 0006 0A4B     		ldr	r3, .L50
 599 0008 1A70     		strb	r2, [r3]
 329:main.c        ****     }
 600              		.loc 1 329 0
 601 000a 0120     		movs	r0, #1
 602              	.LVL85:
 336:main.c        **** 
 603              		.loc 1 336 0
 604 000c 7047     		bx	lr
 605              	.LVL86:
 606              	.L47:
 324:main.c        ****     //16 sec for a 100% turn
 607              		.loc 1 324 0
 608 000e 10B5     		push	{r4, lr}
 609              		.cfi_def_cfa_offset 8
 610              		.cfi_offset 4, -8
 611              		.cfi_offset 14, -4
 612 0010 0446     		mov	r4, r0
 331:main.c        ****     Volume_2_Write(1u);
 613              		.loc 1 331 0
 614 0012 FFF7FEFF 		bl	volume_zero
 615              	.LVL87:
 332:main.c        ****     CyDelay(vol*160);
ARM GAS  C:\Users\LUKASC~1\AppData\Local\Temp\cckvmXWF.s 			page 23


 616              		.loc 1 332 0
 617 0016 0120     		movs	r0, #1
 618 0018 FFF7FEFF 		bl	Volume_2_Write
 619              	.LVL88:
 333:main.c        ****     Volume_2_Write(0u);
 620              		.loc 1 333 0
 621 001c 04EB8400 		add	r0, r4, r4, lsl #2
 622 0020 4001     		lsls	r0, r0, #5
 623 0022 FFF7FEFF 		bl	CyDelay
 624              	.LVL89:
 334:main.c        ****     return 0;
 625              		.loc 1 334 0
 626 0026 0020     		movs	r0, #0
 627 0028 FFF7FEFF 		bl	Volume_2_Write
 628              	.LVL90:
 335:main.c        **** }
 629              		.loc 1 335 0
 630 002c 0020     		movs	r0, #0
 336:main.c        **** 
 631              		.loc 1 336 0
 632 002e 10BD     		pop	{r4, pc}
 633              	.L51:
 634              		.align	2
 635              	.L50:
 636 0030 00000000 		.word	.LANCHOR0
 637              		.cfi_endproc
 638              	.LFE67:
 639              		.size	set_volume, .-set_volume
 640              		.section	.text.change_volume,"ax",%progbits
 641              		.align	2
 642              		.global	change_volume
 643              		.thumb
 644              		.thumb_func
 645              		.type	change_volume, %function
 646              	change_volume:
 647              	.LFB68:
 340:main.c        ****     //16 sec for a 100% turn
 648              		.loc 1 340 0
 649              		.cfi_startproc
 650              		@ args = 0, pretend = 0, frame = 0
 651              		@ frame_needed = 0, uses_anonymous_args = 0
 652              	.LVL91:
 342:main.c        ****     {
 653              		.loc 1 342 0
 654 0000 00F16403 		add	r3, r0, #100
 655 0004 C82B     		cmp	r3, #200
 656 0006 00D8     		bhi	.L53
 342:main.c        ****     {
 657              		.loc 1 342 0 is_stmt 0 discriminator 1
 658 0008 20B9     		cbnz	r0, .L54
 659              	.L53:
 344:main.c        ****         return 1;
 660              		.loc 1 344 0 is_stmt 1
 661 000a FF22     		movs	r2, #255
 662 000c 104B     		ldr	r3, .L58
 663 000e 1A70     		strb	r2, [r3]
 345:main.c        ****     }
ARM GAS  C:\Users\LUKASC~1\AppData\Local\Temp\cckvmXWF.s 			page 24


 664              		.loc 1 345 0
 665 0010 0120     		movs	r0, #1
 666              	.LVL92:
 361:main.c        **** 
 667              		.loc 1 361 0
 668 0012 7047     		bx	lr
 669              	.LVL93:
 670              	.L54:
 340:main.c        ****     //16 sec for a 100% turn
 671              		.loc 1 340 0
 672 0014 10B5     		push	{r4, lr}
 673              		.cfi_def_cfa_offset 8
 674              		.cfi_offset 4, -8
 675              		.cfi_offset 14, -4
 676 0016 0446     		mov	r4, r0
 347:main.c        ****     {
 677              		.loc 1 347 0
 678 0018 0028     		cmp	r0, #0
 679 001a 0CDD     		ble	.L56
 349:main.c        ****         CyDelay(change*160);
 680              		.loc 1 349 0
 681 001c 0120     		movs	r0, #1
 682              	.LVL94:
 683 001e FFF7FEFF 		bl	Volume_2_Write
 684              	.LVL95:
 350:main.c        ****         Volume_2_Write(0u);
 685              		.loc 1 350 0
 686 0022 04EB8400 		add	r0, r4, r4, lsl #2
 687 0026 4001     		lsls	r0, r0, #5
 688 0028 FFF7FEFF 		bl	CyDelay
 689              	.LVL96:
 351:main.c        ****     }
 690              		.loc 1 351 0
 691 002c 0020     		movs	r0, #0
 692 002e FFF7FEFF 		bl	Volume_2_Write
 693              	.LVL97:
 360:main.c        **** }
 694              		.loc 1 360 0
 695 0032 0020     		movs	r0, #0
 696 0034 10BD     		pop	{r4, pc}
 697              	.LVL98:
 698              	.L56:
 355:main.c        ****         CyDelay(change*160);
 699              		.loc 1 355 0
 700 0036 0120     		movs	r0, #1
 701              	.LVL99:
 702 0038 FFF7FEFF 		bl	Volume_1_Write
 703              	.LVL100:
 356:main.c        ****         Volume_1_Write(0u);
 704              		.loc 1 356 0
 705 003c 04EB8400 		add	r0, r4, r4, lsl #2
 706 0040 4001     		lsls	r0, r0, #5
 707 0042 FFF7FEFF 		bl	CyDelay
 708              	.LVL101:
 357:main.c        ****     }
 709              		.loc 1 357 0
 710 0046 0020     		movs	r0, #0
ARM GAS  C:\Users\LUKASC~1\AppData\Local\Temp\cckvmXWF.s 			page 25


 711 0048 FFF7FEFF 		bl	Volume_1_Write
 712              	.LVL102:
 360:main.c        **** }
 713              		.loc 1 360 0
 714 004c 0020     		movs	r0, #0
 361:main.c        **** 
 715              		.loc 1 361 0
 716 004e 10BD     		pop	{r4, pc}
 717              	.LVL103:
 718              	.L59:
 719              		.align	2
 720              	.L58:
 721 0050 00000000 		.word	.LANCHOR0
 722              		.cfi_endproc
 723              	.LFE68:
 724              		.size	change_volume, .-change_volume
 725              		.section	.text.get_volume,"ax",%progbits
 726              		.align	2
 727              		.global	get_volume
 728              		.thumb
 729              		.thumb_func
 730              		.type	get_volume, %function
 731              	get_volume:
 732              	.LFB69:
 365:main.c        ****     uint16 value;
 733              		.loc 1 365 0
 734              		.cfi_startproc
 735              		@ args = 0, pretend = 0, frame = 0
 736              		@ frame_needed = 0, uses_anonymous_args = 0
 737 0000 10B5     		push	{r4, lr}
 738              		.cfi_def_cfa_offset 8
 739              		.cfi_offset 4, -8
 740              		.cfi_offset 14, -4
 367:main.c        ****     Volume_Timer_WriteCounter(0x270F);
 741              		.loc 1 367 0
 742 0002 FFF7FEFF 		bl	Volume_Timer_Start
 743              	.LVL104:
 368:main.c        ****     volume_zero();
 744              		.loc 1 368 0
 745 0006 42F20F70 		movw	r0, #9999
 746 000a FFF7FEFF 		bl	Volume_Timer_WriteCounter
 747              	.LVL105:
 369:main.c        ****     value = Volume_Timer_ReadCounter();
 748              		.loc 1 369 0
 749 000e FFF7FEFF 		bl	volume_zero
 750              	.LVL106:
 370:main.c        ****     Volume_Timer_Stop();
 751              		.loc 1 370 0
 752 0012 FFF7FEFF 		bl	Volume_Timer_ReadCounter
 753              	.LVL107:
 754 0016 0446     		mov	r4, r0
 755              	.LVL108:
 371:main.c        ****     if(value==0x270F) return 100; //timer was 0 and has been reset
 756              		.loc 1 371 0
 757 0018 FFF7FEFF 		bl	Volume_Timer_Stop
 758              	.LVL109:
 372:main.c        ****     else value = (10000 - (value+1)) / 100;
ARM GAS  C:\Users\LUKASC~1\AppData\Local\Temp\cckvmXWF.s 			page 26


 759              		.loc 1 372 0
 760 001c 42F20F73 		movw	r3, #9999
 761 0020 9C42     		cmp	r4, r3
 762 0022 0AD0     		beq	.L62
 373:main.c        ****     return value;
 763              		.loc 1 373 0
 764 0024 C4F51C50 		rsb	r0, r4, #9984
 765 0028 0F30     		adds	r0, r0, #15
 766 002a 054B     		ldr	r3, .L64
 767 002c 83FB0023 		smull	r2, r3, r3, r0
 768 0030 C017     		asrs	r0, r0, #31
 769 0032 C0EB6310 		rsb	r0, r0, r3, asr #5
 770              	.LVL110:
 374:main.c        **** }
 771              		.loc 1 374 0
 772 0036 80B2     		uxth	r0, r0
 773 0038 10BD     		pop	{r4, pc}
 774              	.LVL111:
 775              	.L62:
 372:main.c        ****     else value = (10000 - (value+1)) / 100;
 776              		.loc 1 372 0
 777 003a 6420     		movs	r0, #100
 375:main.c        **** 
 778              		.loc 1 375 0
 779 003c 10BD     		pop	{r4, pc}
 780              	.LVL112:
 781              	.L65:
 782 003e 00BF     		.align	2
 783              	.L64:
 784 0040 1F85EB51 		.word	1374389535
 785              		.cfi_endproc
 786              	.LFE69:
 787              		.size	get_volume, .-get_volume
 788              		.section	.text.set_input,"ax",%progbits
 789              		.align	2
 790              		.global	set_input
 791              		.thumb
 792              		.thumb_func
 793              		.type	set_input, %function
 794              	set_input:
 795              	.LFB70:
 378:main.c        ****     //error for undefined inputs or more than one input set
 796              		.loc 1 378 0
 797              		.cfi_startproc
 798              		@ args = 0, pretend = 0, frame = 0
 799              		@ frame_needed = 0, uses_anonymous_args = 0
 800              	.LVL113:
 801 0000 10B5     		push	{r4, lr}
 802              		.cfi_def_cfa_offset 8
 803              		.cfi_offset 4, -8
 804              		.cfi_offset 14, -4
 805 0002 0446     		mov	r4, r0
 389:main.c        ****         {
 806              		.loc 1 389 0
 807 0004 2F4B     		ldr	r3, .L70
 808 0006 1B78     		ldrb	r3, [r3]	@ zero_extendqisi2
 809 0008 C3B1     		cbz	r3, .L67
ARM GAS  C:\Users\LUKASC~1\AppData\Local\Temp\cckvmXWF.s 			page 27


 391:main.c        ****             Input_Relais_1_Write(0u);
 810              		.loc 1 391 0
 811 000a 0020     		movs	r0, #0
 812              	.LVL114:
 813 000c FFF7FEFF 		bl	Input_Relais_0_Write
 814              	.LVL115:
 392:main.c        ****             Input_Relais_2_Write(0u);
 815              		.loc 1 392 0
 816 0010 0020     		movs	r0, #0
 817 0012 FFF7FEFF 		bl	Input_Relais_1_Write
 818              	.LVL116:
 393:main.c        ****             Input_Relais_3_Write(0u);
 819              		.loc 1 393 0
 820 0016 0020     		movs	r0, #0
 821 0018 FFF7FEFF 		bl	Input_Relais_2_Write
 822              	.LVL117:
 394:main.c        ****             Input_Relais_4_Write(0u);
 823              		.loc 1 394 0
 824 001c 0020     		movs	r0, #0
 825 001e FFF7FEFF 		bl	Input_Relais_3_Write
 826              	.LVL118:
 395:main.c        ****             Input_Relais_5_Write(0u);
 827              		.loc 1 395 0
 828 0022 0020     		movs	r0, #0
 829 0024 FFF7FEFF 		bl	Input_Relais_4_Write
 830              	.LVL119:
 396:main.c        ****             Input_Relais_6_Write(0u);
 831              		.loc 1 396 0
 832 0028 0020     		movs	r0, #0
 833 002a FFF7FEFF 		bl	Input_Relais_5_Write
 834              	.LVL120:
 397:main.c        ****             Input_Relais_7_Write(0u);
 835              		.loc 1 397 0
 836 002e 0020     		movs	r0, #0
 837 0030 FFF7FEFF 		bl	Input_Relais_6_Write
 838              	.LVL121:
 398:main.c        ****         }
 839              		.loc 1 398 0
 840 0034 0020     		movs	r0, #0
 841 0036 FFF7FEFF 		bl	Input_Relais_7_Write
 842              	.LVL122:
 843 003a 1EE0     		b	.L68
 844              	.LVL123:
 845              	.L67:
 402:main.c        ****             Input_Relais_1_Write((input & 0b00000010) >> 1);
 846              		.loc 1 402 0
 847 003c 00F00100 		and	r0, r0, #1
 848              	.LVL124:
 849 0040 FFF7FEFF 		bl	Input_Relais_0_Write
 850              	.LVL125:
 403:main.c        ****             Input_Relais_2_Write((input & 0b00000100) >> 2);
 851              		.loc 1 403 0
 852 0044 C4F34000 		ubfx	r0, r4, #1, #1
 853 0048 FFF7FEFF 		bl	Input_Relais_1_Write
 854              	.LVL126:
 404:main.c        ****             Input_Relais_3_Write((input & 0b00001000) >> 3);
 855              		.loc 1 404 0
ARM GAS  C:\Users\LUKASC~1\AppData\Local\Temp\cckvmXWF.s 			page 28


 856 004c C4F38000 		ubfx	r0, r4, #2, #1
 857 0050 FFF7FEFF 		bl	Input_Relais_2_Write
 858              	.LVL127:
 405:main.c        ****             Input_Relais_4_Write((input & 0b00010000) >> 4);
 859              		.loc 1 405 0
 860 0054 C4F3C000 		ubfx	r0, r4, #3, #1
 861 0058 FFF7FEFF 		bl	Input_Relais_3_Write
 862              	.LVL128:
 406:main.c        ****             Input_Relais_5_Write((input & 0b00100000) >> 5);
 863              		.loc 1 406 0
 864 005c C4F30010 		ubfx	r0, r4, #4, #1
 865 0060 FFF7FEFF 		bl	Input_Relais_4_Write
 866              	.LVL129:
 407:main.c        ****             Input_Relais_6_Write((input & 0b01000000) >> 6);
 867              		.loc 1 407 0
 868 0064 C4F34010 		ubfx	r0, r4, #5, #1
 869 0068 FFF7FEFF 		bl	Input_Relais_5_Write
 870              	.LVL130:
 408:main.c        ****             Input_Relais_7_Write((input & 0b10000000) >> 7);
 871              		.loc 1 408 0
 872 006c C4F38010 		ubfx	r0, r4, #6, #1
 873 0070 FFF7FEFF 		bl	Input_Relais_6_Write
 874              	.LVL131:
 409:main.c        ****         }
 875              		.loc 1 409 0
 876 0074 E009     		lsrs	r0, r4, #7
 877 0076 FFF7FEFF 		bl	Input_Relais_7_Write
 878              	.LVL132:
 879              	.L68:
 412:main.c        ****         U2_LED_Write((input & 0b00000010) >> 1);
 880              		.loc 1 412 0
 881 007a 04F00100 		and	r0, r4, #1
 882 007e FFF7FEFF 		bl	U1_LED_Write
 883              	.LVL133:
 413:main.c        ****         U3_LED_Write((input & 0b00000100) >> 2);
 884              		.loc 1 413 0
 885 0082 C4F34000 		ubfx	r0, r4, #1, #1
 886 0086 FFF7FEFF 		bl	U2_LED_Write
 887              	.LVL134:
 414:main.c        ****         U4_LED_Write((input & 0b00001000) >> 3);
 888              		.loc 1 414 0
 889 008a C4F38000 		ubfx	r0, r4, #2, #1
 890 008e FFF7FEFF 		bl	U3_LED_Write
 891              	.LVL135:
 415:main.c        ****         U5_LED_Write((input & 0b00010000) >> 4);
 892              		.loc 1 415 0
 893 0092 C4F3C000 		ubfx	r0, r4, #3, #1
 894 0096 FFF7FEFF 		bl	U4_LED_Write
 895              	.LVL136:
 416:main.c        ****         U6_LED_Write((input & 0b00100000) >> 5);
 896              		.loc 1 416 0
 897 009a C4F30010 		ubfx	r0, r4, #4, #1
 898 009e FFF7FEFF 		bl	U5_LED_Write
 899              	.LVL137:
 417:main.c        ****         U7_LED_Write((input & 0b01000000) >> 6);
 900              		.loc 1 417 0
 901 00a2 C4F34010 		ubfx	r0, r4, #5, #1
ARM GAS  C:\Users\LUKASC~1\AppData\Local\Temp\cckvmXWF.s 			page 29


 902 00a6 FFF7FEFF 		bl	U6_LED_Write
 903              	.LVL138:
 418:main.c        ****         U8_LED_Write((input & 0b10000000) >> 7);
 904              		.loc 1 418 0
 905 00aa C4F38010 		ubfx	r0, r4, #6, #1
 906 00ae FFF7FEFF 		bl	U7_LED_Write
 907              	.LVL139:
 419:main.c        ****         D1_LED_Write(muted);
 908              		.loc 1 419 0
 909 00b2 E009     		lsrs	r0, r4, #7
 910 00b4 FFF7FEFF 		bl	U8_LED_Write
 911              	.LVL140:
 420:main.c        ****         return 0; //SUCCESS
 912              		.loc 1 420 0
 913 00b8 024B     		ldr	r3, .L70
 914 00ba 1878     		ldrb	r0, [r3]	@ zero_extendqisi2
 915 00bc FFF7FEFF 		bl	D1_LED_Write
 916              	.LVL141:
 423:main.c        **** 
 917              		.loc 1 423 0
 918 00c0 0020     		movs	r0, #0
 919 00c2 10BD     		pop	{r4, pc}
 920              	.L71:
 921              		.align	2
 922              	.L70:
 923 00c4 00000000 		.word	.LANCHOR1
 924              		.cfi_endproc
 925              	.LFE70:
 926              		.size	set_input, .-set_input
 927              		.section	.text.main,"ax",%progbits
 928              		.align	2
 929              		.global	main
 930              		.thumb
 931              		.thumb_func
 932              		.type	main, %function
 933              	main:
 934              	.LFB63:
  74:main.c        ****     /* USB init */
 935              		.loc 1 74 0
 936              		.cfi_startproc
 937              		@ args = 0, pretend = 0, frame = 64
 938              		@ frame_needed = 0, uses_anonymous_args = 0
 939 0000 10B5     		push	{r4, lr}
 940              		.cfi_def_cfa_offset 8
 941              		.cfi_offset 4, -8
 942              		.cfi_offset 14, -4
 943 0002 90B0     		sub	sp, sp, #64
 944              		.cfi_def_cfa_offset 72
  79:main.c        ****     Volume_2_Write(0u);
 945              		.loc 1 79 0
 946 0004 0020     		movs	r0, #0
 947 0006 FFF7FEFF 		bl	Volume_1_Write
 948              	.LVL142:
  80:main.c        ****     Volume_ADC_Start();
 949              		.loc 1 80 0
 950 000a 0020     		movs	r0, #0
 951 000c FFF7FEFF 		bl	Volume_2_Write
ARM GAS  C:\Users\LUKASC~1\AppData\Local\Temp\cckvmXWF.s 			page 30


 952              	.LVL143:
  81:main.c        ****     Volume_ADC_StartConvert();
 953              		.loc 1 81 0
 954 0010 FFF7FEFF 		bl	Volume_ADC_Start
 955              	.LVL144:
  82:main.c        ****     /* Set initial state for Protection */
 956              		.loc 1 82 0
 957 0014 FFF7FEFF 		bl	Volume_ADC_StartConvert
 958              	.LVL145:
  84:main.c        ****     Protection_CLR_Write(1u);
 959              		.loc 1 84 0
 960 0018 0020     		movs	r0, #0
 961 001a FFF7FEFF 		bl	Protection_CLK_Write
 962              	.LVL146:
  85:main.c        ****     Protection_IN_Write(0u);
 963              		.loc 1 85 0
 964 001e 0120     		movs	r0, #1
 965 0020 FFF7FEFF 		bl	Protection_CLR_Write
 966              	.LVL147:
  86:main.c        ****     /* Set initial state for Input selection */
 967              		.loc 1 86 0
 968 0024 0020     		movs	r0, #0
 969 0026 FFF7FEFF 		bl	Protection_IN_Write
 970              	.LVL148:
  88:main.c        ****     /* Set initial state for LEDs */
 971              		.loc 1 88 0
 972 002a 8C4B     		ldr	r3, .L86
 973 002c 5878     		ldrb	r0, [r3, #1]	@ zero_extendqisi2
 974 002e FFF7FEFF 		bl	set_input
 975              	.LVL149:
  90:main.c        ****     D1_LED_Write(1u);
 976              		.loc 1 90 0
 977 0032 0120     		movs	r0, #1
 978 0034 FFF7FEFF 		bl	Power_LED_Write
 979              	.LVL150:
  91:main.c        ****     D2_LED_Write(1u);
 980              		.loc 1 91 0
 981 0038 0120     		movs	r0, #1
 982 003a FFF7FEFF 		bl	D1_LED_Write
 983              	.LVL151:
  92:main.c        ****     D3_LED_Write(1u);
 984              		.loc 1 92 0
 985 003e 0120     		movs	r0, #1
 986 0040 FFF7FEFF 		bl	D2_LED_Write
 987              	.LVL152:
  93:main.c        ****     U1_LED_Write(1u);
 988              		.loc 1 93 0
 989 0044 0120     		movs	r0, #1
 990 0046 FFF7FEFF 		bl	D3_LED_Write
 991              	.LVL153:
  94:main.c        ****     U2_LED_Write(1u);
 992              		.loc 1 94 0
 993 004a 0120     		movs	r0, #1
 994 004c FFF7FEFF 		bl	U1_LED_Write
 995              	.LVL154:
  95:main.c        ****     U3_LED_Write(1u);
 996              		.loc 1 95 0
ARM GAS  C:\Users\LUKASC~1\AppData\Local\Temp\cckvmXWF.s 			page 31


 997 0050 0120     		movs	r0, #1
 998 0052 FFF7FEFF 		bl	U2_LED_Write
 999              	.LVL155:
  96:main.c        ****     U4_LED_Write(1u);
 1000              		.loc 1 96 0
 1001 0056 0120     		movs	r0, #1
 1002 0058 FFF7FEFF 		bl	U3_LED_Write
 1003              	.LVL156:
  97:main.c        ****     U5_LED_Write(1u);
 1004              		.loc 1 97 0
 1005 005c 0120     		movs	r0, #1
 1006 005e FFF7FEFF 		bl	U4_LED_Write
 1007              	.LVL157:
  98:main.c        ****     U6_LED_Write(1u);
 1008              		.loc 1 98 0
 1009 0062 0120     		movs	r0, #1
 1010 0064 FFF7FEFF 		bl	U5_LED_Write
 1011              	.LVL158:
  99:main.c        ****     U7_LED_Write(1u);
 1012              		.loc 1 99 0
 1013 0068 0120     		movs	r0, #1
 1014 006a FFF7FEFF 		bl	U6_LED_Write
 1015              	.LVL159:
 100:main.c        ****     U8_LED_Write(1u);
 1016              		.loc 1 100 0
 1017 006e 0120     		movs	r0, #1
 1018 0070 FFF7FEFF 		bl	U7_LED_Write
 1019              	.LVL160:
 101:main.c        ****     CyDelay(500);
 1020              		.loc 1 101 0
 1021 0074 0120     		movs	r0, #1
 1022 0076 FFF7FEFF 		bl	U8_LED_Write
 1023              	.LVL161:
 102:main.c        ****     Power_LED_Write(0u);
 1024              		.loc 1 102 0
 1025 007a 4FF4FA70 		mov	r0, #500
 1026 007e FFF7FEFF 		bl	CyDelay
 1027              	.LVL162:
 103:main.c        ****     D1_LED_Write(0u);
 1028              		.loc 1 103 0
 1029 0082 0020     		movs	r0, #0
 1030 0084 FFF7FEFF 		bl	Power_LED_Write
 1031              	.LVL163:
 104:main.c        ****     D2_LED_Write(0u);
 1032              		.loc 1 104 0
 1033 0088 0020     		movs	r0, #0
 1034 008a FFF7FEFF 		bl	D1_LED_Write
 1035              	.LVL164:
 105:main.c        ****     D3_LED_Write(0u);
 1036              		.loc 1 105 0
 1037 008e 0020     		movs	r0, #0
 1038 0090 FFF7FEFF 		bl	D2_LED_Write
 1039              	.LVL165:
 106:main.c        ****     U1_LED_Write(0u);
 1040              		.loc 1 106 0
 1041 0094 0020     		movs	r0, #0
 1042 0096 FFF7FEFF 		bl	D3_LED_Write
ARM GAS  C:\Users\LUKASC~1\AppData\Local\Temp\cckvmXWF.s 			page 32


 1043              	.LVL166:
 107:main.c        ****     U2_LED_Write(0u);
 1044              		.loc 1 107 0
 1045 009a 0020     		movs	r0, #0
 1046 009c FFF7FEFF 		bl	U1_LED_Write
 1047              	.LVL167:
 108:main.c        ****     U3_LED_Write(0u);
 1048              		.loc 1 108 0
 1049 00a0 0020     		movs	r0, #0
 1050 00a2 FFF7FEFF 		bl	U2_LED_Write
 1051              	.LVL168:
 109:main.c        ****     U4_LED_Write(0u);
 1052              		.loc 1 109 0
 1053 00a6 0020     		movs	r0, #0
 1054 00a8 FFF7FEFF 		bl	U3_LED_Write
 1055              	.LVL169:
 110:main.c        ****     U5_LED_Write(0u);
 1056              		.loc 1 110 0
 1057 00ac 0020     		movs	r0, #0
 1058 00ae FFF7FEFF 		bl	U4_LED_Write
 1059              	.LVL170:
 111:main.c        ****     U6_LED_Write(0u);
 1060              		.loc 1 111 0
 1061 00b2 0020     		movs	r0, #0
 1062 00b4 FFF7FEFF 		bl	U5_LED_Write
 1063              	.LVL171:
 112:main.c        ****     U7_LED_Write(0u);
 1064              		.loc 1 112 0
 1065 00b8 0020     		movs	r0, #0
 1066 00ba FFF7FEFF 		bl	U6_LED_Write
 1067              	.LVL172:
 113:main.c        ****     U8_LED_Write(0u);
 1068              		.loc 1 113 0
 1069 00be 0020     		movs	r0, #0
 1070 00c0 FFF7FEFF 		bl	U7_LED_Write
 1071              	.LVL173:
 114:main.c        **** 
 1072              		.loc 1 114 0
 1073 00c4 0020     		movs	r0, #0
 1074 00c6 FFF7FEFF 		bl	U8_LED_Write
 1075              	.LVL174:
 118:main.c        ****     Button_Timer_Interrupt_StartEx(Button_Timer_Handler);
 1076              		.loc 1 118 0
 1077 00ca FFF7FEFF 		bl	Button_Timer_Start
 1078              	.LVL175:
 119:main.c        ****     i_Input_2_StartEx(Input_2_Handler);
 1079              		.loc 1 119 0
 1080 00ce 6448     		ldr	r0, .L86+4
 1081 00d0 FFF7FEFF 		bl	Button_Timer_Interrupt_StartEx
 1082              	.LVL176:
 120:main.c        ****     i_Power_StartEx(Power_Handler);
 1083              		.loc 1 120 0
 1084 00d4 6348     		ldr	r0, .L86+8
 1085 00d6 FFF7FEFF 		bl	i_Input_2_StartEx
 1086              	.LVL177:
 121:main.c        ****     i_Input_1_StartEx(Input_1_Handler);
 1087              		.loc 1 121 0
ARM GAS  C:\Users\LUKASC~1\AppData\Local\Temp\cckvmXWF.s 			page 33


 1088 00da 6348     		ldr	r0, .L86+12
 1089 00dc FFF7FEFF 		bl	i_Power_StartEx
 1090              	.LVL178:
 122:main.c        ****     i_Right_StartEx(Right_Handler);
 1091              		.loc 1 122 0
 1092 00e0 6248     		ldr	r0, .L86+16
 1093 00e2 FFF7FEFF 		bl	i_Input_1_StartEx
 1094              	.LVL179:
 123:main.c        ****     i_Down_StartEx(Down_Handler);
 1095              		.loc 1 123 0
 1096 00e6 6248     		ldr	r0, .L86+20
 1097 00e8 FFF7FEFF 		bl	i_Right_StartEx
 1098              	.LVL180:
 124:main.c        ****     i_Up_StartEx(Up_Handler);
 1099              		.loc 1 124 0
 1100 00ec 6148     		ldr	r0, .L86+24
 1101 00ee FFF7FEFF 		bl	i_Down_StartEx
 1102              	.LVL181:
 125:main.c        ****     i_Left_StartEx(Left_Handler);
 1103              		.loc 1 125 0
 1104 00f2 6148     		ldr	r0, .L86+28
 1105 00f4 FFF7FEFF 		bl	i_Up_StartEx
 1106              	.LVL182:
 126:main.c        ****     i_Mute_StartEx(Mute_Handler);
 1107              		.loc 1 126 0
 1108 00f8 6048     		ldr	r0, .L86+32
 1109 00fa FFF7FEFF 		bl	i_Left_StartEx
 1110              	.LVL183:
 127:main.c        ****     i_Enter_StartEx(E_Handler);
 1111              		.loc 1 127 0
 1112 00fe 6048     		ldr	r0, .L86+36
 1113 0100 FFF7FEFF 		bl	i_Mute_StartEx
 1114              	.LVL184:
 128:main.c        **** 
 1115              		.loc 1 128 0
 1116 0104 5F48     		ldr	r0, .L86+40
 1117 0106 FFF7FEFF 		bl	i_Enter_StartEx
 1118              	.LVL185:
 135:main.c        ****     i_Input_2_SetPriority(DEFAULT_PRIORITY);
 1119              		.loc 1 135 0
 1120 010a 0420     		movs	r0, #4
 1121 010c FFF7FEFF 		bl	Button_Timer_Interrupt_SetPriority
 1122              	.LVL186:
 136:main.c        ****     i_Power_SetPriority(DEFAULT_PRIORITY);
 1123              		.loc 1 136 0
 1124 0110 0320     		movs	r0, #3
 1125 0112 FFF7FEFF 		bl	i_Input_2_SetPriority
 1126              	.LVL187:
 137:main.c        ****     i_Input_1_SetPriority(DEFAULT_PRIORITY);
 1127              		.loc 1 137 0
 1128 0116 0320     		movs	r0, #3
 1129 0118 FFF7FEFF 		bl	i_Power_SetPriority
 1130              	.LVL188:
 138:main.c        ****     i_Right_SetPriority(DEFAULT_PRIORITY);
 1131              		.loc 1 138 0
 1132 011c 0320     		movs	r0, #3
 1133 011e FFF7FEFF 		bl	i_Input_1_SetPriority
ARM GAS  C:\Users\LUKASC~1\AppData\Local\Temp\cckvmXWF.s 			page 34


 1134              	.LVL189:
 139:main.c        ****     i_Down_SetPriority(DEFAULT_PRIORITY);
 1135              		.loc 1 139 0
 1136 0122 0320     		movs	r0, #3
 1137 0124 FFF7FEFF 		bl	i_Right_SetPriority
 1138              	.LVL190:
 140:main.c        ****     i_Up_SetPriority(DEFAULT_PRIORITY);
 1139              		.loc 1 140 0
 1140 0128 0320     		movs	r0, #3
 1141 012a FFF7FEFF 		bl	i_Down_SetPriority
 1142              	.LVL191:
 141:main.c        ****     i_Left_SetPriority(DEFAULT_PRIORITY);
 1143              		.loc 1 141 0
 1144 012e 0320     		movs	r0, #3
 1145 0130 FFF7FEFF 		bl	i_Up_SetPriority
 1146              	.LVL192:
 142:main.c        ****     i_Mute_SetPriority(DEFAULT_PRIORITY);
 1147              		.loc 1 142 0
 1148 0134 0320     		movs	r0, #3
 1149 0136 FFF7FEFF 		bl	i_Left_SetPriority
 1150              	.LVL193:
 143:main.c        ****     i_Enter_SetPriority(DEFAULT_PRIORITY);
 1151              		.loc 1 143 0
 1152 013a 0320     		movs	r0, #3
 1153 013c FFF7FEFF 		bl	i_Mute_SetPriority
 1154              	.LVL194:
 144:main.c        **** 
 1155              		.loc 1 144 0
 1156 0140 0320     		movs	r0, #3
 1157 0142 FFF7FEFF 		bl	i_Enter_SetPriority
 1158              	.LVL195:
 147:main.c        ****     
 1159              		.loc 1 147 0
 1160              	@ 147 "main.c" 1
 1161 0146 62B6     		CPSIE   i
 1162              	@ 0 "" 2
 149:main.c        **** 
 1163              		.loc 1 149 0
 1164              		.thumb
 1165 0148 0020     		movs	r0, #0
 1166 014a 0121     		movs	r1, #1
 1167 014c FFF7FEFF 		bl	USBUART_Start
 1168              	.LVL196:
 1169              	.L74:
 153:main.c        ****             //Power OFF
 1170              		.loc 1 153 0
 1171 0150 424B     		ldr	r3, .L86
 1172 0152 1B78     		ldrb	r3, [r3]	@ zero_extendqisi2
 1173 0154 032B     		cmp	r3, #3
 1174 0156 6ED8     		bhi	.L75
 1175 0158 01A2     		adr	r2, .L76
 1176 015a 52F823F0 		ldr	pc, [r2, r3, lsl #2]
 1177 015e 00BF     		.p2align 2
 1178              	.L76:
 1179 0160 51010000 		.word	.L74+1
 1180 0164 71010000 		.word	.L77+1
 1181 0168 A9010000 		.word	.L78+1
ARM GAS  C:\Users\LUKASC~1\AppData\Local\Temp\cckvmXWF.s 			page 35


 1182 016c E5010000 		.word	.L79+1
 1183              		.p2align 1
 1184              	.L77:
 160:main.c        ****                 //enable controls
 1185              		.loc 1 160 0
 1186 0170 0020     		movs	r0, #0
 1187 0172 FFF7FEFF 		bl	Power_LED_Write
 1188              	.LVL197:
 162:main.c        ****                 i_Input_1_Enable();
 1189              		.loc 1 162 0
 1190 0176 FFF7FEFF 		bl	i_Input_2_Enable
 1191              	.LVL198:
 163:main.c        ****                 i_Right_Enable();
 1192              		.loc 1 163 0
 1193 017a FFF7FEFF 		bl	i_Input_1_Enable
 1194              	.LVL199:
 164:main.c        ****                 i_Down_Enable();
 1195              		.loc 1 164 0
 1196 017e FFF7FEFF 		bl	i_Right_Enable
 1197              	.LVL200:
 165:main.c        ****                 i_Up_Enable();
 1198              		.loc 1 165 0
 1199 0182 FFF7FEFF 		bl	i_Down_Enable
 1200              	.LVL201:
 166:main.c        ****                 i_Left_Enable();
 1201              		.loc 1 166 0
 1202 0186 FFF7FEFF 		bl	i_Up_Enable
 1203              	.LVL202:
 167:main.c        ****                 i_Mute_Enable();
 1204              		.loc 1 167 0
 1205 018a FFF7FEFF 		bl	i_Left_Enable
 1206              	.LVL203:
 168:main.c        ****                 i_Enter_Enable();
 1207              		.loc 1 168 0
 1208 018e FFF7FEFF 		bl	i_Mute_Enable
 1209              	.LVL204:
 169:main.c        ****                 //enable modules
 1210              		.loc 1 169 0
 1211 0192 FFF7FEFF 		bl	i_Enter_Enable
 1212              	.LVL205:
 171:main.c        ****                 //enable input
 1213              		.loc 1 171 0
 1214 0196 FFF7FEFF 		bl	protection_set
 1215              	.LVL206:
 173:main.c        ****                 //switch to ON state
 1216              		.loc 1 173 0
 1217 019a 304C     		ldr	r4, .L86
 1218 019c 6078     		ldrb	r0, [r4, #1]	@ zero_extendqisi2
 1219 019e FFF7FEFF 		bl	set_input
 1220              	.LVL207:
 175:main.c        ****                 break;
 1221              		.loc 1 175 0
 1222 01a2 0323     		movs	r3, #3
 1223 01a4 2370     		strb	r3, [r4]
 176:main.c        ****             //Powering OFF
 1224              		.loc 1 176 0
 1225 01a6 D3E7     		b	.L74
ARM GAS  C:\Users\LUKASC~1\AppData\Local\Temp\cckvmXWF.s 			page 36


 1226              	.L78:
 179:main.c        ****                 //disable inputs
 1227              		.loc 1 179 0
 1228 01a8 0120     		movs	r0, #1
 1229 01aa FFF7FEFF 		bl	Power_LED_Write
 1230              	.LVL208:
 181:main.c        ****                 set_input(0u);
 1231              		.loc 1 181 0
 1232 01ae 0024     		movs	r4, #0
 1233 01b0 354B     		ldr	r3, .L86+44
 1234 01b2 1C70     		strb	r4, [r3]
 182:main.c        ****                 //disable modules
 1235              		.loc 1 182 0
 1236 01b4 2046     		mov	r0, r4
 1237 01b6 FFF7FEFF 		bl	set_input
 1238              	.LVL209:
 184:main.c        ****                 //disable controls
 1239              		.loc 1 184 0
 1240 01ba FFF7FEFF 		bl	protection_clear
 1241              	.LVL210:
 186:main.c        ****                 i_Input_1_Disable();
 1242              		.loc 1 186 0
 1243 01be FFF7FEFF 		bl	i_Input_2_Disable
 1244              	.LVL211:
 187:main.c        ****                 i_Right_Disable();
 1245              		.loc 1 187 0
 1246 01c2 FFF7FEFF 		bl	i_Input_1_Disable
 1247              	.LVL212:
 188:main.c        ****                 i_Down_Disable();
 1248              		.loc 1 188 0
 1249 01c6 FFF7FEFF 		bl	i_Right_Disable
 1250              	.LVL213:
 189:main.c        ****                 i_Up_Disable();
 1251              		.loc 1 189 0
 1252 01ca FFF7FEFF 		bl	i_Down_Disable
 1253              	.LVL214:
 190:main.c        ****                 i_Left_Disable();
 1254              		.loc 1 190 0
 1255 01ce FFF7FEFF 		bl	i_Up_Disable
 1256              	.LVL215:
 191:main.c        ****                 i_Mute_Disable();
 1257              		.loc 1 191 0
 1258 01d2 FFF7FEFF 		bl	i_Left_Disable
 1259              	.LVL216:
 192:main.c        ****                 i_Enter_Disable();
 1260              		.loc 1 192 0
 1261 01d6 FFF7FEFF 		bl	i_Mute_Disable
 1262              	.LVL217:
 193:main.c        ****                 //switch to Power OFF state
 1263              		.loc 1 193 0
 1264 01da FFF7FEFF 		bl	i_Enter_Disable
 1265              	.LVL218:
 195:main.c        ****                 break;
 1266              		.loc 1 195 0
 1267 01de 1F4B     		ldr	r3, .L86
 1268 01e0 1C70     		strb	r4, [r3]
 196:main.c        ****             //ON
ARM GAS  C:\Users\LUKASC~1\AppData\Local\Temp\cckvmXWF.s 			page 37


 1269              		.loc 1 196 0
 1270 01e2 B5E7     		b	.L74
 1271              	.L79:
 200:main.c        ****                 {
 1272              		.loc 1 200 0
 1273 01e4 FFF7FEFF 		bl	USBUART_IsConfigurationChanged
 1274              	.LVL219:
 1275 01e8 20B1     		cbz	r0, .L81
 203:main.c        ****                     {
 1276              		.loc 1 203 0
 1277 01ea FFF7FEFF 		bl	USBUART_GetConfiguration
 1278              	.LVL220:
 1279 01ee 08B1     		cbz	r0, .L81
 207:main.c        ****                     }
 1280              		.loc 1 207 0
 1281 01f0 FFF7FEFF 		bl	USBUART_CDC_Init
 1282              	.LVL221:
 1283              	.L81:
 212:main.c        ****                 {
 1284              		.loc 1 212 0
 1285 01f4 FFF7FEFF 		bl	USBUART_GetConfiguration
 1286              	.LVL222:
 1287 01f8 0028     		cmp	r0, #0
 1288 01fa A9D0     		beq	.L74
 215:main.c        ****                     {
 1289              		.loc 1 215 0
 1290 01fc FFF7FEFF 		bl	USBUART_DataIsReady
 1291              	.LVL223:
 1292 0200 0028     		cmp	r0, #0
 1293 0202 A5D0     		beq	.L74
 218:main.c        **** 
 1294              		.loc 1 218 0
 1295 0204 6846     		mov	r0, sp
 1296 0206 FFF7FEFF 		bl	USBUART_GetAll
 1297              	.LVL224:
 220:main.c        ****                         {
 1298              		.loc 1 220 0
 1299 020a 0446     		mov	r4, r0
 1300 020c 0028     		cmp	r0, #0
 1301 020e 9FD0     		beq	.L74
 1302              	.LVL225:
 1303              	.L82:
 223:main.c        ****                             {
 1304              		.loc 1 223 0 discriminator 1
 1305 0210 FFF7FEFF 		bl	USBUART_CDCIsReady
 1306              	.LVL226:
 1307 0214 0028     		cmp	r0, #0
 1308 0216 FBD0     		beq	.L82
 229:main.c        **** 
 1309              		.loc 1 229 0
 1310 0218 6846     		mov	r0, sp
 1311 021a 2146     		mov	r1, r4
 1312 021c FFF7FEFF 		bl	USBUART_PutData
 1313              	.LVL227:
 236:main.c        ****                             {
 1314              		.loc 1 236 0
 1315 0220 402C     		cmp	r4, #64
ARM GAS  C:\Users\LUKASC~1\AppData\Local\Temp\cckvmXWF.s 			page 38


 1316 0222 95D1     		bne	.L74
 1317              	.L83:
 239:main.c        ****                                 {
 1318              		.loc 1 239 0 discriminator 1
 1319 0224 FFF7FEFF 		bl	USBUART_CDCIsReady
 1320              	.LVL228:
 1321 0228 0028     		cmp	r0, #0
 1322 022a FBD0     		beq	.L83
 244:main.c        ****                             }
 1323              		.loc 1 244 0
 1324 022c 0020     		movs	r0, #0
 1325 022e 0146     		mov	r1, r0
 1326 0230 FFF7FEFF 		bl	USBUART_PutData
 1327              	.LVL229:
 1328 0234 8CE7     		b	.L74
 1329              	.L75:
 254:main.c        ****                 muted=0;
 1330              		.loc 1 254 0
 1331 0236 FFF7FEFF 		bl	protection_clear
 1332              	.LVL230:
 255:main.c        ****                 set_input(0u);
 1333              		.loc 1 255 0
 1334 023a 0020     		movs	r0, #0
 1335 023c 124B     		ldr	r3, .L86+44
 1336 023e 1870     		strb	r0, [r3]
 256:main.c        ****                 
 1337              		.loc 1 256 0
 1338 0240 FFF7FEFF 		bl	set_input
 1339              	.LVL231:
 1340              	.L84:
 260:main.c        ****                     CyDelay(100);
 1341              		.loc 1 260 0 discriminator 1
 1342 0244 FFF7FEFF 		bl	Power_LED_Read
 1343              	.LVL232:
 1344 0248 B0FA80F0 		clz	r0, r0
 1345 024c 4009     		lsrs	r0, r0, #5
 1346 024e FFF7FEFF 		bl	Power_LED_Write
 1347              	.LVL233:
 261:main.c        ****                 }
 1348              		.loc 1 261 0 discriminator 1
 1349 0252 6420     		movs	r0, #100
 1350 0254 FFF7FEFF 		bl	CyDelay
 1351              	.LVL234:
 262:main.c        ****                 break;
 1352              		.loc 1 262 0 discriminator 1
 1353 0258 F4E7     		b	.L84
 1354              	.L87:
 1355 025a 00BF     		.align	2
 1356              	.L86:
 1357 025c 00000000 		.word	.LANCHOR0
 1358 0260 00000000 		.word	Button_Timer_Handler
 1359 0264 00000000 		.word	Input_2_Handler
 1360 0268 00000000 		.word	Power_Handler
 1361 026c 00000000 		.word	Input_1_Handler
 1362 0270 00000000 		.word	Right_Handler
 1363 0274 00000000 		.word	Down_Handler
 1364 0278 00000000 		.word	Up_Handler
ARM GAS  C:\Users\LUKASC~1\AppData\Local\Temp\cckvmXWF.s 			page 39


 1365 027c 00000000 		.word	Left_Handler
 1366 0280 00000000 		.word	Mute_Handler
 1367 0284 00000000 		.word	E_Handler
 1368 0288 00000000 		.word	.LANCHOR1
 1369              		.cfi_endproc
 1370              	.LFE63:
 1371              		.size	main, .-main
 1372              		.section	.text.Input_2_Handler,"ax",%progbits
 1373              		.align	2
 1374              		.global	Input_2_Handler
 1375              		.thumb
 1376              		.thumb_func
 1377              		.type	Input_2_Handler, %function
 1378              	Input_2_Handler:
 1379              	.LFB71:
 427:main.c        ****     i_Input_2_Disable();
 1380              		.loc 1 427 0
 1381              		.cfi_startproc
 1382              		@ args = 0, pretend = 0, frame = 0
 1383              		@ frame_needed = 0, uses_anonymous_args = 0
 1384 0000 08B5     		push	{r3, lr}
 1385              		.cfi_def_cfa_offset 8
 1386              		.cfi_offset 3, -8
 1387              		.cfi_offset 14, -4
 428:main.c        ****     if(Input_2_SW_Read())
 1388              		.loc 1 428 0
 1389 0002 FFF7FEFF 		bl	i_Input_2_Disable
 1390              	.LVL235:
 429:main.c        ****     {
 1391              		.loc 1 429 0
 1392 0006 FFF7FEFF 		bl	Input_2_SW_Read
 1393              	.LVL236:
 1394 000a B0B1     		cbz	r0, .L92
 431:main.c        ****         else input = 0b00000001;
 1395              		.loc 1 431 0
 1396 000c 0E4B     		ldr	r3, .L95
 1397 000e 5B78     		ldrb	r3, [r3, #1]	@ zero_extendqisi2
 1398 0010 13F0800F 		tst	r3, #128
 1399 0014 03D1     		bne	.L90
 431:main.c        ****         else input = 0b00000001;
 1400              		.loc 1 431 0 is_stmt 0 discriminator 1
 1401 0016 5B00     		lsls	r3, r3, #1
 1402 0018 0B4A     		ldr	r2, .L95
 1403 001a 5370     		strb	r3, [r2, #1]
 1404 001c 02E0     		b	.L91
 1405              	.L90:
 432:main.c        ****         set_input(input);
 1406              		.loc 1 432 0 is_stmt 1
 1407 001e 0122     		movs	r2, #1
 1408 0020 094B     		ldr	r3, .L95
 1409 0022 5A70     		strb	r2, [r3, #1]
 1410              	.L91:
 433:main.c        ****         USBUART_PutChar('j');
 1411              		.loc 1 433 0
 1412 0024 084B     		ldr	r3, .L95
 1413 0026 5878     		ldrb	r0, [r3, #1]	@ zero_extendqisi2
 1414 0028 FFF7FEFF 		bl	set_input
ARM GAS  C:\Users\LUKASC~1\AppData\Local\Temp\cckvmXWF.s 			page 40


 1415              	.LVL237:
 434:main.c        ****     }
 1416              		.loc 1 434 0
 1417 002c 6A20     		movs	r0, #106
 1418 002e FFF7FEFF 		bl	USBUART_PutChar
 1419              	.LVL238:
 1420 0032 02E0     		b	.L92
 1421              	.L93:
 438:main.c        ****     } 
 1422              		.loc 1 438 0
 1423 0034 0A20     		movs	r0, #10
 1424 0036 FFF7FEFF 		bl	CyDelay
 1425              	.LVL239:
 1426              	.L92:
 437:main.c        ****         CyDelay(SW_DELAY);
 1427              		.loc 1 437 0
 1428 003a FFF7FEFF 		bl	Input_2_SW_Read
 1429              	.LVL240:
 1430 003e 0028     		cmp	r0, #0
 1431 0040 F8D1     		bne	.L93
 442:main.c        **** }
 1432              		.loc 1 442 0
 1433 0042 FFF7FEFF 		bl	Button_Timer_Start
 1434              	.LVL241:
 1435 0046 08BD     		pop	{r3, pc}
 1436              	.L96:
 1437              		.align	2
 1438              	.L95:
 1439 0048 00000000 		.word	.LANCHOR0
 1440              		.cfi_endproc
 1441              	.LFE71:
 1442              		.size	Input_2_Handler, .-Input_2_Handler
 1443              		.section	.text.Input_1_Handler,"ax",%progbits
 1444              		.align	2
 1445              		.global	Input_1_Handler
 1446              		.thumb
 1447              		.thumb_func
 1448              		.type	Input_1_Handler, %function
 1449              	Input_1_Handler:
 1450              	.LFB73:
 463:main.c        ****     i_Input_1_Disable();
 1451              		.loc 1 463 0
 1452              		.cfi_startproc
 1453              		@ args = 0, pretend = 0, frame = 0
 1454              		@ frame_needed = 0, uses_anonymous_args = 0
 1455 0000 08B5     		push	{r3, lr}
 1456              		.cfi_def_cfa_offset 8
 1457              		.cfi_offset 3, -8
 1458              		.cfi_offset 14, -4
 464:main.c        ****     if(Input_1_SW_Read())
 1459              		.loc 1 464 0
 1460 0002 FFF7FEFF 		bl	i_Input_1_Disable
 1461              	.LVL242:
 465:main.c        ****     {
 1462              		.loc 1 465 0
 1463 0006 FFF7FEFF 		bl	Input_1_SW_Read
 1464              	.LVL243:
ARM GAS  C:\Users\LUKASC~1\AppData\Local\Temp\cckvmXWF.s 			page 41


 1465 000a A8B1     		cbz	r0, .L101
 467:main.c        ****         else input = 0b10000000;
 1466              		.loc 1 467 0
 1467 000c 0E4B     		ldr	r3, .L104
 1468 000e 5B78     		ldrb	r3, [r3, #1]	@ zero_extendqisi2
 1469 0010 012B     		cmp	r3, #1
 1470 0012 03D9     		bls	.L99
 467:main.c        ****         else input = 0b10000000;
 1471              		.loc 1 467 0 is_stmt 0 discriminator 1
 1472 0014 5B08     		lsrs	r3, r3, #1
 1473 0016 0C4A     		ldr	r2, .L104
 1474 0018 5370     		strb	r3, [r2, #1]
 1475 001a 02E0     		b	.L100
 1476              	.L99:
 468:main.c        ****         set_input(input);
 1477              		.loc 1 468 0 is_stmt 1
 1478 001c 8022     		movs	r2, #128
 1479 001e 0A4B     		ldr	r3, .L104
 1480 0020 5A70     		strb	r2, [r3, #1]
 1481              	.L100:
 469:main.c        ****         USBUART_PutChar('i');
 1482              		.loc 1 469 0
 1483 0022 094B     		ldr	r3, .L104
 1484 0024 5878     		ldrb	r0, [r3, #1]	@ zero_extendqisi2
 1485 0026 FFF7FEFF 		bl	set_input
 1486              	.LVL244:
 470:main.c        ****     }
 1487              		.loc 1 470 0
 1488 002a 6920     		movs	r0, #105
 1489 002c FFF7FEFF 		bl	USBUART_PutChar
 1490              	.LVL245:
 1491 0030 02E0     		b	.L101
 1492              	.L102:
 474:main.c        ****     } 
 1493              		.loc 1 474 0
 1494 0032 0A20     		movs	r0, #10
 1495 0034 FFF7FEFF 		bl	CyDelay
 1496              	.LVL246:
 1497              	.L101:
 473:main.c        ****         CyDelay(SW_DELAY);
 1498              		.loc 1 473 0
 1499 0038 FFF7FEFF 		bl	Input_1_SW_Read
 1500              	.LVL247:
 1501 003c 0028     		cmp	r0, #0
 1502 003e F8D1     		bne	.L102
 477:main.c        **** }
 1503              		.loc 1 477 0
 1504 0040 FFF7FEFF 		bl	Button_Timer_Start
 1505              	.LVL248:
 1506 0044 08BD     		pop	{r3, pc}
 1507              	.L105:
 1508 0046 00BF     		.align	2
 1509              	.L104:
 1510 0048 00000000 		.word	.LANCHOR0
 1511              		.cfi_endproc
 1512              	.LFE73:
 1513              		.size	Input_1_Handler, .-Input_1_Handler
ARM GAS  C:\Users\LUKASC~1\AppData\Local\Temp\cckvmXWF.s 			page 42


 1514              		.section	.text.Mute_Handler,"ax",%progbits
 1515              		.align	2
 1516              		.global	Mute_Handler
 1517              		.thumb
 1518              		.thumb_func
 1519              		.type	Mute_Handler, %function
 1520              	Mute_Handler:
 1521              	.LFB78:
 536:main.c        ****     i_Mute_Disable();
 1522              		.loc 1 536 0
 1523              		.cfi_startproc
 1524              		@ args = 0, pretend = 0, frame = 0
 1525              		@ frame_needed = 0, uses_anonymous_args = 0
 1526 0000 08B5     		push	{r3, lr}
 1527              		.cfi_def_cfa_offset 8
 1528              		.cfi_offset 3, -8
 1529              		.cfi_offset 14, -4
 537:main.c        ****     if(Mute_SW_Read())
 1530              		.loc 1 537 0
 1531 0002 FFF7FEFF 		bl	i_Mute_Disable
 1532              	.LVL249:
 538:main.c        ****     {
 1533              		.loc 1 538 0
 1534 0006 FFF7FEFF 		bl	Mute_SW_Read
 1535              	.LVL250:
 1536 000a A0B1     		cbz	r0, .L110
 540:main.c        ****         else muted=1;
 1537              		.loc 1 540 0
 1538 000c 0D4B     		ldr	r3, .L113
 1539 000e 1B78     		ldrb	r3, [r3]	@ zero_extendqisi2
 1540 0010 1BB1     		cbz	r3, .L108
 540:main.c        ****         else muted=1;
 1541              		.loc 1 540 0 is_stmt 0 discriminator 1
 1542 0012 0022     		movs	r2, #0
 1543 0014 0B4B     		ldr	r3, .L113
 1544 0016 1A70     		strb	r2, [r3]
 1545 0018 02E0     		b	.L109
 1546              	.L108:
 541:main.c        ****         set_input(input);
 1547              		.loc 1 541 0 is_stmt 1
 1548 001a 0122     		movs	r2, #1
 1549 001c 094B     		ldr	r3, .L113
 1550 001e 1A70     		strb	r2, [r3]
 1551              	.L109:
 542:main.c        ****         USBUART_PutChar('m');
 1552              		.loc 1 542 0
 1553 0020 094B     		ldr	r3, .L113+4
 1554 0022 5878     		ldrb	r0, [r3, #1]	@ zero_extendqisi2
 1555 0024 FFF7FEFF 		bl	set_input
 1556              	.LVL251:
 543:main.c        ****     }
 1557              		.loc 1 543 0
 1558 0028 6D20     		movs	r0, #109
 1559 002a FFF7FEFF 		bl	USBUART_PutChar
 1560              	.LVL252:
 1561 002e 02E0     		b	.L110
 1562              	.L111:
ARM GAS  C:\Users\LUKASC~1\AppData\Local\Temp\cckvmXWF.s 			page 43


 547:main.c        ****     } 
 1563              		.loc 1 547 0
 1564 0030 0A20     		movs	r0, #10
 1565 0032 FFF7FEFF 		bl	CyDelay
 1566              	.LVL253:
 1567              	.L110:
 546:main.c        ****         CyDelay(SW_DELAY);
 1568              		.loc 1 546 0
 1569 0036 FFF7FEFF 		bl	Mute_SW_Read
 1570              	.LVL254:
 1571 003a 0028     		cmp	r0, #0
 1572 003c F8D1     		bne	.L111
 550:main.c        **** }
 1573              		.loc 1 550 0
 1574 003e FFF7FEFF 		bl	Button_Timer_Start
 1575              	.LVL255:
 1576 0042 08BD     		pop	{r3, pc}
 1577              	.L114:
 1578              		.align	2
 1579              	.L113:
 1580 0044 00000000 		.word	.LANCHOR1
 1581 0048 00000000 		.word	.LANCHOR0
 1582              		.cfi_endproc
 1583              	.LFE78:
 1584              		.size	Mute_Handler, .-Mute_Handler
 1585              		.section	.text.NestedErrorHandler,"ax",%progbits
 1586              		.align	2
 1587              		.global	NestedErrorHandler
 1588              		.thumb
 1589              		.thumb_func
 1590              		.type	NestedErrorHandler, %function
 1591              	NestedErrorHandler:
 1592              	.LFB81:
 590:main.c        **** }
 591:main.c        **** CY_ISR(NestedErrorHandler)
 592:main.c        **** {
 1593              		.loc 1 592 0
 1594              		.cfi_startproc
 1595              		@ args = 0, pretend = 0, frame = 0
 1596              		@ frame_needed = 0, uses_anonymous_args = 0
 1597              		@ link register save eliminated.
 593:main.c        ****     /* To fire this use */
 594:main.c        ****     //CyIntSetPending(NESTED_ERROR);
 595:main.c        ****     
 596:main.c        ****     
 597:main.c        ****     
 598:main.c        ****     /* Clear pending Interrupt */
 599:main.c        ****     CyIntClearPending(NESTED_ERROR);
 1598              		.loc 1 599 0
 1599 0000 0222     		movs	r2, #2
 1600 0002 014B     		ldr	r3, .L116
 1601 0004 1A60     		str	r2, [r3]
 1602 0006 7047     		bx	lr
 1603              	.L117:
 1604              		.align	2
 1605              	.L116:
 1606 0008 80E200E0 		.word	-536812928
ARM GAS  C:\Users\LUKASC~1\AppData\Local\Temp\cckvmXWF.s 			page 44


 1607              		.cfi_endproc
 1608              	.LFE81:
 1609              		.size	NestedErrorHandler, .-NestedErrorHandler
 1610              		.global	muted
 1611              		.global	input
 1612              		.global	globalstate
 1613              		.global	stop
 1614              		.global	parity
 1615              		.data
 1616              		.align	2
 1617              		.set	.LANCHOR0,. + 0
 1618              		.type	globalstate, %object
 1619              		.size	globalstate, 1
 1620              	globalstate:
 1621 0000 02       		.byte	2
 1622              		.type	input, %object
 1623              		.size	input, 1
 1624              	input:
 1625 0001 01       		.byte	1
 1626 0002 0000     		.space	2
 1627              		.type	stop, %object
 1628              		.size	stop, 12
 1629              	stop:
 1630 0004 00000000 		.word	.LC0
 1631 0008 04000000 		.word	.LC1
 1632 000c 08000000 		.word	.LC2
 1633              		.type	parity, %object
 1634              		.size	parity, 20
 1635              	parity:
 1636 0010 0C000000 		.word	.LC3
 1637 0014 14000000 		.word	.LC4
 1638 0018 18000000 		.word	.LC5
 1639 001c 20000000 		.word	.LC6
 1640 0020 28000000 		.word	.LC7
 1641              		.section	.rodata.str1.4,"aMS",%progbits,1
 1642              		.align	2
 1643              	.LC0:
 1644 0000 3100     		.ascii	"1\000"
 1645 0002 0000     		.space	2
 1646              	.LC1:
 1647 0004 312E3500 		.ascii	"1.5\000"
 1648              	.LC2:
 1649 0008 3200     		.ascii	"2\000"
 1650 000a 0000     		.space	2
 1651              	.LC3:
 1652 000c 4E6F6E65 		.ascii	"None\000"
 1652      00
 1653 0011 000000   		.space	3
 1654              	.LC4:
 1655 0014 4F646400 		.ascii	"Odd\000"
 1656              	.LC5:
 1657 0018 4576656E 		.ascii	"Even\000"
 1657      00
 1658 001d 000000   		.space	3
 1659              	.LC6:
 1660 0020 4D61726B 		.ascii	"Mark\000"
 1660      00
ARM GAS  C:\Users\LUKASC~1\AppData\Local\Temp\cckvmXWF.s 			page 45


 1661 0025 000000   		.space	3
 1662              	.LC7:
 1663 0028 53706163 		.ascii	"Space\000"
 1663      6500
 1664 002e 0000     		.bss
 1665              		.set	.LANCHOR1,. + 0
 1666              		.type	muted, %object
 1667              		.size	muted, 1
 1668              	muted:
 1669 0000 00       		.space	1
 1670              		.text
 1671              	.Letext0:
 1672              		.file 2 "c:\\program files (x86)\\cypress\\psoc creator\\4.0\\psoc creator\\import\\gnu\\arm\\4.9.
 1673              		.file 3 "c:\\program files (x86)\\cypress\\psoc creator\\4.0\\psoc creator\\import\\gnu\\arm\\4.9.
 1674              		.file 4 "Generated_Source\\PSoC5/cytypes.h"
 1675              		.file 5 "Generated_Source\\PSoC5/core_cm3.h"
 1676              		.file 6 "Generated_Source\\PSoC5/i_Power.h"
 1677              		.file 7 "Generated_Source\\PSoC5/i_Right.h"
 1678              		.file 8 "Generated_Source\\PSoC5/Power_SW.h"
 1679              		.file 9 "Generated_Source\\PSoC5/Right_SW.h"
 1680              		.file 10 "Generated_Source\\PSoC5/CyLib.h"
 1681              		.file 11 "Generated_Source\\PSoC5/USBUART_cdc.h"
 1682              		.file 12 "Generated_Source\\PSoC5/Button_Timer.h"
 1683              		.file 13 "Generated_Source\\PSoC5/i_Down.h"
 1684              		.file 14 "Generated_Source\\PSoC5/Down_SW.h"
 1685              		.file 15 "Generated_Source\\PSoC5/i_Up.h"
 1686              		.file 16 "Generated_Source\\PSoC5/Up_SW.h"
 1687              		.file 17 "Generated_Source\\PSoC5/i_Left.h"
 1688              		.file 18 "Generated_Source\\PSoC5/Left_SW.h"
 1689              		.file 19 "Generated_Source\\PSoC5/i_Enter.h"
 1690              		.file 20 "Generated_Source\\PSoC5/Enter_SW.h"
 1691              		.file 21 "Generated_Source\\PSoC5/i_Input_2.h"
 1692              		.file 22 "Generated_Source\\PSoC5/i_Input_1.h"
 1693              		.file 23 "Generated_Source\\PSoC5/i_Mute.h"
 1694              		.file 24 "Generated_Source\\PSoC5/Button_Timer_Interrupt.h"
 1695              		.file 25 "Generated_Source\\PSoC5/Protection_CLR.h"
 1696              		.file 26 "Generated_Source\\PSoC5/Protection_IN.h"
 1697              		.file 27 "Generated_Source\\PSoC5/Protection_CLK.h"
 1698              		.file 28 "Generated_Source\\PSoC5/Volume_1.h"
 1699              		.file 29 "Generated_Source\\PSoC5/Volume_ADC.h"
 1700              		.file 30 "Generated_Source\\PSoC5/Volume_2.h"
 1701              		.file 31 "Generated_Source\\PSoC5/Volume_Timer.h"
 1702              		.file 32 "Generated_Source\\PSoC5/Input_Relais_0.h"
 1703              		.file 33 "Generated_Source\\PSoC5/Input_Relais_1.h"
 1704              		.file 34 "Generated_Source\\PSoC5/Input_Relais_2.h"
 1705              		.file 35 "Generated_Source\\PSoC5/Input_Relais_3.h"
 1706              		.file 36 "Generated_Source\\PSoC5/Input_Relais_4.h"
 1707              		.file 37 "Generated_Source\\PSoC5/Input_Relais_5.h"
 1708              		.file 38 "Generated_Source\\PSoC5/Input_Relais_6.h"
 1709              		.file 39 "Generated_Source\\PSoC5/Input_Relais_7.h"
 1710              		.file 40 "Generated_Source\\PSoC5/U1_LED.h"
 1711              		.file 41 "Generated_Source\\PSoC5/U2_LED.h"
 1712              		.file 42 "Generated_Source\\PSoC5/U3_LED.h"
 1713              		.file 43 "Generated_Source\\PSoC5/U4_LED.h"
 1714              		.file 44 "Generated_Source\\PSoC5/U5_LED.h"
 1715              		.file 45 "Generated_Source\\PSoC5/U6_LED.h"
 1716              		.file 46 "Generated_Source\\PSoC5/U7_LED.h"
ARM GAS  C:\Users\LUKASC~1\AppData\Local\Temp\cckvmXWF.s 			page 46


 1717              		.file 47 "Generated_Source\\PSoC5/U8_LED.h"
 1718              		.file 48 "Generated_Source\\PSoC5/D1_LED.h"
 1719              		.file 49 "Generated_Source\\PSoC5/Power_LED.h"
 1720              		.file 50 "Generated_Source\\PSoC5/D2_LED.h"
 1721              		.file 51 "Generated_Source\\PSoC5/D3_LED.h"
 1722              		.file 52 "Generated_Source\\PSoC5/USBUART.h"
 1723              		.file 53 "Generated_Source\\PSoC5/Input_2_SW.h"
 1724              		.file 54 "Generated_Source\\PSoC5/Input_1_SW.h"
 1725              		.file 55 "Generated_Source\\PSoC5/Mute_SW.h"