ARM GAS  C:\Users\LUKASC~1\AppData\Local\Temp\ccTX05WU.s 			page 1


   1              		.syntax unified
   2              		.cpu cortex-m3
   3              		.fpu softvfp
   4              		.eabi_attribute 20, 1
   5              		.eabi_attribute 21, 1
   6              		.eabi_attribute 23, 3
   7              		.eabi_attribute 24, 1
   8              		.eabi_attribute 25, 1
   9              		.eabi_attribute 26, 1
  10              		.eabi_attribute 30, 6
  11              		.eabi_attribute 34, 1
  12              		.eabi_attribute 18, 4
  13              		.thumb
  14              		.file	"main.c"
  15              		.text
  16              	.Ltext0:
  17              		.cfi_sections	.debug_frame
  18              		.global _printf_float
  19              		.thumb
  20              		.global	finishedDMA
  21              		.bss
  22              		.type	finishedDMA, %object
  23              		.size	finishedDMA, 1
  24              	finishedDMA:
  25 0000 00       		.space	1
  26              		.global	dataReady
  27              		.type	dataReady, %object
  28              		.size	dataReady, 1
  29              	dataReady:
  30 0001 00       		.space	1
  31              		.comm	result,2,2
  32              		.section	.text.DmaDone,"ax",%progbits
  33              		.align	2
  34              		.global	DmaDone
  35              		.thumb
  36              		.thumb_func
  37              		.type	DmaDone, %function
  38              	DmaDone:
  39              	.LFB63:
  40              		.file 1 "main.c"
   1:main.c        **** /*******************************************************************************
   2:main.c        **** * File Name: main.c
   3:main.c        **** *
   4:main.c        **** * Version: 2.0
   5:main.c        **** *
   6:main.c        **** * Description:
   7:main.c        **** *  The SAR ADC and PrISM datasheet example project.
   8:main.c        **** *  This example project demonstrates SAR ADC measurements and transferring
   9:main.c        **** *  results using ISR and DMA to the LCD and PrISM.
  10:main.c        **** *
  11:main.c        **** * Note:
  12:main.c        **** *  Pin_Vin pin (P1[4]) should be connected to the VR.
  13:main.c        **** *  Pin_LED pin (P1[6]) should be connected to the LED.
  14:main.c        **** *  Verify that VR_PWR(J11) is jumpered to ON.
  15:main.c        **** *
  16:main.c        **** * Hardware Dependency:
  17:main.c        **** *  CY8C55 Family Processor
ARM GAS  C:\Users\LUKASC~1\AppData\Local\Temp\ccTX05WU.s 			page 2


  18:main.c        **** *
  19:main.c        **** ********************************************************************************
  20:main.c        **** * Copyright 2012, Cypress Semiconductor Corporation. All rights reserved.
  21:main.c        **** * This software is owned by Cypress Semiconductor Corporation and is protected
  22:main.c        **** * by and subject to worldwide patent and copyright laws and treaties.
  23:main.c        **** * Therefore, you may use this software only as provided in the license agreement
  24:main.c        **** * accompanying the software package from which you obtained this software.
  25:main.c        **** * CYPRESS AND ITS SUPPLIERS MAKE NO WARRANTY OF ANY KIND, EXPRESS OR IMPLIED,
  26:main.c        **** * WITH REGARD TO THIS SOFTWARE, INCLUDING, BUT NOT LIMITED TO, NONINFRINGEMENT,
  27:main.c        **** * IMPLIED WARRANTIES OF MERCHANTABILITY AND FITNESS FOR A PARTICULAR PURPOSE.
  28:main.c        **** *******************************************************************************/
  29:main.c        **** 
  30:main.c        **** #include <project.h>
  31:main.c        **** #include <stdio.h>
  32:main.c        **** 
  33:main.c        **** #if defined (__GNUC__)
  34:main.c        ****     /* Add an explicit reference to the floating point printf library */
  35:main.c        ****     /* to allow the usage of floating point conversion specifiers. */
  36:main.c        ****     /* This is not linked in by default with the newlib-nano library. */
  37:main.c        ****     asm (".global _printf_float");
  38:main.c        **** #endif
  39:main.c        **** 
  40:main.c        **** uint8 finishedDMA = 0u;
  41:main.c        **** uint8 dataReady = 0u;
  42:main.c        **** uint16 result;
  43:main.c        **** 
  44:main.c        **** 
  45:main.c        **** /******************************************************************************
  46:main.c        **** * Function Name: DmaDone
  47:main.c        **** *******************************************************************************
  48:main.c        **** *
  49:main.c        **** * Summary:
  50:main.c        **** *  Handle Interrupt Service Routine. Source - DMA.
  51:main.c        **** *
  52:main.c        **** ******************************************************************************/
  53:main.c        **** CY_ISR(DmaDone)
  54:main.c        **** {
  41              		.loc 1 54 0
  42              		.cfi_startproc
  43              		@ args = 0, pretend = 0, frame = 0
  44              		@ frame_needed = 1, uses_anonymous_args = 0
  45              		@ link register save eliminated.
  46 0000 80B4     		push	{r7}
  47              		.cfi_def_cfa_offset 4
  48              		.cfi_offset 7, -4
  49 0002 00AF     		add	r7, sp, #0
  50              		.cfi_def_cfa_register 7
  55:main.c        ****     finishedDMA = 1u;
  51              		.loc 1 55 0
  52 0004 034B     		ldr	r3, .L2
  53 0006 0122     		movs	r2, #1
  54 0008 1A70     		strb	r2, [r3]
  56:main.c        **** }
  55              		.loc 1 56 0
  56 000a BD46     		mov	sp, r7
  57              		.cfi_def_cfa_register 13
  58              		@ sp needed
ARM GAS  C:\Users\LUKASC~1\AppData\Local\Temp\ccTX05WU.s 			page 3


  59 000c 5DF8047B 		ldr	r7, [sp], #4
  60              		.cfi_restore 7
  61              		.cfi_def_cfa_offset 0
  62 0010 7047     		bx	lr
  63              	.L3:
  64 0012 00BF     		.align	2
  65              	.L2:
  66 0014 00000000 		.word	finishedDMA
  67              		.cfi_endproc
  68              	.LFE63:
  69              		.size	DmaDone, .-DmaDone
  70              		.section	.text.ADC_SAR_2_ISR_LOC,"ax",%progbits
  71              		.align	2
  72              		.global	ADC_SAR_2_ISR_LOC
  73              		.thumb
  74              		.thumb_func
  75              		.type	ADC_SAR_2_ISR_LOC, %function
  76              	ADC_SAR_2_ISR_LOC:
  77              	.LFB64:
  57:main.c        **** 
  58:main.c        **** 
  59:main.c        **** /******************************************************************************
  60:main.c        **** * Function Name: ADC_SAR_ISR_LOC
  61:main.c        **** *******************************************************************************
  62:main.c        **** *
  63:main.c        **** * Summary:
  64:main.c        **** *  Handle Interrupt Service Routine. Source - SAR ADC.
  65:main.c        **** *
  66:main.c        **** ******************************************************************************/
  67:main.c        **** CY_ISR(ADC_SAR_2_ISR_LOC)
  68:main.c        **** {
  78              		.loc 1 68 0
  79              		.cfi_startproc
  80              		@ args = 0, pretend = 0, frame = 0
  81              		@ frame_needed = 1, uses_anonymous_args = 0
  82              		@ link register save eliminated.
  83 0000 80B4     		push	{r7}
  84              		.cfi_def_cfa_offset 4
  85              		.cfi_offset 7, -4
  86 0002 00AF     		add	r7, sp, #0
  87              		.cfi_def_cfa_register 7
  69:main.c        ****         result = CY_GET_REG16(ADC_SAR_2_SAR_WRK_PTR);
  88              		.loc 1 69 0
  89 0004 054B     		ldr	r3, .L5
  90 0006 1B88     		ldrh	r3, [r3]	@ movhi
  91 0008 9AB2     		uxth	r2, r3
  92 000a 054B     		ldr	r3, .L5+4
  93 000c 1A80     		strh	r2, [r3]	@ movhi
  70:main.c        ****         dataReady = 1u;
  94              		.loc 1 70 0
  95 000e 054B     		ldr	r3, .L5+8
  96 0010 0122     		movs	r2, #1
  97 0012 1A70     		strb	r2, [r3]
  71:main.c        **** }
  98              		.loc 1 71 0
  99 0014 BD46     		mov	sp, r7
 100              		.cfi_def_cfa_register 13
ARM GAS  C:\Users\LUKASC~1\AppData\Local\Temp\ccTX05WU.s 			page 4


 101              		@ sp needed
 102 0016 5DF8047B 		ldr	r7, [sp], #4
 103              		.cfi_restore 7
 104              		.cfi_def_cfa_offset 0
 105 001a 7047     		bx	lr
 106              	.L6:
 107              		.align	2
 108              	.L5:
 109 001c A25B0040 		.word	1073765282
 110 0020 00000000 		.word	result
 111 0024 00000000 		.word	dataReady
 112              		.cfi_endproc
 113              	.LFE64:
 114              		.size	ADC_SAR_2_ISR_LOC, .-ADC_SAR_2_ISR_LOC
 115              		.section	.rodata
 116              		.align	2
 117              	.LC0:
 118 0000 41444331 		.ascii	"ADC1=0x\000"
 118      3D307800 
 119              		.align	2
 120              	.LC1:
 121 0008 41444332 		.ascii	"ADC2=      V\000"
 121      3D202020 
 121      20202056 
 121      00
 122              		.global	__aeabi_f2d
 123 0015 000000   		.align	2
 124              	.LC2:
 125 0018 252B312E 		.ascii	"%+1.2f\000"
 125      326600
 126 001f 00       		.section	.text.main,"ax",%progbits
 127              		.align	2
 128              		.global	main
 129              		.thumb
 130              		.thumb_func
 131              		.type	main, %function
 132              	main:
 133              	.LFB65:
  72:main.c        **** 
  73:main.c        **** 
  74:main.c        **** /*******************************************************************************
  75:main.c        **** * Function Name: main
  76:main.c        **** ********************************************************************************
  77:main.c        **** *
  78:main.c        **** * Summary:
  79:main.c        **** *  Main function performs following functions:
  80:main.c        **** *   1. Initialises the DMA to move data from ADC_SAR_1 work registers to the
  81:main.c        **** *      PrISM pulse density registers.
  82:main.c        **** *   2. Initialises the ISR connected to the DMA nrq terminal(DMA done).
  83:main.c        **** *   3. Initialises the LCD.
  84:main.c        **** *   4. Initialises the PrISM with 1Mhz clock.
  85:main.c        **** *   5. Initialises the two SAR ADCs.
  86:main.c        **** *   6. Displays the results of ADC_SAR_1 when DmaDone ISR rises.
  87:main.c        **** *      The results are read from PrISM pulse density register.
  88:main.c        **** *   7. Displays the results of ADC_SAR_2 when internal EOC ISR rises.
  89:main.c        **** *
  90:main.c        **** * Parameters:
ARM GAS  C:\Users\LUKASC~1\AppData\Local\Temp\ccTX05WU.s 			page 5


  91:main.c        **** *  None.
  92:main.c        **** *
  93:main.c        **** * Return:
  94:main.c        **** *  None.
  95:main.c        **** *
  96:main.c        **** *******************************************************************************/
  97:main.c        **** int main()
  98:main.c        **** {
 134              		.loc 1 98 0
 135              		.cfi_startproc
 136              		@ args = 0, pretend = 0, frame = 32
 137              		@ frame_needed = 1, uses_anonymous_args = 0
 138 0000 B0B5     		push	{r4, r5, r7, lr}
 139              		.cfi_def_cfa_offset 16
 140              		.cfi_offset 4, -16
 141              		.cfi_offset 5, -12
 142              		.cfi_offset 7, -8
 143              		.cfi_offset 14, -4
 144 0002 88B0     		sub	sp, sp, #32
 145              		.cfi_def_cfa_offset 48
 146 0004 00AF     		add	r7, sp, #0
 147              		.cfi_def_cfa_register 7
  99:main.c        ****     /* Variable declarations for DMA_1 */
 100:main.c        ****     /* Move these variable declarations to the top of the function */
 101:main.c        ****     uint8 DMA_1_Chan;
 102:main.c        ****     uint8 DMA_1_TD[1u]={0u};
 148              		.loc 1 102 0
 149 0006 0023     		movs	r3, #0
 150 0008 3B75     		strb	r3, [r7, #20]
 103:main.c        ****     char8 resultStr[16u];
 104:main.c        ****     float res;
 105:main.c        **** 
 106:main.c        ****     /* DMA Configuration for DMA_1 */
 107:main.c        ****     #define DMA_1_BYTES_PER_BURST       (2u)
 108:main.c        ****     #define DMA_1_REQUEST_PER_BURST     (1u)
 109:main.c        ****     #define DMA_1_SRC_BASE              (CYDEV_PERIPH_BASE)
 110:main.c        ****     #define DMA_1_DST_BASE              (PrISM_DENSITY0_PTR)
 111:main.c        **** 
 112:main.c        ****     DMA_1_Chan = DMA_1_DmaInitialize(DMA_1_BYTES_PER_BURST,
 151              		.loc 1 112 0
 152 000a 0220     		movs	r0, #2
 153 000c 0121     		movs	r1, #1
 154 000e 4FF48042 		mov	r2, #16384
 155 0012 4FF48043 		mov	r3, #16384
 156 0016 FFF7FEFF 		bl	DMA_1_DmaInitialize
 157 001a 0346     		mov	r3, r0
 158 001c FB77     		strb	r3, [r7, #31]
 113:main.c        ****                                      DMA_1_REQUEST_PER_BURST,
 114:main.c        ****                                      HI16(DMA_1_SRC_BASE),
 115:main.c        ****                                      HI16(DMA_1_DST_BASE));
 116:main.c        **** 
 117:main.c        ****     DMA_1_TD[0] = CyDmaTdAllocate();
 159              		.loc 1 117 0
 160 001e FFF7FEFF 		bl	CyDmaTdAllocate
 161 0022 0346     		mov	r3, r0
 162 0024 3B75     		strb	r3, [r7, #20]
 118:main.c        **** 
ARM GAS  C:\Users\LUKASC~1\AppData\Local\Temp\ccTX05WU.s 			page 6


 119:main.c        ****     /* Enable nrq */
 120:main.c        ****     CyDmaTdSetConfiguration(DMA_1_TD[0u],
 163              		.loc 1 120 0
 164 0026 3B7D     		ldrb	r3, [r7, #20]	@ zero_extendqisi2
 165 0028 1846     		mov	r0, r3
 166 002a 0221     		movs	r1, #2
 167 002c FF22     		movs	r2, #255
 168 002e 0623     		movs	r3, #6
 169 0030 FFF7FEFF 		bl	CyDmaTdSetConfiguration
 121:main.c        ****                             2u,
 122:main.c        ****                             DMA_INVALID_TD,
 123:main.c        ****                             TD_INC_DST_ADR | DMA_1__TD_TERMOUT_EN);
 124:main.c        **** 
 125:main.c        ****     CyDmaTdSetAddress(DMA_1_TD[0u],
 170              		.loc 1 125 0
 171 0034 3B7D     		ldrb	r3, [r7, #20]	@ zero_extendqisi2
 172 0036 1846     		mov	r0, r3
 173 0038 45F6A031 		movw	r1, #23456
 174 003c 46F65402 		movw	r2, #26708
 175 0040 FFF7FEFF 		bl	CyDmaTdSetAddress
 126:main.c        ****                       LO16((uint32)ADC_SAR_1_SAR_WRK0_PTR),
 127:main.c        ****                       LO16((uint32)PrISM_DENSITY0_PTR));
 128:main.c        **** 
 129:main.c        ****     CyDmaChSetInitialTd(DMA_1_Chan, DMA_1_TD[0u]);
 176              		.loc 1 129 0
 177 0044 3B7D     		ldrb	r3, [r7, #20]	@ zero_extendqisi2
 178 0046 FA7F     		ldrb	r2, [r7, #31]	@ zero_extendqisi2
 179 0048 1046     		mov	r0, r2
 180 004a 1946     		mov	r1, r3
 181 004c FFF7FEFF 		bl	CyDmaChSetInitialTd
 130:main.c        **** 
 131:main.c        ****     CyDmaChEnable(DMA_1_Chan, 1u);
 182              		.loc 1 131 0
 183 0050 FB7F     		ldrb	r3, [r7, #31]	@ zero_extendqisi2
 184 0052 1846     		mov	r0, r3
 185 0054 0121     		movs	r1, #1
 186 0056 FFF7FEFF 		bl	CyDmaChEnable
 132:main.c        **** 
 133:main.c        ****     /* Setup the Interrupt connected to the nrq terminal. */
 134:main.c        ****     isr_1_StartEx(DmaDone);
 187              		.loc 1 134 0
 188 005a 2C48     		ldr	r0, .L11
 189 005c FFF7FEFF 		bl	isr_1_StartEx
 135:main.c        **** 
 136:main.c        ****     /* Initializes the LCD. */
 137:main.c        ****     LCD_Start();
 190              		.loc 1 137 0
 191 0060 FFF7FEFF 		bl	LCD_Start
 138:main.c        ****     LCD_Position(0u,0u);
 192              		.loc 1 138 0
 193 0064 0020     		movs	r0, #0
 194 0066 0021     		movs	r1, #0
 195 0068 FFF7FEFF 		bl	LCD_Position
 139:main.c        ****     LCD_PrintString("ADC1=0x");
 196              		.loc 1 139 0
 197 006c 2848     		ldr	r0, .L11+4
 198 006e FFF7FEFF 		bl	LCD_PrintString
ARM GAS  C:\Users\LUKASC~1\AppData\Local\Temp\ccTX05WU.s 			page 7


 140:main.c        ****     LCD_Position(1u,0u);
 199              		.loc 1 140 0
 200 0072 0120     		movs	r0, #1
 201 0074 0021     		movs	r1, #0
 202 0076 FFF7FEFF 		bl	LCD_Position
 141:main.c        ****     LCD_PrintString("ADC2=      V");
 203              		.loc 1 141 0
 204 007a 2648     		ldr	r0, .L11+8
 205 007c FFF7FEFF 		bl	LCD_PrintString
 142:main.c        **** 
 143:main.c        ****     Clock_Start();
 206              		.loc 1 143 0
 207 0080 FFF7FEFF 		bl	Clock_Start
 144:main.c        ****     PrISM_Start();
 208              		.loc 1 144 0
 209 0084 FFF7FEFF 		bl	PrISM_Start
 145:main.c        **** 
 146:main.c        ****     ADC_SAR_1_Start();
 210              		.loc 1 146 0
 211 0088 FFF7FEFF 		bl	ADC_SAR_1_Start
 147:main.c        ****     ADC_SAR_1_StartConvert();
 212              		.loc 1 147 0
 213 008c FFF7FEFF 		bl	ADC_SAR_1_StartConvert
 148:main.c        ****     ADC_SAR_2_Start();
 214              		.loc 1 148 0
 215 0090 FFF7FEFF 		bl	ADC_SAR_2_Start
 149:main.c        ****     ADC_SAR_2_IRQ_StartEx(ADC_SAR_2_ISR_LOC);
 216              		.loc 1 149 0
 217 0094 2048     		ldr	r0, .L11+12
 218 0096 FFF7FEFF 		bl	ADC_SAR_2_IRQ_StartEx
 150:main.c        ****     ADC_SAR_2_StartConvert();
 219              		.loc 1 150 0
 220 009a FFF7FEFF 		bl	ADC_SAR_2_StartConvert
 151:main.c        **** 
 152:main.c        ****     CyGlobalIntEnable;
 221              		.loc 1 152 0
 222              	@ 152 "main.c" 1
 223 009e 62B6     		CPSIE   i
 224              	@ 0 "" 2
 225              		.thumb
 226              	.L10:
 153:main.c        **** 
 154:main.c        ****     for(;;)
 155:main.c        ****     {
 156:main.c        ****         /* Show ADC1 result on LCD*/
 157:main.c        ****         if(finishedDMA != 0u)
 227              		.loc 1 157 0
 228 00a0 1E4B     		ldr	r3, .L11+16
 229 00a2 1B78     		ldrb	r3, [r3]	@ zero_extendqisi2
 230 00a4 002B     		cmp	r3, #0
 231 00a6 0CD0     		beq	.L8
 158:main.c        ****         {
 159:main.c        ****             LCD_Position(0u,7u);
 232              		.loc 1 159 0
 233 00a8 0020     		movs	r0, #0
 234 00aa 0721     		movs	r1, #7
 235 00ac FFF7FEFF 		bl	LCD_Position
ARM GAS  C:\Users\LUKASC~1\AppData\Local\Temp\ccTX05WU.s 			page 8


 160:main.c        ****             LCD_PrintInt16(PrISM_ReadPulse0());
 236              		.loc 1 160 0
 237 00b0 FFF7FEFF 		bl	PrISM_ReadPulse0
 238 00b4 0346     		mov	r3, r0
 239 00b6 1846     		mov	r0, r3
 240 00b8 FFF7FEFF 		bl	LCD_PrintInt16
 161:main.c        ****             finishedDMA = 0u;
 241              		.loc 1 161 0
 242 00bc 174B     		ldr	r3, .L11+16
 243 00be 0022     		movs	r2, #0
 244 00c0 1A70     		strb	r2, [r3]
 245              	.L8:
 162:main.c        ****         }
 163:main.c        **** 
 164:main.c        ****         /* Show ADC2 result on LCD*/
 165:main.c        ****         if(dataReady != 0u)
 246              		.loc 1 165 0
 247 00c2 174B     		ldr	r3, .L11+20
 248 00c4 1B78     		ldrb	r3, [r3]	@ zero_extendqisi2
 249 00c6 002B     		cmp	r3, #0
 250 00c8 1ED0     		beq	.L9
 166:main.c        ****         {
 167:main.c        ****             res = ADC_SAR_2_CountsTo_Volts(result);
 251              		.loc 1 167 0
 252 00ca 164B     		ldr	r3, .L11+24
 253 00cc 1B88     		ldrh	r3, [r3]
 254 00ce 9BB2     		uxth	r3, r3
 255 00d0 1BB2     		sxth	r3, r3
 256 00d2 1846     		mov	r0, r3
 257 00d4 FFF7FEFF 		bl	ADC_SAR_2_CountsTo_Volts
 258 00d8 B861     		str	r0, [r7, #24]	@ float
 168:main.c        ****             sprintf((char *)resultStr,"%+1.2f",res);
 259              		.loc 1 168 0
 260 00da B869     		ldr	r0, [r7, #24]	@ float
 261 00dc FFF7FEFF 		bl	__aeabi_f2d
 262 00e0 0446     		mov	r4, r0
 263 00e2 0D46     		mov	r5, r1
 264 00e4 3B1D     		adds	r3, r7, #4
 265 00e6 1846     		mov	r0, r3
 266 00e8 0F49     		ldr	r1, .L11+28
 267 00ea 2246     		mov	r2, r4
 268 00ec 2B46     		mov	r3, r5
 269 00ee FFF7FEFF 		bl	sprintf
 169:main.c        ****             LCD_Position(1u,5u);
 270              		.loc 1 169 0
 271 00f2 0120     		movs	r0, #1
 272 00f4 0521     		movs	r1, #5
 273 00f6 FFF7FEFF 		bl	LCD_Position
 170:main.c        ****             LCD_PrintString(resultStr);
 274              		.loc 1 170 0
 275 00fa 3B1D     		adds	r3, r7, #4
 276 00fc 1846     		mov	r0, r3
 277 00fe FFF7FEFF 		bl	LCD_PrintString
 171:main.c        ****             dataReady = 0u;
 278              		.loc 1 171 0
 279 0102 074B     		ldr	r3, .L11+20
 280 0104 0022     		movs	r2, #0
ARM GAS  C:\Users\LUKASC~1\AppData\Local\Temp\ccTX05WU.s 			page 9


 281 0106 1A70     		strb	r2, [r3]
 282              	.L9:
 172:main.c        ****         }
 173:main.c        ****     }
 283              		.loc 1 173 0
 284 0108 CAE7     		b	.L10
 285              	.L12:
 286 010a 00BF     		.align	2
 287              	.L11:
 288 010c 00000000 		.word	DmaDone
 289 0110 00000000 		.word	.LC0
 290 0114 08000000 		.word	.LC1
 291 0118 00000000 		.word	ADC_SAR_2_ISR_LOC
 292 011c 00000000 		.word	finishedDMA
 293 0120 00000000 		.word	dataReady
 294 0124 00000000 		.word	result
 295 0128 18000000 		.word	.LC2
 296              		.cfi_endproc
 297              	.LFE65:
 298              		.size	main, .-main
 299              		.text
 300              	.Letext0:
 301              		.file 2 "c:\\program files (x86)\\cypress\\psoc creator\\4.0\\psoc creator\\import\\gnu\\arm\\4.9.
 302              		.file 3 "c:\\program files (x86)\\cypress\\psoc creator\\4.0\\psoc creator\\import\\gnu\\arm\\4.9.
 303              		.file 4 "Generated_Source\\PSoC5/cytypes.h"
 304              		.file 5 "Generated_Source\\PSoC5/core_cm3.h"